
SBSensor.elf:     file format elf32-littlearm

Sections:
Idx Name          Size      VMA       LMA       File off  Algn
  0 .isr_vector   0000010c  08000000  08000000  00010000  2**0
                  CONTENTS, ALLOC, LOAD, READONLY, DATA
  1 .text         00007adc  08000110  08000110  00010110  2**3
                  CONTENTS, ALLOC, LOAD, READONLY, CODE
  2 .rodata       0000039c  08007bf0  08007bf0  00017bf0  2**3
                  CONTENTS, ALLOC, LOAD, READONLY, DATA
  3 .ARM.extab    00000000  08007f8c  08007f8c  00020278  2**0
                  CONTENTS
  4 .ARM          00000000  08007f8c  08007f8c  00020278  2**0
                  CONTENTS
  5 .preinit_array 00000000  08007f8c  08007f8c  00020278  2**0
                  CONTENTS, ALLOC, LOAD, DATA
  6 .init_array   00000004  08007f8c  08007f8c  00017f8c  2**2
                  CONTENTS, ALLOC, LOAD, DATA
  7 .fini_array   00000004  08007f90  08007f90  00017f90  2**2
                  CONTENTS, ALLOC, LOAD, DATA
  8 .data         00000278  20000000  08007f94  00020000  2**2
                  CONTENTS, ALLOC, LOAD, DATA
  9 .bss          000007a4  20000278  0800820c  00020278  2**3
                  ALLOC
 10 ._user_heap_stack 00000604  20000a1c  0800820c  00020a1c  2**0
                  ALLOC
 11 .ARM.attributes 00000029  00000000  00000000  00020278  2**0
                  CONTENTS, READONLY
 12 .comment      00000043  00000000  00000000  000202a1  2**0
                  CONTENTS, READONLY
 13 .debug_frame  000011ac  00000000  00000000  000202e4  2**2
                  CONTENTS, READONLY, DEBUGGING, OCTETS

Disassembly of section .text:

08000110 <__do_global_dtors_aux>:
 8000110:	b510      	push	{r4, lr}
 8000112:	4c05      	ldr	r4, [pc, #20]	; (8000128 <__do_global_dtors_aux+0x18>)
 8000114:	7823      	ldrb	r3, [r4, #0]
 8000116:	b933      	cbnz	r3, 8000126 <__do_global_dtors_aux+0x16>
 8000118:	4b04      	ldr	r3, [pc, #16]	; (800012c <__do_global_dtors_aux+0x1c>)
 800011a:	b113      	cbz	r3, 8000122 <__do_global_dtors_aux+0x12>
 800011c:	4804      	ldr	r0, [pc, #16]	; (8000130 <__do_global_dtors_aux+0x20>)
 800011e:	f3af 8000 	nop.w
 8000122:	2301      	movs	r3, #1
 8000124:	7023      	strb	r3, [r4, #0]
 8000126:	bd10      	pop	{r4, pc}
 8000128:	20000278 	.word	0x20000278
 800012c:	00000000 	.word	0x00000000
 8000130:	08007bd4 	.word	0x08007bd4

08000134 <frame_dummy>:
 8000134:	b508      	push	{r3, lr}
 8000136:	4b03      	ldr	r3, [pc, #12]	; (8000144 <frame_dummy+0x10>)
 8000138:	b11b      	cbz	r3, 8000142 <frame_dummy+0xe>
 800013a:	4903      	ldr	r1, [pc, #12]	; (8000148 <frame_dummy+0x14>)
 800013c:	4803      	ldr	r0, [pc, #12]	; (800014c <frame_dummy+0x18>)
 800013e:	f3af 8000 	nop.w
 8000142:	bd08      	pop	{r3, pc}
 8000144:	00000000 	.word	0x00000000
 8000148:	2000027c 	.word	0x2000027c
 800014c:	08007bd4 	.word	0x08007bd4

08000150 <strlen>:
 8000150:	4603      	mov	r3, r0
 8000152:	f813 2b01 	ldrb.w	r2, [r3], #1
 8000156:	2a00      	cmp	r2, #0
 8000158:	d1fb      	bne.n	8000152 <strlen+0x2>
 800015a:	1a18      	subs	r0, r3, r0
 800015c:	3801      	subs	r0, #1
 800015e:	4770      	bx	lr

08000160 <__aeabi_drsub>:
 8000160:	f081 4100 	eor.w	r1, r1, #2147483648	; 0x80000000
 8000164:	e002      	b.n	800016c <__adddf3>
 8000166:	bf00      	nop

08000168 <__aeabi_dsub>:
 8000168:	f083 4300 	eor.w	r3, r3, #2147483648	; 0x80000000

0800016c <__adddf3>:
 800016c:	b530      	push	{r4, r5, lr}
 800016e:	ea4f 0441 	mov.w	r4, r1, lsl #1
 8000172:	ea4f 0543 	mov.w	r5, r3, lsl #1
 8000176:	ea94 0f05 	teq	r4, r5
 800017a:	bf08      	it	eq
 800017c:	ea90 0f02 	teqeq	r0, r2
 8000180:	bf1f      	itttt	ne
 8000182:	ea54 0c00 	orrsne.w	ip, r4, r0
 8000186:	ea55 0c02 	orrsne.w	ip, r5, r2
 800018a:	ea7f 5c64 	mvnsne.w	ip, r4, asr #21
 800018e:	ea7f 5c65 	mvnsne.w	ip, r5, asr #21
 8000192:	f000 80e2 	beq.w	800035a <__adddf3+0x1ee>
 8000196:	ea4f 5454 	mov.w	r4, r4, lsr #21
 800019a:	ebd4 5555 	rsbs	r5, r4, r5, lsr #21
 800019e:	bfb8      	it	lt
 80001a0:	426d      	neglt	r5, r5
 80001a2:	dd0c      	ble.n	80001be <__adddf3+0x52>
 80001a4:	442c      	add	r4, r5
 80001a6:	ea80 0202 	eor.w	r2, r0, r2
 80001aa:	ea81 0303 	eor.w	r3, r1, r3
 80001ae:	ea82 0000 	eor.w	r0, r2, r0
 80001b2:	ea83 0101 	eor.w	r1, r3, r1
 80001b6:	ea80 0202 	eor.w	r2, r0, r2
 80001ba:	ea81 0303 	eor.w	r3, r1, r3
 80001be:	2d36      	cmp	r5, #54	; 0x36
 80001c0:	bf88      	it	hi
 80001c2:	bd30      	pophi	{r4, r5, pc}
 80001c4:	f011 4f00 	tst.w	r1, #2147483648	; 0x80000000
 80001c8:	ea4f 3101 	mov.w	r1, r1, lsl #12
 80001cc:	f44f 1c80 	mov.w	ip, #1048576	; 0x100000
 80001d0:	ea4c 3111 	orr.w	r1, ip, r1, lsr #12
 80001d4:	d002      	beq.n	80001dc <__adddf3+0x70>
 80001d6:	4240      	negs	r0, r0
 80001d8:	eb61 0141 	sbc.w	r1, r1, r1, lsl #1
 80001dc:	f013 4f00 	tst.w	r3, #2147483648	; 0x80000000
 80001e0:	ea4f 3303 	mov.w	r3, r3, lsl #12
 80001e4:	ea4c 3313 	orr.w	r3, ip, r3, lsr #12
 80001e8:	d002      	beq.n	80001f0 <__adddf3+0x84>
 80001ea:	4252      	negs	r2, r2
 80001ec:	eb63 0343 	sbc.w	r3, r3, r3, lsl #1
 80001f0:	ea94 0f05 	teq	r4, r5
 80001f4:	f000 80a7 	beq.w	8000346 <__adddf3+0x1da>
 80001f8:	f1a4 0401 	sub.w	r4, r4, #1
 80001fc:	f1d5 0e20 	rsbs	lr, r5, #32
 8000200:	db0d      	blt.n	800021e <__adddf3+0xb2>
 8000202:	fa02 fc0e 	lsl.w	ip, r2, lr
 8000206:	fa22 f205 	lsr.w	r2, r2, r5
 800020a:	1880      	adds	r0, r0, r2
 800020c:	f141 0100 	adc.w	r1, r1, #0
 8000210:	fa03 f20e 	lsl.w	r2, r3, lr
 8000214:	1880      	adds	r0, r0, r2
 8000216:	fa43 f305 	asr.w	r3, r3, r5
 800021a:	4159      	adcs	r1, r3
 800021c:	e00e      	b.n	800023c <__adddf3+0xd0>
 800021e:	f1a5 0520 	sub.w	r5, r5, #32
 8000222:	f10e 0e20 	add.w	lr, lr, #32
 8000226:	2a01      	cmp	r2, #1
 8000228:	fa03 fc0e 	lsl.w	ip, r3, lr
 800022c:	bf28      	it	cs
 800022e:	f04c 0c02 	orrcs.w	ip, ip, #2
 8000232:	fa43 f305 	asr.w	r3, r3, r5
 8000236:	18c0      	adds	r0, r0, r3
 8000238:	eb51 71e3 	adcs.w	r1, r1, r3, asr #31
 800023c:	f001 4500 	and.w	r5, r1, #2147483648	; 0x80000000
 8000240:	d507      	bpl.n	8000252 <__adddf3+0xe6>
 8000242:	f04f 0e00 	mov.w	lr, #0
 8000246:	f1dc 0c00 	rsbs	ip, ip, #0
 800024a:	eb7e 0000 	sbcs.w	r0, lr, r0
 800024e:	eb6e 0101 	sbc.w	r1, lr, r1
 8000252:	f5b1 1f80 	cmp.w	r1, #1048576	; 0x100000
 8000256:	d31b      	bcc.n	8000290 <__adddf3+0x124>
 8000258:	f5b1 1f00 	cmp.w	r1, #2097152	; 0x200000
 800025c:	d30c      	bcc.n	8000278 <__adddf3+0x10c>
 800025e:	0849      	lsrs	r1, r1, #1
 8000260:	ea5f 0030 	movs.w	r0, r0, rrx
 8000264:	ea4f 0c3c 	mov.w	ip, ip, rrx
 8000268:	f104 0401 	add.w	r4, r4, #1
 800026c:	ea4f 5244 	mov.w	r2, r4, lsl #21
 8000270:	f512 0f80 	cmn.w	r2, #4194304	; 0x400000
 8000274:	f080 809a 	bcs.w	80003ac <__adddf3+0x240>
 8000278:	f1bc 4f00 	cmp.w	ip, #2147483648	; 0x80000000
 800027c:	bf08      	it	eq
 800027e:	ea5f 0c50 	movseq.w	ip, r0, lsr #1
 8000282:	f150 0000 	adcs.w	r0, r0, #0
 8000286:	eb41 5104 	adc.w	r1, r1, r4, lsl #20
 800028a:	ea41 0105 	orr.w	r1, r1, r5
 800028e:	bd30      	pop	{r4, r5, pc}
 8000290:	ea5f 0c4c 	movs.w	ip, ip, lsl #1
 8000294:	4140      	adcs	r0, r0
 8000296:	eb41 0101 	adc.w	r1, r1, r1
 800029a:	3c01      	subs	r4, #1
 800029c:	bf28      	it	cs
 800029e:	f5b1 1f80 	cmpcs.w	r1, #1048576	; 0x100000
 80002a2:	d2e9      	bcs.n	8000278 <__adddf3+0x10c>
 80002a4:	f091 0f00 	teq	r1, #0
 80002a8:	bf04      	itt	eq
 80002aa:	4601      	moveq	r1, r0
 80002ac:	2000      	moveq	r0, #0
 80002ae:	fab1 f381 	clz	r3, r1
 80002b2:	bf08      	it	eq
 80002b4:	3320      	addeq	r3, #32
 80002b6:	f1a3 030b 	sub.w	r3, r3, #11
 80002ba:	f1b3 0220 	subs.w	r2, r3, #32
 80002be:	da0c      	bge.n	80002da <__adddf3+0x16e>
 80002c0:	320c      	adds	r2, #12
 80002c2:	dd08      	ble.n	80002d6 <__adddf3+0x16a>
 80002c4:	f102 0c14 	add.w	ip, r2, #20
 80002c8:	f1c2 020c 	rsb	r2, r2, #12
 80002cc:	fa01 f00c 	lsl.w	r0, r1, ip
 80002d0:	fa21 f102 	lsr.w	r1, r1, r2
 80002d4:	e00c      	b.n	80002f0 <__adddf3+0x184>
 80002d6:	f102 0214 	add.w	r2, r2, #20
 80002da:	bfd8      	it	le
 80002dc:	f1c2 0c20 	rsble	ip, r2, #32
 80002e0:	fa01 f102 	lsl.w	r1, r1, r2
 80002e4:	fa20 fc0c 	lsr.w	ip, r0, ip
 80002e8:	bfdc      	itt	le
 80002ea:	ea41 010c 	orrle.w	r1, r1, ip
 80002ee:	4090      	lslle	r0, r2
 80002f0:	1ae4      	subs	r4, r4, r3
 80002f2:	bfa2      	ittt	ge
 80002f4:	eb01 5104 	addge.w	r1, r1, r4, lsl #20
 80002f8:	4329      	orrge	r1, r5
 80002fa:	bd30      	popge	{r4, r5, pc}
 80002fc:	ea6f 0404 	mvn.w	r4, r4
 8000300:	3c1f      	subs	r4, #31
 8000302:	da1c      	bge.n	800033e <__adddf3+0x1d2>
 8000304:	340c      	adds	r4, #12
 8000306:	dc0e      	bgt.n	8000326 <__adddf3+0x1ba>
 8000308:	f104 0414 	add.w	r4, r4, #20
 800030c:	f1c4 0220 	rsb	r2, r4, #32
 8000310:	fa20 f004 	lsr.w	r0, r0, r4
 8000314:	fa01 f302 	lsl.w	r3, r1, r2
 8000318:	ea40 0003 	orr.w	r0, r0, r3
 800031c:	fa21 f304 	lsr.w	r3, r1, r4
 8000320:	ea45 0103 	orr.w	r1, r5, r3
 8000324:	bd30      	pop	{r4, r5, pc}
 8000326:	f1c4 040c 	rsb	r4, r4, #12
 800032a:	f1c4 0220 	rsb	r2, r4, #32
 800032e:	fa20 f002 	lsr.w	r0, r0, r2
 8000332:	fa01 f304 	lsl.w	r3, r1, r4
 8000336:	ea40 0003 	orr.w	r0, r0, r3
 800033a:	4629      	mov	r1, r5
 800033c:	bd30      	pop	{r4, r5, pc}
 800033e:	fa21 f004 	lsr.w	r0, r1, r4
 8000342:	4629      	mov	r1, r5
 8000344:	bd30      	pop	{r4, r5, pc}
 8000346:	f094 0f00 	teq	r4, #0
 800034a:	f483 1380 	eor.w	r3, r3, #1048576	; 0x100000
 800034e:	bf06      	itte	eq
 8000350:	f481 1180 	eoreq.w	r1, r1, #1048576	; 0x100000
 8000354:	3401      	addeq	r4, #1
 8000356:	3d01      	subne	r5, #1
 8000358:	e74e      	b.n	80001f8 <__adddf3+0x8c>
 800035a:	ea7f 5c64 	mvns.w	ip, r4, asr #21
 800035e:	bf18      	it	ne
 8000360:	ea7f 5c65 	mvnsne.w	ip, r5, asr #21
 8000364:	d029      	beq.n	80003ba <__adddf3+0x24e>
 8000366:	ea94 0f05 	teq	r4, r5
 800036a:	bf08      	it	eq
 800036c:	ea90 0f02 	teqeq	r0, r2
 8000370:	d005      	beq.n	800037e <__adddf3+0x212>
 8000372:	ea54 0c00 	orrs.w	ip, r4, r0
 8000376:	bf04      	itt	eq
 8000378:	4619      	moveq	r1, r3
 800037a:	4610      	moveq	r0, r2
 800037c:	bd30      	pop	{r4, r5, pc}
 800037e:	ea91 0f03 	teq	r1, r3
 8000382:	bf1e      	ittt	ne
 8000384:	2100      	movne	r1, #0
 8000386:	2000      	movne	r0, #0
 8000388:	bd30      	popne	{r4, r5, pc}
 800038a:	ea5f 5c54 	movs.w	ip, r4, lsr #21
 800038e:	d105      	bne.n	800039c <__adddf3+0x230>
 8000390:	0040      	lsls	r0, r0, #1
 8000392:	4149      	adcs	r1, r1
 8000394:	bf28      	it	cs
 8000396:	f041 4100 	orrcs.w	r1, r1, #2147483648	; 0x80000000
 800039a:	bd30      	pop	{r4, r5, pc}
 800039c:	f514 0480 	adds.w	r4, r4, #4194304	; 0x400000
 80003a0:	bf3c      	itt	cc
 80003a2:	f501 1180 	addcc.w	r1, r1, #1048576	; 0x100000
 80003a6:	bd30      	popcc	{r4, r5, pc}
 80003a8:	f001 4500 	and.w	r5, r1, #2147483648	; 0x80000000
 80003ac:	f045 41fe 	orr.w	r1, r5, #2130706432	; 0x7f000000
 80003b0:	f441 0170 	orr.w	r1, r1, #15728640	; 0xf00000
 80003b4:	f04f 0000 	mov.w	r0, #0
 80003b8:	bd30      	pop	{r4, r5, pc}
 80003ba:	ea7f 5c64 	mvns.w	ip, r4, asr #21
 80003be:	bf1a      	itte	ne
 80003c0:	4619      	movne	r1, r3
 80003c2:	4610      	movne	r0, r2
 80003c4:	ea7f 5c65 	mvnseq.w	ip, r5, asr #21
 80003c8:	bf1c      	itt	ne
 80003ca:	460b      	movne	r3, r1
 80003cc:	4602      	movne	r2, r0
 80003ce:	ea50 3401 	orrs.w	r4, r0, r1, lsl #12
 80003d2:	bf06      	itte	eq
 80003d4:	ea52 3503 	orrseq.w	r5, r2, r3, lsl #12
 80003d8:	ea91 0f03 	teqeq	r1, r3
 80003dc:	f441 2100 	orrne.w	r1, r1, #524288	; 0x80000
 80003e0:	bd30      	pop	{r4, r5, pc}
 80003e2:	bf00      	nop

080003e4 <__aeabi_ui2d>:
 80003e4:	f090 0f00 	teq	r0, #0
 80003e8:	bf04      	itt	eq
 80003ea:	2100      	moveq	r1, #0
 80003ec:	4770      	bxeq	lr
 80003ee:	b530      	push	{r4, r5, lr}
 80003f0:	f44f 6480 	mov.w	r4, #1024	; 0x400
 80003f4:	f104 0432 	add.w	r4, r4, #50	; 0x32
 80003f8:	f04f 0500 	mov.w	r5, #0
 80003fc:	f04f 0100 	mov.w	r1, #0
 8000400:	e750      	b.n	80002a4 <__adddf3+0x138>
 8000402:	bf00      	nop

08000404 <__aeabi_i2d>:
 8000404:	f090 0f00 	teq	r0, #0
 8000408:	bf04      	itt	eq
 800040a:	2100      	moveq	r1, #0
 800040c:	4770      	bxeq	lr
 800040e:	b530      	push	{r4, r5, lr}
 8000410:	f44f 6480 	mov.w	r4, #1024	; 0x400
 8000414:	f104 0432 	add.w	r4, r4, #50	; 0x32
 8000418:	f010 4500 	ands.w	r5, r0, #2147483648	; 0x80000000
 800041c:	bf48      	it	mi
 800041e:	4240      	negmi	r0, r0
 8000420:	f04f 0100 	mov.w	r1, #0
 8000424:	e73e      	b.n	80002a4 <__adddf3+0x138>
 8000426:	bf00      	nop

08000428 <__aeabi_f2d>:
 8000428:	0042      	lsls	r2, r0, #1
 800042a:	ea4f 01e2 	mov.w	r1, r2, asr #3
 800042e:	ea4f 0131 	mov.w	r1, r1, rrx
 8000432:	ea4f 7002 	mov.w	r0, r2, lsl #28
 8000436:	bf1f      	itttt	ne
 8000438:	f012 437f 	andsne.w	r3, r2, #4278190080	; 0xff000000
 800043c:	f093 4f7f 	teqne	r3, #4278190080	; 0xff000000
 8000440:	f081 5160 	eorne.w	r1, r1, #939524096	; 0x38000000
 8000444:	4770      	bxne	lr
 8000446:	f032 427f 	bics.w	r2, r2, #4278190080	; 0xff000000
 800044a:	bf08      	it	eq
 800044c:	4770      	bxeq	lr
 800044e:	f093 4f7f 	teq	r3, #4278190080	; 0xff000000
 8000452:	bf04      	itt	eq
 8000454:	f441 2100 	orreq.w	r1, r1, #524288	; 0x80000
 8000458:	4770      	bxeq	lr
 800045a:	b530      	push	{r4, r5, lr}
 800045c:	f44f 7460 	mov.w	r4, #896	; 0x380
 8000460:	f001 4500 	and.w	r5, r1, #2147483648	; 0x80000000
 8000464:	f021 4100 	bic.w	r1, r1, #2147483648	; 0x80000000
 8000468:	e71c      	b.n	80002a4 <__adddf3+0x138>
 800046a:	bf00      	nop

0800046c <__aeabi_ul2d>:
 800046c:	ea50 0201 	orrs.w	r2, r0, r1
 8000470:	bf08      	it	eq
 8000472:	4770      	bxeq	lr
 8000474:	b530      	push	{r4, r5, lr}
 8000476:	f04f 0500 	mov.w	r5, #0
 800047a:	e00a      	b.n	8000492 <__aeabi_l2d+0x16>

0800047c <__aeabi_l2d>:
 800047c:	ea50 0201 	orrs.w	r2, r0, r1
 8000480:	bf08      	it	eq
 8000482:	4770      	bxeq	lr
 8000484:	b530      	push	{r4, r5, lr}
 8000486:	f011 4500 	ands.w	r5, r1, #2147483648	; 0x80000000
 800048a:	d502      	bpl.n	8000492 <__aeabi_l2d+0x16>
 800048c:	4240      	negs	r0, r0
 800048e:	eb61 0141 	sbc.w	r1, r1, r1, lsl #1
 8000492:	f44f 6480 	mov.w	r4, #1024	; 0x400
 8000496:	f104 0432 	add.w	r4, r4, #50	; 0x32
 800049a:	ea5f 5c91 	movs.w	ip, r1, lsr #22
 800049e:	f43f aed8 	beq.w	8000252 <__adddf3+0xe6>
 80004a2:	f04f 0203 	mov.w	r2, #3
 80004a6:	ea5f 0cdc 	movs.w	ip, ip, lsr #3
 80004aa:	bf18      	it	ne
 80004ac:	3203      	addne	r2, #3
 80004ae:	ea5f 0cdc 	movs.w	ip, ip, lsr #3
 80004b2:	bf18      	it	ne
 80004b4:	3203      	addne	r2, #3
 80004b6:	eb02 02dc 	add.w	r2, r2, ip, lsr #3
 80004ba:	f1c2 0320 	rsb	r3, r2, #32
 80004be:	fa00 fc03 	lsl.w	ip, r0, r3
 80004c2:	fa20 f002 	lsr.w	r0, r0, r2
 80004c6:	fa01 fe03 	lsl.w	lr, r1, r3
 80004ca:	ea40 000e 	orr.w	r0, r0, lr
 80004ce:	fa21 f102 	lsr.w	r1, r1, r2
 80004d2:	4414      	add	r4, r2
 80004d4:	e6bd      	b.n	8000252 <__adddf3+0xe6>
 80004d6:	bf00      	nop

080004d8 <__aeabi_dmul>:
 80004d8:	b570      	push	{r4, r5, r6, lr}
 80004da:	f04f 0cff 	mov.w	ip, #255	; 0xff
 80004de:	f44c 6ce0 	orr.w	ip, ip, #1792	; 0x700
 80004e2:	ea1c 5411 	ands.w	r4, ip, r1, lsr #20
 80004e6:	bf1d      	ittte	ne
 80004e8:	ea1c 5513 	andsne.w	r5, ip, r3, lsr #20
 80004ec:	ea94 0f0c 	teqne	r4, ip
 80004f0:	ea95 0f0c 	teqne	r5, ip
 80004f4:	f000 f8de 	bleq	80006b4 <__aeabi_dmul+0x1dc>
 80004f8:	442c      	add	r4, r5
 80004fa:	ea81 0603 	eor.w	r6, r1, r3
 80004fe:	ea21 514c 	bic.w	r1, r1, ip, lsl #21
 8000502:	ea23 534c 	bic.w	r3, r3, ip, lsl #21
 8000506:	ea50 3501 	orrs.w	r5, r0, r1, lsl #12
 800050a:	bf18      	it	ne
 800050c:	ea52 3503 	orrsne.w	r5, r2, r3, lsl #12
 8000510:	f441 1180 	orr.w	r1, r1, #1048576	; 0x100000
 8000514:	f443 1380 	orr.w	r3, r3, #1048576	; 0x100000
 8000518:	d038      	beq.n	800058c <__aeabi_dmul+0xb4>
 800051a:	fba0 ce02 	umull	ip, lr, r0, r2
 800051e:	f04f 0500 	mov.w	r5, #0
 8000522:	fbe1 e502 	umlal	lr, r5, r1, r2
 8000526:	f006 4200 	and.w	r2, r6, #2147483648	; 0x80000000
 800052a:	fbe0 e503 	umlal	lr, r5, r0, r3
 800052e:	f04f 0600 	mov.w	r6, #0
 8000532:	fbe1 5603 	umlal	r5, r6, r1, r3
 8000536:	f09c 0f00 	teq	ip, #0
 800053a:	bf18      	it	ne
 800053c:	f04e 0e01 	orrne.w	lr, lr, #1
 8000540:	f1a4 04ff 	sub.w	r4, r4, #255	; 0xff
 8000544:	f5b6 7f00 	cmp.w	r6, #512	; 0x200
 8000548:	f564 7440 	sbc.w	r4, r4, #768	; 0x300
 800054c:	d204      	bcs.n	8000558 <__aeabi_dmul+0x80>
 800054e:	ea5f 0e4e 	movs.w	lr, lr, lsl #1
 8000552:	416d      	adcs	r5, r5
 8000554:	eb46 0606 	adc.w	r6, r6, r6
 8000558:	ea42 21c6 	orr.w	r1, r2, r6, lsl #11
 800055c:	ea41 5155 	orr.w	r1, r1, r5, lsr #21
 8000560:	ea4f 20c5 	mov.w	r0, r5, lsl #11
 8000564:	ea40 505e 	orr.w	r0, r0, lr, lsr #21
 8000568:	ea4f 2ece 	mov.w	lr, lr, lsl #11
 800056c:	f1b4 0cfd 	subs.w	ip, r4, #253	; 0xfd
 8000570:	bf88      	it	hi
 8000572:	f5bc 6fe0 	cmphi.w	ip, #1792	; 0x700
 8000576:	d81e      	bhi.n	80005b6 <__aeabi_dmul+0xde>
 8000578:	f1be 4f00 	cmp.w	lr, #2147483648	; 0x80000000
 800057c:	bf08      	it	eq
 800057e:	ea5f 0e50 	movseq.w	lr, r0, lsr #1
 8000582:	f150 0000 	adcs.w	r0, r0, #0
 8000586:	eb41 5104 	adc.w	r1, r1, r4, lsl #20
 800058a:	bd70      	pop	{r4, r5, r6, pc}
 800058c:	f006 4600 	and.w	r6, r6, #2147483648	; 0x80000000
 8000590:	ea46 0101 	orr.w	r1, r6, r1
 8000594:	ea40 0002 	orr.w	r0, r0, r2
 8000598:	ea81 0103 	eor.w	r1, r1, r3
 800059c:	ebb4 045c 	subs.w	r4, r4, ip, lsr #1
 80005a0:	bfc2      	ittt	gt
 80005a2:	ebd4 050c 	rsbsgt	r5, r4, ip
 80005a6:	ea41 5104 	orrgt.w	r1, r1, r4, lsl #20
 80005aa:	bd70      	popgt	{r4, r5, r6, pc}
 80005ac:	f441 1180 	orr.w	r1, r1, #1048576	; 0x100000
 80005b0:	f04f 0e00 	mov.w	lr, #0
 80005b4:	3c01      	subs	r4, #1
 80005b6:	f300 80ab 	bgt.w	8000710 <__aeabi_dmul+0x238>
 80005ba:	f114 0f36 	cmn.w	r4, #54	; 0x36
 80005be:	bfde      	ittt	le
 80005c0:	2000      	movle	r0, #0
 80005c2:	f001 4100 	andle.w	r1, r1, #2147483648	; 0x80000000
 80005c6:	bd70      	pople	{r4, r5, r6, pc}
 80005c8:	f1c4 0400 	rsb	r4, r4, #0
 80005cc:	3c20      	subs	r4, #32
 80005ce:	da35      	bge.n	800063c <__aeabi_dmul+0x164>
 80005d0:	340c      	adds	r4, #12
 80005d2:	dc1b      	bgt.n	800060c <__aeabi_dmul+0x134>
 80005d4:	f104 0414 	add.w	r4, r4, #20
 80005d8:	f1c4 0520 	rsb	r5, r4, #32
 80005dc:	fa00 f305 	lsl.w	r3, r0, r5
 80005e0:	fa20 f004 	lsr.w	r0, r0, r4
 80005e4:	fa01 f205 	lsl.w	r2, r1, r5
 80005e8:	ea40 0002 	orr.w	r0, r0, r2
 80005ec:	f001 4200 	and.w	r2, r1, #2147483648	; 0x80000000
 80005f0:	f021 4100 	bic.w	r1, r1, #2147483648	; 0x80000000
 80005f4:	eb10 70d3 	adds.w	r0, r0, r3, lsr #31
 80005f8:	fa21 f604 	lsr.w	r6, r1, r4
 80005fc:	eb42 0106 	adc.w	r1, r2, r6
 8000600:	ea5e 0e43 	orrs.w	lr, lr, r3, lsl #1
 8000604:	bf08      	it	eq
 8000606:	ea20 70d3 	biceq.w	r0, r0, r3, lsr #31
 800060a:	bd70      	pop	{r4, r5, r6, pc}
 800060c:	f1c4 040c 	rsb	r4, r4, #12
 8000610:	f1c4 0520 	rsb	r5, r4, #32
 8000614:	fa00 f304 	lsl.w	r3, r0, r4
 8000618:	fa20 f005 	lsr.w	r0, r0, r5
 800061c:	fa01 f204 	lsl.w	r2, r1, r4
 8000620:	ea40 0002 	orr.w	r0, r0, r2
 8000624:	f001 4100 	and.w	r1, r1, #2147483648	; 0x80000000
 8000628:	eb10 70d3 	adds.w	r0, r0, r3, lsr #31
 800062c:	f141 0100 	adc.w	r1, r1, #0
 8000630:	ea5e 0e43 	orrs.w	lr, lr, r3, lsl #1
 8000634:	bf08      	it	eq
 8000636:	ea20 70d3 	biceq.w	r0, r0, r3, lsr #31
 800063a:	bd70      	pop	{r4, r5, r6, pc}
 800063c:	f1c4 0520 	rsb	r5, r4, #32
 8000640:	fa00 f205 	lsl.w	r2, r0, r5
 8000644:	ea4e 0e02 	orr.w	lr, lr, r2
 8000648:	fa20 f304 	lsr.w	r3, r0, r4
 800064c:	fa01 f205 	lsl.w	r2, r1, r5
 8000650:	ea43 0302 	orr.w	r3, r3, r2
 8000654:	fa21 f004 	lsr.w	r0, r1, r4
 8000658:	f001 4100 	and.w	r1, r1, #2147483648	; 0x80000000
 800065c:	fa21 f204 	lsr.w	r2, r1, r4
 8000660:	ea20 0002 	bic.w	r0, r0, r2
 8000664:	eb00 70d3 	add.w	r0, r0, r3, lsr #31
 8000668:	ea5e 0e43 	orrs.w	lr, lr, r3, lsl #1
 800066c:	bf08      	it	eq
 800066e:	ea20 70d3 	biceq.w	r0, r0, r3, lsr #31
 8000672:	bd70      	pop	{r4, r5, r6, pc}
 8000674:	f094 0f00 	teq	r4, #0
 8000678:	d10f      	bne.n	800069a <__aeabi_dmul+0x1c2>
 800067a:	f001 4600 	and.w	r6, r1, #2147483648	; 0x80000000
 800067e:	0040      	lsls	r0, r0, #1
 8000680:	eb41 0101 	adc.w	r1, r1, r1
 8000684:	f411 1f80 	tst.w	r1, #1048576	; 0x100000
 8000688:	bf08      	it	eq
 800068a:	3c01      	subeq	r4, #1
 800068c:	d0f7      	beq.n	800067e <__aeabi_dmul+0x1a6>
 800068e:	ea41 0106 	orr.w	r1, r1, r6
 8000692:	f095 0f00 	teq	r5, #0
 8000696:	bf18      	it	ne
 8000698:	4770      	bxne	lr
 800069a:	f003 4600 	and.w	r6, r3, #2147483648	; 0x80000000
 800069e:	0052      	lsls	r2, r2, #1
 80006a0:	eb43 0303 	adc.w	r3, r3, r3
 80006a4:	f413 1f80 	tst.w	r3, #1048576	; 0x100000
 80006a8:	bf08      	it	eq
 80006aa:	3d01      	subeq	r5, #1
 80006ac:	d0f7      	beq.n	800069e <__aeabi_dmul+0x1c6>
 80006ae:	ea43 0306 	orr.w	r3, r3, r6
 80006b2:	4770      	bx	lr
 80006b4:	ea94 0f0c 	teq	r4, ip
 80006b8:	ea0c 5513 	and.w	r5, ip, r3, lsr #20
 80006bc:	bf18      	it	ne
 80006be:	ea95 0f0c 	teqne	r5, ip
 80006c2:	d00c      	beq.n	80006de <__aeabi_dmul+0x206>
 80006c4:	ea50 0641 	orrs.w	r6, r0, r1, lsl #1
 80006c8:	bf18      	it	ne
 80006ca:	ea52 0643 	orrsne.w	r6, r2, r3, lsl #1
 80006ce:	d1d1      	bne.n	8000674 <__aeabi_dmul+0x19c>
 80006d0:	ea81 0103 	eor.w	r1, r1, r3
 80006d4:	f001 4100 	and.w	r1, r1, #2147483648	; 0x80000000
 80006d8:	f04f 0000 	mov.w	r0, #0
 80006dc:	bd70      	pop	{r4, r5, r6, pc}
 80006de:	ea50 0641 	orrs.w	r6, r0, r1, lsl #1
 80006e2:	bf06      	itte	eq
 80006e4:	4610      	moveq	r0, r2
 80006e6:	4619      	moveq	r1, r3
 80006e8:	ea52 0643 	orrsne.w	r6, r2, r3, lsl #1
 80006ec:	d019      	beq.n	8000722 <__aeabi_dmul+0x24a>
 80006ee:	ea94 0f0c 	teq	r4, ip
 80006f2:	d102      	bne.n	80006fa <__aeabi_dmul+0x222>
 80006f4:	ea50 3601 	orrs.w	r6, r0, r1, lsl #12
 80006f8:	d113      	bne.n	8000722 <__aeabi_dmul+0x24a>
 80006fa:	ea95 0f0c 	teq	r5, ip
 80006fe:	d105      	bne.n	800070c <__aeabi_dmul+0x234>
 8000700:	ea52 3603 	orrs.w	r6, r2, r3, lsl #12
 8000704:	bf1c      	itt	ne
 8000706:	4610      	movne	r0, r2
 8000708:	4619      	movne	r1, r3
 800070a:	d10a      	bne.n	8000722 <__aeabi_dmul+0x24a>
 800070c:	ea81 0103 	eor.w	r1, r1, r3
 8000710:	f001 4100 	and.w	r1, r1, #2147483648	; 0x80000000
 8000714:	f041 41fe 	orr.w	r1, r1, #2130706432	; 0x7f000000
 8000718:	f441 0170 	orr.w	r1, r1, #15728640	; 0xf00000
 800071c:	f04f 0000 	mov.w	r0, #0
 8000720:	bd70      	pop	{r4, r5, r6, pc}
 8000722:	f041 41fe 	orr.w	r1, r1, #2130706432	; 0x7f000000
 8000726:	f441 0178 	orr.w	r1, r1, #16252928	; 0xf80000
 800072a:	bd70      	pop	{r4, r5, r6, pc}

0800072c <__aeabi_ddiv>:
 800072c:	b570      	push	{r4, r5, r6, lr}
 800072e:	f04f 0cff 	mov.w	ip, #255	; 0xff
 8000732:	f44c 6ce0 	orr.w	ip, ip, #1792	; 0x700
 8000736:	ea1c 5411 	ands.w	r4, ip, r1, lsr #20
 800073a:	bf1d      	ittte	ne
 800073c:	ea1c 5513 	andsne.w	r5, ip, r3, lsr #20
 8000740:	ea94 0f0c 	teqne	r4, ip
 8000744:	ea95 0f0c 	teqne	r5, ip
 8000748:	f000 f8a7 	bleq	800089a <__aeabi_ddiv+0x16e>
 800074c:	eba4 0405 	sub.w	r4, r4, r5
 8000750:	ea81 0e03 	eor.w	lr, r1, r3
 8000754:	ea52 3503 	orrs.w	r5, r2, r3, lsl #12
 8000758:	ea4f 3101 	mov.w	r1, r1, lsl #12
 800075c:	f000 8088 	beq.w	8000870 <__aeabi_ddiv+0x144>
 8000760:	ea4f 3303 	mov.w	r3, r3, lsl #12
 8000764:	f04f 5580 	mov.w	r5, #268435456	; 0x10000000
 8000768:	ea45 1313 	orr.w	r3, r5, r3, lsr #4
 800076c:	ea43 6312 	orr.w	r3, r3, r2, lsr #24
 8000770:	ea4f 2202 	mov.w	r2, r2, lsl #8
 8000774:	ea45 1511 	orr.w	r5, r5, r1, lsr #4
 8000778:	ea45 6510 	orr.w	r5, r5, r0, lsr #24
 800077c:	ea4f 2600 	mov.w	r6, r0, lsl #8
 8000780:	f00e 4100 	and.w	r1, lr, #2147483648	; 0x80000000
 8000784:	429d      	cmp	r5, r3
 8000786:	bf08      	it	eq
 8000788:	4296      	cmpeq	r6, r2
 800078a:	f144 04fd 	adc.w	r4, r4, #253	; 0xfd
 800078e:	f504 7440 	add.w	r4, r4, #768	; 0x300
 8000792:	d202      	bcs.n	800079a <__aeabi_ddiv+0x6e>
 8000794:	085b      	lsrs	r3, r3, #1
 8000796:	ea4f 0232 	mov.w	r2, r2, rrx
 800079a:	1ab6      	subs	r6, r6, r2
 800079c:	eb65 0503 	sbc.w	r5, r5, r3
 80007a0:	085b      	lsrs	r3, r3, #1
 80007a2:	ea4f 0232 	mov.w	r2, r2, rrx
 80007a6:	f44f 1080 	mov.w	r0, #1048576	; 0x100000
 80007aa:	f44f 2c00 	mov.w	ip, #524288	; 0x80000
 80007ae:	ebb6 0e02 	subs.w	lr, r6, r2
 80007b2:	eb75 0e03 	sbcs.w	lr, r5, r3
 80007b6:	bf22      	ittt	cs
 80007b8:	1ab6      	subcs	r6, r6, r2
 80007ba:	4675      	movcs	r5, lr
 80007bc:	ea40 000c 	orrcs.w	r0, r0, ip
 80007c0:	085b      	lsrs	r3, r3, #1
 80007c2:	ea4f 0232 	mov.w	r2, r2, rrx
 80007c6:	ebb6 0e02 	subs.w	lr, r6, r2
 80007ca:	eb75 0e03 	sbcs.w	lr, r5, r3
 80007ce:	bf22      	ittt	cs
 80007d0:	1ab6      	subcs	r6, r6, r2
 80007d2:	4675      	movcs	r5, lr
 80007d4:	ea40 005c 	orrcs.w	r0, r0, ip, lsr #1
 80007d8:	085b      	lsrs	r3, r3, #1
 80007da:	ea4f 0232 	mov.w	r2, r2, rrx
 80007de:	ebb6 0e02 	subs.w	lr, r6, r2
 80007e2:	eb75 0e03 	sbcs.w	lr, r5, r3
 80007e6:	bf22      	ittt	cs
 80007e8:	1ab6      	subcs	r6, r6, r2
 80007ea:	4675      	movcs	r5, lr
 80007ec:	ea40 009c 	orrcs.w	r0, r0, ip, lsr #2
 80007f0:	085b      	lsrs	r3, r3, #1
 80007f2:	ea4f 0232 	mov.w	r2, r2, rrx
 80007f6:	ebb6 0e02 	subs.w	lr, r6, r2
 80007fa:	eb75 0e03 	sbcs.w	lr, r5, r3
 80007fe:	bf22      	ittt	cs
 8000800:	1ab6      	subcs	r6, r6, r2
 8000802:	4675      	movcs	r5, lr
 8000804:	ea40 00dc 	orrcs.w	r0, r0, ip, lsr #3
 8000808:	ea55 0e06 	orrs.w	lr, r5, r6
 800080c:	d018      	beq.n	8000840 <__aeabi_ddiv+0x114>
 800080e:	ea4f 1505 	mov.w	r5, r5, lsl #4
 8000812:	ea45 7516 	orr.w	r5, r5, r6, lsr #28
 8000816:	ea4f 1606 	mov.w	r6, r6, lsl #4
 800081a:	ea4f 03c3 	mov.w	r3, r3, lsl #3
 800081e:	ea43 7352 	orr.w	r3, r3, r2, lsr #29
 8000822:	ea4f 02c2 	mov.w	r2, r2, lsl #3
 8000826:	ea5f 1c1c 	movs.w	ip, ip, lsr #4
 800082a:	d1c0      	bne.n	80007ae <__aeabi_ddiv+0x82>
 800082c:	f411 1f80 	tst.w	r1, #1048576	; 0x100000
 8000830:	d10b      	bne.n	800084a <__aeabi_ddiv+0x11e>
 8000832:	ea41 0100 	orr.w	r1, r1, r0
 8000836:	f04f 0000 	mov.w	r0, #0
 800083a:	f04f 4c00 	mov.w	ip, #2147483648	; 0x80000000
 800083e:	e7b6      	b.n	80007ae <__aeabi_ddiv+0x82>
 8000840:	f411 1f80 	tst.w	r1, #1048576	; 0x100000
 8000844:	bf04      	itt	eq
 8000846:	4301      	orreq	r1, r0
 8000848:	2000      	moveq	r0, #0
 800084a:	f1b4 0cfd 	subs.w	ip, r4, #253	; 0xfd
 800084e:	bf88      	it	hi
 8000850:	f5bc 6fe0 	cmphi.w	ip, #1792	; 0x700
 8000854:	f63f aeaf 	bhi.w	80005b6 <__aeabi_dmul+0xde>
 8000858:	ebb5 0c03 	subs.w	ip, r5, r3
 800085c:	bf04      	itt	eq
 800085e:	ebb6 0c02 	subseq.w	ip, r6, r2
 8000862:	ea5f 0c50 	movseq.w	ip, r0, lsr #1
 8000866:	f150 0000 	adcs.w	r0, r0, #0
 800086a:	eb41 5104 	adc.w	r1, r1, r4, lsl #20
 800086e:	bd70      	pop	{r4, r5, r6, pc}
 8000870:	f00e 4e00 	and.w	lr, lr, #2147483648	; 0x80000000
 8000874:	ea4e 3111 	orr.w	r1, lr, r1, lsr #12
 8000878:	eb14 045c 	adds.w	r4, r4, ip, lsr #1
 800087c:	bfc2      	ittt	gt
 800087e:	ebd4 050c 	rsbsgt	r5, r4, ip
 8000882:	ea41 5104 	orrgt.w	r1, r1, r4, lsl #20
 8000886:	bd70      	popgt	{r4, r5, r6, pc}
 8000888:	f441 1180 	orr.w	r1, r1, #1048576	; 0x100000
 800088c:	f04f 0e00 	mov.w	lr, #0
 8000890:	3c01      	subs	r4, #1
 8000892:	e690      	b.n	80005b6 <__aeabi_dmul+0xde>
 8000894:	ea45 0e06 	orr.w	lr, r5, r6
 8000898:	e68d      	b.n	80005b6 <__aeabi_dmul+0xde>
 800089a:	ea0c 5513 	and.w	r5, ip, r3, lsr #20
 800089e:	ea94 0f0c 	teq	r4, ip
 80008a2:	bf08      	it	eq
 80008a4:	ea95 0f0c 	teqeq	r5, ip
 80008a8:	f43f af3b 	beq.w	8000722 <__aeabi_dmul+0x24a>
 80008ac:	ea94 0f0c 	teq	r4, ip
 80008b0:	d10a      	bne.n	80008c8 <__aeabi_ddiv+0x19c>
 80008b2:	ea50 3401 	orrs.w	r4, r0, r1, lsl #12
 80008b6:	f47f af34 	bne.w	8000722 <__aeabi_dmul+0x24a>
 80008ba:	ea95 0f0c 	teq	r5, ip
 80008be:	f47f af25 	bne.w	800070c <__aeabi_dmul+0x234>
 80008c2:	4610      	mov	r0, r2
 80008c4:	4619      	mov	r1, r3
 80008c6:	e72c      	b.n	8000722 <__aeabi_dmul+0x24a>
 80008c8:	ea95 0f0c 	teq	r5, ip
 80008cc:	d106      	bne.n	80008dc <__aeabi_ddiv+0x1b0>
 80008ce:	ea52 3503 	orrs.w	r5, r2, r3, lsl #12
 80008d2:	f43f aefd 	beq.w	80006d0 <__aeabi_dmul+0x1f8>
 80008d6:	4610      	mov	r0, r2
 80008d8:	4619      	mov	r1, r3
 80008da:	e722      	b.n	8000722 <__aeabi_dmul+0x24a>
 80008dc:	ea50 0641 	orrs.w	r6, r0, r1, lsl #1
 80008e0:	bf18      	it	ne
 80008e2:	ea52 0643 	orrsne.w	r6, r2, r3, lsl #1
 80008e6:	f47f aec5 	bne.w	8000674 <__aeabi_dmul+0x19c>
 80008ea:	ea50 0441 	orrs.w	r4, r0, r1, lsl #1
 80008ee:	f47f af0d 	bne.w	800070c <__aeabi_dmul+0x234>
 80008f2:	ea52 0543 	orrs.w	r5, r2, r3, lsl #1
 80008f6:	f47f aeeb 	bne.w	80006d0 <__aeabi_dmul+0x1f8>
 80008fa:	e712      	b.n	8000722 <__aeabi_dmul+0x24a>

080008fc <__gedf2>:
 80008fc:	f04f 3cff 	mov.w	ip, #4294967295
 8000900:	e006      	b.n	8000910 <__cmpdf2+0x4>
 8000902:	bf00      	nop

08000904 <__ledf2>:
 8000904:	f04f 0c01 	mov.w	ip, #1
 8000908:	e002      	b.n	8000910 <__cmpdf2+0x4>
 800090a:	bf00      	nop

0800090c <__cmpdf2>:
 800090c:	f04f 0c01 	mov.w	ip, #1
 8000910:	f84d cd04 	str.w	ip, [sp, #-4]!
 8000914:	ea4f 0c41 	mov.w	ip, r1, lsl #1
 8000918:	ea7f 5c6c 	mvns.w	ip, ip, asr #21
 800091c:	ea4f 0c43 	mov.w	ip, r3, lsl #1
 8000920:	bf18      	it	ne
 8000922:	ea7f 5c6c 	mvnsne.w	ip, ip, asr #21
 8000926:	d01b      	beq.n	8000960 <__cmpdf2+0x54>
 8000928:	b001      	add	sp, #4
 800092a:	ea50 0c41 	orrs.w	ip, r0, r1, lsl #1
 800092e:	bf0c      	ite	eq
 8000930:	ea52 0c43 	orrseq.w	ip, r2, r3, lsl #1
 8000934:	ea91 0f03 	teqne	r1, r3
 8000938:	bf02      	ittt	eq
 800093a:	ea90 0f02 	teqeq	r0, r2
 800093e:	2000      	moveq	r0, #0
 8000940:	4770      	bxeq	lr
 8000942:	f110 0f00 	cmn.w	r0, #0
 8000946:	ea91 0f03 	teq	r1, r3
 800094a:	bf58      	it	pl
 800094c:	4299      	cmppl	r1, r3
 800094e:	bf08      	it	eq
 8000950:	4290      	cmpeq	r0, r2
 8000952:	bf2c      	ite	cs
 8000954:	17d8      	asrcs	r0, r3, #31
 8000956:	ea6f 70e3 	mvncc.w	r0, r3, asr #31
 800095a:	f040 0001 	orr.w	r0, r0, #1
 800095e:	4770      	bx	lr
 8000960:	ea4f 0c41 	mov.w	ip, r1, lsl #1
 8000964:	ea7f 5c6c 	mvns.w	ip, ip, asr #21
 8000968:	d102      	bne.n	8000970 <__cmpdf2+0x64>
 800096a:	ea50 3c01 	orrs.w	ip, r0, r1, lsl #12
 800096e:	d107      	bne.n	8000980 <__cmpdf2+0x74>
 8000970:	ea4f 0c43 	mov.w	ip, r3, lsl #1
 8000974:	ea7f 5c6c 	mvns.w	ip, ip, asr #21
 8000978:	d1d6      	bne.n	8000928 <__cmpdf2+0x1c>
 800097a:	ea52 3c03 	orrs.w	ip, r2, r3, lsl #12
 800097e:	d0d3      	beq.n	8000928 <__cmpdf2+0x1c>
 8000980:	f85d 0b04 	ldr.w	r0, [sp], #4
 8000984:	4770      	bx	lr
 8000986:	bf00      	nop

08000988 <__aeabi_cdrcmple>:
 8000988:	4684      	mov	ip, r0
 800098a:	4610      	mov	r0, r2
 800098c:	4662      	mov	r2, ip
 800098e:	468c      	mov	ip, r1
 8000990:	4619      	mov	r1, r3
 8000992:	4663      	mov	r3, ip
 8000994:	e000      	b.n	8000998 <__aeabi_cdcmpeq>
 8000996:	bf00      	nop

08000998 <__aeabi_cdcmpeq>:
 8000998:	b501      	push	{r0, lr}
 800099a:	f7ff ffb7 	bl	800090c <__cmpdf2>
 800099e:	2800      	cmp	r0, #0
 80009a0:	bf48      	it	mi
 80009a2:	f110 0f00 	cmnmi.w	r0, #0
 80009a6:	bd01      	pop	{r0, pc}

080009a8 <__aeabi_dcmpeq>:
 80009a8:	f84d ed08 	str.w	lr, [sp, #-8]!
 80009ac:	f7ff fff4 	bl	8000998 <__aeabi_cdcmpeq>
 80009b0:	bf0c      	ite	eq
 80009b2:	2001      	moveq	r0, #1
 80009b4:	2000      	movne	r0, #0
 80009b6:	f85d fb08 	ldr.w	pc, [sp], #8
 80009ba:	bf00      	nop

080009bc <__aeabi_dcmplt>:
 80009bc:	f84d ed08 	str.w	lr, [sp, #-8]!
 80009c0:	f7ff ffea 	bl	8000998 <__aeabi_cdcmpeq>
 80009c4:	bf34      	ite	cc
 80009c6:	2001      	movcc	r0, #1
 80009c8:	2000      	movcs	r0, #0
 80009ca:	f85d fb08 	ldr.w	pc, [sp], #8
 80009ce:	bf00      	nop

080009d0 <__aeabi_dcmple>:
 80009d0:	f84d ed08 	str.w	lr, [sp, #-8]!
 80009d4:	f7ff ffe0 	bl	8000998 <__aeabi_cdcmpeq>
 80009d8:	bf94      	ite	ls
 80009da:	2001      	movls	r0, #1
 80009dc:	2000      	movhi	r0, #0
 80009de:	f85d fb08 	ldr.w	pc, [sp], #8
 80009e2:	bf00      	nop

080009e4 <__aeabi_dcmpge>:
 80009e4:	f84d ed08 	str.w	lr, [sp, #-8]!
 80009e8:	f7ff ffce 	bl	8000988 <__aeabi_cdrcmple>
 80009ec:	bf94      	ite	ls
 80009ee:	2001      	movls	r0, #1
 80009f0:	2000      	movhi	r0, #0
 80009f2:	f85d fb08 	ldr.w	pc, [sp], #8
 80009f6:	bf00      	nop

080009f8 <__aeabi_dcmpgt>:
 80009f8:	f84d ed08 	str.w	lr, [sp, #-8]!
 80009fc:	f7ff ffc4 	bl	8000988 <__aeabi_cdrcmple>
 8000a00:	bf34      	ite	cc
 8000a02:	2001      	movcc	r0, #1
 8000a04:	2000      	movcs	r0, #0
 8000a06:	f85d fb08 	ldr.w	pc, [sp], #8
 8000a0a:	bf00      	nop

08000a0c <__aeabi_dcmpun>:
 8000a0c:	ea4f 0c41 	mov.w	ip, r1, lsl #1
 8000a10:	ea7f 5c6c 	mvns.w	ip, ip, asr #21
 8000a14:	d102      	bne.n	8000a1c <__aeabi_dcmpun+0x10>
 8000a16:	ea50 3c01 	orrs.w	ip, r0, r1, lsl #12
 8000a1a:	d10a      	bne.n	8000a32 <__aeabi_dcmpun+0x26>
 8000a1c:	ea4f 0c43 	mov.w	ip, r3, lsl #1
 8000a20:	ea7f 5c6c 	mvns.w	ip, ip, asr #21
 8000a24:	d102      	bne.n	8000a2c <__aeabi_dcmpun+0x20>
 8000a26:	ea52 3c03 	orrs.w	ip, r2, r3, lsl #12
 8000a2a:	d102      	bne.n	8000a32 <__aeabi_dcmpun+0x26>
 8000a2c:	f04f 0000 	mov.w	r0, #0
 8000a30:	4770      	bx	lr
 8000a32:	f04f 0001 	mov.w	r0, #1
 8000a36:	4770      	bx	lr

08000a38 <__aeabi_d2iz>:
 8000a38:	ea4f 0241 	mov.w	r2, r1, lsl #1
 8000a3c:	f512 1200 	adds.w	r2, r2, #2097152	; 0x200000
 8000a40:	d215      	bcs.n	8000a6e <__aeabi_d2iz+0x36>
 8000a42:	d511      	bpl.n	8000a68 <__aeabi_d2iz+0x30>
 8000a44:	f46f 7378 	mvn.w	r3, #992	; 0x3e0
 8000a48:	ebb3 5262 	subs.w	r2, r3, r2, asr #21
 8000a4c:	d912      	bls.n	8000a74 <__aeabi_d2iz+0x3c>
 8000a4e:	ea4f 23c1 	mov.w	r3, r1, lsl #11
 8000a52:	f043 4300 	orr.w	r3, r3, #2147483648	; 0x80000000
 8000a56:	ea43 5350 	orr.w	r3, r3, r0, lsr #21
 8000a5a:	f011 4f00 	tst.w	r1, #2147483648	; 0x80000000
 8000a5e:	fa23 f002 	lsr.w	r0, r3, r2
 8000a62:	bf18      	it	ne
 8000a64:	4240      	negne	r0, r0
 8000a66:	4770      	bx	lr
 8000a68:	f04f 0000 	mov.w	r0, #0
 8000a6c:	4770      	bx	lr
 8000a6e:	ea50 3001 	orrs.w	r0, r0, r1, lsl #12
 8000a72:	d105      	bne.n	8000a80 <__aeabi_d2iz+0x48>
 8000a74:	f011 4000 	ands.w	r0, r1, #2147483648	; 0x80000000
 8000a78:	bf08      	it	eq
 8000a7a:	f06f 4000 	mvneq.w	r0, #2147483648	; 0x80000000
 8000a7e:	4770      	bx	lr
 8000a80:	f04f 0000 	mov.w	r0, #0
 8000a84:	4770      	bx	lr
 8000a86:	bf00      	nop

08000a88 <__aeabi_frsub>:
 8000a88:	f080 4000 	eor.w	r0, r0, #2147483648	; 0x80000000
 8000a8c:	e002      	b.n	8000a94 <__addsf3>
 8000a8e:	bf00      	nop

08000a90 <__aeabi_fsub>:
 8000a90:	f081 4100 	eor.w	r1, r1, #2147483648	; 0x80000000

08000a94 <__addsf3>:
 8000a94:	0042      	lsls	r2, r0, #1
 8000a96:	bf1f      	itttt	ne
 8000a98:	ea5f 0341 	movsne.w	r3, r1, lsl #1
 8000a9c:	ea92 0f03 	teqne	r2, r3
 8000aa0:	ea7f 6c22 	mvnsne.w	ip, r2, asr #24
 8000aa4:	ea7f 6c23 	mvnsne.w	ip, r3, asr #24
 8000aa8:	d06a      	beq.n	8000b80 <__addsf3+0xec>
 8000aaa:	ea4f 6212 	mov.w	r2, r2, lsr #24
 8000aae:	ebd2 6313 	rsbs	r3, r2, r3, lsr #24
 8000ab2:	bfc1      	itttt	gt
 8000ab4:	18d2      	addgt	r2, r2, r3
 8000ab6:	4041      	eorgt	r1, r0
 8000ab8:	4048      	eorgt	r0, r1
 8000aba:	4041      	eorgt	r1, r0
 8000abc:	bfb8      	it	lt
 8000abe:	425b      	neglt	r3, r3
 8000ac0:	2b19      	cmp	r3, #25
 8000ac2:	bf88      	it	hi
 8000ac4:	4770      	bxhi	lr
 8000ac6:	f010 4f00 	tst.w	r0, #2147483648	; 0x80000000
 8000aca:	f440 0000 	orr.w	r0, r0, #8388608	; 0x800000
 8000ace:	f020 407f 	bic.w	r0, r0, #4278190080	; 0xff000000
 8000ad2:	bf18      	it	ne
 8000ad4:	4240      	negne	r0, r0
 8000ad6:	f011 4f00 	tst.w	r1, #2147483648	; 0x80000000
 8000ada:	f441 0100 	orr.w	r1, r1, #8388608	; 0x800000
 8000ade:	f021 417f 	bic.w	r1, r1, #4278190080	; 0xff000000
 8000ae2:	bf18      	it	ne
 8000ae4:	4249      	negne	r1, r1
 8000ae6:	ea92 0f03 	teq	r2, r3
 8000aea:	d03f      	beq.n	8000b6c <__addsf3+0xd8>
 8000aec:	f1a2 0201 	sub.w	r2, r2, #1
 8000af0:	fa41 fc03 	asr.w	ip, r1, r3
 8000af4:	eb10 000c 	adds.w	r0, r0, ip
 8000af8:	f1c3 0320 	rsb	r3, r3, #32
 8000afc:	fa01 f103 	lsl.w	r1, r1, r3
 8000b00:	f000 4300 	and.w	r3, r0, #2147483648	; 0x80000000
 8000b04:	d502      	bpl.n	8000b0c <__addsf3+0x78>
 8000b06:	4249      	negs	r1, r1
 8000b08:	eb60 0040 	sbc.w	r0, r0, r0, lsl #1
 8000b0c:	f5b0 0f00 	cmp.w	r0, #8388608	; 0x800000
 8000b10:	d313      	bcc.n	8000b3a <__addsf3+0xa6>
 8000b12:	f1b0 7f80 	cmp.w	r0, #16777216	; 0x1000000
 8000b16:	d306      	bcc.n	8000b26 <__addsf3+0x92>
 8000b18:	0840      	lsrs	r0, r0, #1
 8000b1a:	ea4f 0131 	mov.w	r1, r1, rrx
 8000b1e:	f102 0201 	add.w	r2, r2, #1
 8000b22:	2afe      	cmp	r2, #254	; 0xfe
 8000b24:	d251      	bcs.n	8000bca <__addsf3+0x136>
 8000b26:	f1b1 4f00 	cmp.w	r1, #2147483648	; 0x80000000
 8000b2a:	eb40 50c2 	adc.w	r0, r0, r2, lsl #23
 8000b2e:	bf08      	it	eq
 8000b30:	f020 0001 	biceq.w	r0, r0, #1
 8000b34:	ea40 0003 	orr.w	r0, r0, r3
 8000b38:	4770      	bx	lr
 8000b3a:	0049      	lsls	r1, r1, #1
 8000b3c:	eb40 0000 	adc.w	r0, r0, r0
 8000b40:	3a01      	subs	r2, #1
 8000b42:	bf28      	it	cs
 8000b44:	f5b0 0f00 	cmpcs.w	r0, #8388608	; 0x800000
 8000b48:	d2ed      	bcs.n	8000b26 <__addsf3+0x92>
 8000b4a:	fab0 fc80 	clz	ip, r0
 8000b4e:	f1ac 0c08 	sub.w	ip, ip, #8
 8000b52:	ebb2 020c 	subs.w	r2, r2, ip
 8000b56:	fa00 f00c 	lsl.w	r0, r0, ip
 8000b5a:	bfaa      	itet	ge
 8000b5c:	eb00 50c2 	addge.w	r0, r0, r2, lsl #23
 8000b60:	4252      	neglt	r2, r2
 8000b62:	4318      	orrge	r0, r3
 8000b64:	bfbc      	itt	lt
 8000b66:	40d0      	lsrlt	r0, r2
 8000b68:	4318      	orrlt	r0, r3
 8000b6a:	4770      	bx	lr
 8000b6c:	f092 0f00 	teq	r2, #0
 8000b70:	f481 0100 	eor.w	r1, r1, #8388608	; 0x800000
 8000b74:	bf06      	itte	eq
 8000b76:	f480 0000 	eoreq.w	r0, r0, #8388608	; 0x800000
 8000b7a:	3201      	addeq	r2, #1
 8000b7c:	3b01      	subne	r3, #1
 8000b7e:	e7b5      	b.n	8000aec <__addsf3+0x58>
 8000b80:	ea4f 0341 	mov.w	r3, r1, lsl #1
 8000b84:	ea7f 6c22 	mvns.w	ip, r2, asr #24
 8000b88:	bf18      	it	ne
 8000b8a:	ea7f 6c23 	mvnsne.w	ip, r3, asr #24
 8000b8e:	d021      	beq.n	8000bd4 <__addsf3+0x140>
 8000b90:	ea92 0f03 	teq	r2, r3
 8000b94:	d004      	beq.n	8000ba0 <__addsf3+0x10c>
 8000b96:	f092 0f00 	teq	r2, #0
 8000b9a:	bf08      	it	eq
 8000b9c:	4608      	moveq	r0, r1
 8000b9e:	4770      	bx	lr
 8000ba0:	ea90 0f01 	teq	r0, r1
 8000ba4:	bf1c      	itt	ne
 8000ba6:	2000      	movne	r0, #0
 8000ba8:	4770      	bxne	lr
 8000baa:	f012 4f7f 	tst.w	r2, #4278190080	; 0xff000000
 8000bae:	d104      	bne.n	8000bba <__addsf3+0x126>
 8000bb0:	0040      	lsls	r0, r0, #1
 8000bb2:	bf28      	it	cs
 8000bb4:	f040 4000 	orrcs.w	r0, r0, #2147483648	; 0x80000000
 8000bb8:	4770      	bx	lr
 8000bba:	f112 7200 	adds.w	r2, r2, #33554432	; 0x2000000
 8000bbe:	bf3c      	itt	cc
 8000bc0:	f500 0000 	addcc.w	r0, r0, #8388608	; 0x800000
 8000bc4:	4770      	bxcc	lr
 8000bc6:	f000 4300 	and.w	r3, r0, #2147483648	; 0x80000000
 8000bca:	f043 40fe 	orr.w	r0, r3, #2130706432	; 0x7f000000
 8000bce:	f440 0000 	orr.w	r0, r0, #8388608	; 0x800000
 8000bd2:	4770      	bx	lr
 8000bd4:	ea7f 6222 	mvns.w	r2, r2, asr #24
 8000bd8:	bf16      	itet	ne
 8000bda:	4608      	movne	r0, r1
 8000bdc:	ea7f 6323 	mvnseq.w	r3, r3, asr #24
 8000be0:	4601      	movne	r1, r0
 8000be2:	0242      	lsls	r2, r0, #9
 8000be4:	bf06      	itte	eq
 8000be6:	ea5f 2341 	movseq.w	r3, r1, lsl #9
 8000bea:	ea90 0f01 	teqeq	r0, r1
 8000bee:	f440 0080 	orrne.w	r0, r0, #4194304	; 0x400000
 8000bf2:	4770      	bx	lr

08000bf4 <__aeabi_ui2f>:
 8000bf4:	f04f 0300 	mov.w	r3, #0
 8000bf8:	e004      	b.n	8000c04 <__aeabi_i2f+0x8>
 8000bfa:	bf00      	nop

08000bfc <__aeabi_i2f>:
 8000bfc:	f010 4300 	ands.w	r3, r0, #2147483648	; 0x80000000
 8000c00:	bf48      	it	mi
 8000c02:	4240      	negmi	r0, r0
 8000c04:	ea5f 0c00 	movs.w	ip, r0
 8000c08:	bf08      	it	eq
 8000c0a:	4770      	bxeq	lr
 8000c0c:	f043 4396 	orr.w	r3, r3, #1258291200	; 0x4b000000
 8000c10:	4601      	mov	r1, r0
 8000c12:	f04f 0000 	mov.w	r0, #0
 8000c16:	e01c      	b.n	8000c52 <__aeabi_l2f+0x2a>

08000c18 <__aeabi_ul2f>:
 8000c18:	ea50 0201 	orrs.w	r2, r0, r1
 8000c1c:	bf08      	it	eq
 8000c1e:	4770      	bxeq	lr
 8000c20:	f04f 0300 	mov.w	r3, #0
 8000c24:	e00a      	b.n	8000c3c <__aeabi_l2f+0x14>
 8000c26:	bf00      	nop

08000c28 <__aeabi_l2f>:
 8000c28:	ea50 0201 	orrs.w	r2, r0, r1
 8000c2c:	bf08      	it	eq
 8000c2e:	4770      	bxeq	lr
 8000c30:	f011 4300 	ands.w	r3, r1, #2147483648	; 0x80000000
 8000c34:	d502      	bpl.n	8000c3c <__aeabi_l2f+0x14>
 8000c36:	4240      	negs	r0, r0
 8000c38:	eb61 0141 	sbc.w	r1, r1, r1, lsl #1
 8000c3c:	ea5f 0c01 	movs.w	ip, r1
 8000c40:	bf02      	ittt	eq
 8000c42:	4684      	moveq	ip, r0
 8000c44:	4601      	moveq	r1, r0
 8000c46:	2000      	moveq	r0, #0
 8000c48:	f043 43b6 	orr.w	r3, r3, #1526726656	; 0x5b000000
 8000c4c:	bf08      	it	eq
 8000c4e:	f1a3 5380 	subeq.w	r3, r3, #268435456	; 0x10000000
 8000c52:	f5a3 0300 	sub.w	r3, r3, #8388608	; 0x800000
 8000c56:	fabc f28c 	clz	r2, ip
 8000c5a:	3a08      	subs	r2, #8
 8000c5c:	eba3 53c2 	sub.w	r3, r3, r2, lsl #23
 8000c60:	db10      	blt.n	8000c84 <__aeabi_l2f+0x5c>
 8000c62:	fa01 fc02 	lsl.w	ip, r1, r2
 8000c66:	4463      	add	r3, ip
 8000c68:	fa00 fc02 	lsl.w	ip, r0, r2
 8000c6c:	f1c2 0220 	rsb	r2, r2, #32
 8000c70:	f1bc 4f00 	cmp.w	ip, #2147483648	; 0x80000000
 8000c74:	fa20 f202 	lsr.w	r2, r0, r2
 8000c78:	eb43 0002 	adc.w	r0, r3, r2
 8000c7c:	bf08      	it	eq
 8000c7e:	f020 0001 	biceq.w	r0, r0, #1
 8000c82:	4770      	bx	lr
 8000c84:	f102 0220 	add.w	r2, r2, #32
 8000c88:	fa01 fc02 	lsl.w	ip, r1, r2
 8000c8c:	f1c2 0220 	rsb	r2, r2, #32
 8000c90:	ea50 004c 	orrs.w	r0, r0, ip, lsl #1
 8000c94:	fa21 f202 	lsr.w	r2, r1, r2
 8000c98:	eb43 0002 	adc.w	r0, r3, r2
 8000c9c:	bf08      	it	eq
 8000c9e:	ea20 70dc 	biceq.w	r0, r0, ip, lsr #31
 8000ca2:	4770      	bx	lr

08000ca4 <__aeabi_fmul>:
 8000ca4:	f04f 0cff 	mov.w	ip, #255	; 0xff
 8000ca8:	ea1c 52d0 	ands.w	r2, ip, r0, lsr #23
 8000cac:	bf1e      	ittt	ne
 8000cae:	ea1c 53d1 	andsne.w	r3, ip, r1, lsr #23
 8000cb2:	ea92 0f0c 	teqne	r2, ip
 8000cb6:	ea93 0f0c 	teqne	r3, ip
 8000cba:	d06f      	beq.n	8000d9c <__aeabi_fmul+0xf8>
 8000cbc:	441a      	add	r2, r3
 8000cbe:	ea80 0c01 	eor.w	ip, r0, r1
 8000cc2:	0240      	lsls	r0, r0, #9
 8000cc4:	bf18      	it	ne
 8000cc6:	ea5f 2141 	movsne.w	r1, r1, lsl #9
 8000cca:	d01e      	beq.n	8000d0a <__aeabi_fmul+0x66>
 8000ccc:	f04f 6300 	mov.w	r3, #134217728	; 0x8000000
 8000cd0:	ea43 1050 	orr.w	r0, r3, r0, lsr #5
 8000cd4:	ea43 1151 	orr.w	r1, r3, r1, lsr #5
 8000cd8:	fba0 3101 	umull	r3, r1, r0, r1
 8000cdc:	f00c 4000 	and.w	r0, ip, #2147483648	; 0x80000000
 8000ce0:	f5b1 0f00 	cmp.w	r1, #8388608	; 0x800000
 8000ce4:	bf3e      	ittt	cc
 8000ce6:	0049      	lslcc	r1, r1, #1
 8000ce8:	ea41 71d3 	orrcc.w	r1, r1, r3, lsr #31
 8000cec:	005b      	lslcc	r3, r3, #1
 8000cee:	ea40 0001 	orr.w	r0, r0, r1
 8000cf2:	f162 027f 	sbc.w	r2, r2, #127	; 0x7f
 8000cf6:	2afd      	cmp	r2, #253	; 0xfd
 8000cf8:	d81d      	bhi.n	8000d36 <__aeabi_fmul+0x92>
 8000cfa:	f1b3 4f00 	cmp.w	r3, #2147483648	; 0x80000000
 8000cfe:	eb40 50c2 	adc.w	r0, r0, r2, lsl #23
 8000d02:	bf08      	it	eq
 8000d04:	f020 0001 	biceq.w	r0, r0, #1
 8000d08:	4770      	bx	lr
 8000d0a:	f090 0f00 	teq	r0, #0
 8000d0e:	f00c 4c00 	and.w	ip, ip, #2147483648	; 0x80000000
 8000d12:	bf08      	it	eq
 8000d14:	0249      	lsleq	r1, r1, #9
 8000d16:	ea4c 2050 	orr.w	r0, ip, r0, lsr #9
 8000d1a:	ea40 2051 	orr.w	r0, r0, r1, lsr #9
 8000d1e:	3a7f      	subs	r2, #127	; 0x7f
 8000d20:	bfc2      	ittt	gt
 8000d22:	f1d2 03ff 	rsbsgt	r3, r2, #255	; 0xff
 8000d26:	ea40 50c2 	orrgt.w	r0, r0, r2, lsl #23
 8000d2a:	4770      	bxgt	lr
 8000d2c:	f440 0000 	orr.w	r0, r0, #8388608	; 0x800000
 8000d30:	f04f 0300 	mov.w	r3, #0
 8000d34:	3a01      	subs	r2, #1
 8000d36:	dc5d      	bgt.n	8000df4 <__aeabi_fmul+0x150>
 8000d38:	f112 0f19 	cmn.w	r2, #25
 8000d3c:	bfdc      	itt	le
 8000d3e:	f000 4000 	andle.w	r0, r0, #2147483648	; 0x80000000
 8000d42:	4770      	bxle	lr
 8000d44:	f1c2 0200 	rsb	r2, r2, #0
 8000d48:	0041      	lsls	r1, r0, #1
 8000d4a:	fa21 f102 	lsr.w	r1, r1, r2
 8000d4e:	f1c2 0220 	rsb	r2, r2, #32
 8000d52:	fa00 fc02 	lsl.w	ip, r0, r2
 8000d56:	ea5f 0031 	movs.w	r0, r1, rrx
 8000d5a:	f140 0000 	adc.w	r0, r0, #0
 8000d5e:	ea53 034c 	orrs.w	r3, r3, ip, lsl #1
 8000d62:	bf08      	it	eq
 8000d64:	ea20 70dc 	biceq.w	r0, r0, ip, lsr #31
 8000d68:	4770      	bx	lr
 8000d6a:	f092 0f00 	teq	r2, #0
 8000d6e:	f000 4c00 	and.w	ip, r0, #2147483648	; 0x80000000
 8000d72:	bf02      	ittt	eq
 8000d74:	0040      	lsleq	r0, r0, #1
 8000d76:	f410 0f00 	tsteq.w	r0, #8388608	; 0x800000
 8000d7a:	3a01      	subeq	r2, #1
 8000d7c:	d0f9      	beq.n	8000d72 <__aeabi_fmul+0xce>
 8000d7e:	ea40 000c 	orr.w	r0, r0, ip
 8000d82:	f093 0f00 	teq	r3, #0
 8000d86:	f001 4c00 	and.w	ip, r1, #2147483648	; 0x80000000
 8000d8a:	bf02      	ittt	eq
 8000d8c:	0049      	lsleq	r1, r1, #1
 8000d8e:	f411 0f00 	tsteq.w	r1, #8388608	; 0x800000
 8000d92:	3b01      	subeq	r3, #1
 8000d94:	d0f9      	beq.n	8000d8a <__aeabi_fmul+0xe6>
 8000d96:	ea41 010c 	orr.w	r1, r1, ip
 8000d9a:	e78f      	b.n	8000cbc <__aeabi_fmul+0x18>
 8000d9c:	ea0c 53d1 	and.w	r3, ip, r1, lsr #23
 8000da0:	ea92 0f0c 	teq	r2, ip
 8000da4:	bf18      	it	ne
 8000da6:	ea93 0f0c 	teqne	r3, ip
 8000daa:	d00a      	beq.n	8000dc2 <__aeabi_fmul+0x11e>
 8000dac:	f030 4c00 	bics.w	ip, r0, #2147483648	; 0x80000000
 8000db0:	bf18      	it	ne
 8000db2:	f031 4c00 	bicsne.w	ip, r1, #2147483648	; 0x80000000
 8000db6:	d1d8      	bne.n	8000d6a <__aeabi_fmul+0xc6>
 8000db8:	ea80 0001 	eor.w	r0, r0, r1
 8000dbc:	f000 4000 	and.w	r0, r0, #2147483648	; 0x80000000
 8000dc0:	4770      	bx	lr
 8000dc2:	f090 0f00 	teq	r0, #0
 8000dc6:	bf17      	itett	ne
 8000dc8:	f090 4f00 	teqne	r0, #2147483648	; 0x80000000
 8000dcc:	4608      	moveq	r0, r1
 8000dce:	f091 0f00 	teqne	r1, #0
 8000dd2:	f091 4f00 	teqne	r1, #2147483648	; 0x80000000
 8000dd6:	d014      	beq.n	8000e02 <__aeabi_fmul+0x15e>
 8000dd8:	ea92 0f0c 	teq	r2, ip
 8000ddc:	d101      	bne.n	8000de2 <__aeabi_fmul+0x13e>
 8000dde:	0242      	lsls	r2, r0, #9
 8000de0:	d10f      	bne.n	8000e02 <__aeabi_fmul+0x15e>
 8000de2:	ea93 0f0c 	teq	r3, ip
 8000de6:	d103      	bne.n	8000df0 <__aeabi_fmul+0x14c>
 8000de8:	024b      	lsls	r3, r1, #9
 8000dea:	bf18      	it	ne
 8000dec:	4608      	movne	r0, r1
 8000dee:	d108      	bne.n	8000e02 <__aeabi_fmul+0x15e>
 8000df0:	ea80 0001 	eor.w	r0, r0, r1
 8000df4:	f000 4000 	and.w	r0, r0, #2147483648	; 0x80000000
 8000df8:	f040 40fe 	orr.w	r0, r0, #2130706432	; 0x7f000000
 8000dfc:	f440 0000 	orr.w	r0, r0, #8388608	; 0x800000
 8000e00:	4770      	bx	lr
 8000e02:	f040 40fe 	orr.w	r0, r0, #2130706432	; 0x7f000000
 8000e06:	f440 0040 	orr.w	r0, r0, #12582912	; 0xc00000
 8000e0a:	4770      	bx	lr

08000e0c <__aeabi_fdiv>:
 8000e0c:	f04f 0cff 	mov.w	ip, #255	; 0xff
 8000e10:	ea1c 52d0 	ands.w	r2, ip, r0, lsr #23
 8000e14:	bf1e      	ittt	ne
 8000e16:	ea1c 53d1 	andsne.w	r3, ip, r1, lsr #23
 8000e1a:	ea92 0f0c 	teqne	r2, ip
 8000e1e:	ea93 0f0c 	teqne	r3, ip
 8000e22:	d069      	beq.n	8000ef8 <__aeabi_fdiv+0xec>
 8000e24:	eba2 0203 	sub.w	r2, r2, r3
 8000e28:	ea80 0c01 	eor.w	ip, r0, r1
 8000e2c:	0249      	lsls	r1, r1, #9
 8000e2e:	ea4f 2040 	mov.w	r0, r0, lsl #9
 8000e32:	d037      	beq.n	8000ea4 <__aeabi_fdiv+0x98>
 8000e34:	f04f 5380 	mov.w	r3, #268435456	; 0x10000000
 8000e38:	ea43 1111 	orr.w	r1, r3, r1, lsr #4
 8000e3c:	ea43 1310 	orr.w	r3, r3, r0, lsr #4
 8000e40:	f00c 4000 	and.w	r0, ip, #2147483648	; 0x80000000
 8000e44:	428b      	cmp	r3, r1
 8000e46:	bf38      	it	cc
 8000e48:	005b      	lslcc	r3, r3, #1
 8000e4a:	f142 027d 	adc.w	r2, r2, #125	; 0x7d
 8000e4e:	f44f 0c00 	mov.w	ip, #8388608	; 0x800000
 8000e52:	428b      	cmp	r3, r1
 8000e54:	bf24      	itt	cs
 8000e56:	1a5b      	subcs	r3, r3, r1
 8000e58:	ea40 000c 	orrcs.w	r0, r0, ip
 8000e5c:	ebb3 0f51 	cmp.w	r3, r1, lsr #1
 8000e60:	bf24      	itt	cs
 8000e62:	eba3 0351 	subcs.w	r3, r3, r1, lsr #1
 8000e66:	ea40 005c 	orrcs.w	r0, r0, ip, lsr #1
 8000e6a:	ebb3 0f91 	cmp.w	r3, r1, lsr #2
 8000e6e:	bf24      	itt	cs
 8000e70:	eba3 0391 	subcs.w	r3, r3, r1, lsr #2
 8000e74:	ea40 009c 	orrcs.w	r0, r0, ip, lsr #2
 8000e78:	ebb3 0fd1 	cmp.w	r3, r1, lsr #3
 8000e7c:	bf24      	itt	cs
 8000e7e:	eba3 03d1 	subcs.w	r3, r3, r1, lsr #3
 8000e82:	ea40 00dc 	orrcs.w	r0, r0, ip, lsr #3
 8000e86:	011b      	lsls	r3, r3, #4
 8000e88:	bf18      	it	ne
 8000e8a:	ea5f 1c1c 	movsne.w	ip, ip, lsr #4
 8000e8e:	d1e0      	bne.n	8000e52 <__aeabi_fdiv+0x46>
 8000e90:	2afd      	cmp	r2, #253	; 0xfd
 8000e92:	f63f af50 	bhi.w	8000d36 <__aeabi_fmul+0x92>
 8000e96:	428b      	cmp	r3, r1
 8000e98:	eb40 50c2 	adc.w	r0, r0, r2, lsl #23
 8000e9c:	bf08      	it	eq
 8000e9e:	f020 0001 	biceq.w	r0, r0, #1
 8000ea2:	4770      	bx	lr
 8000ea4:	f00c 4c00 	and.w	ip, ip, #2147483648	; 0x80000000
 8000ea8:	ea4c 2050 	orr.w	r0, ip, r0, lsr #9
 8000eac:	327f      	adds	r2, #127	; 0x7f
 8000eae:	bfc2      	ittt	gt
 8000eb0:	f1d2 03ff 	rsbsgt	r3, r2, #255	; 0xff
 8000eb4:	ea40 50c2 	orrgt.w	r0, r0, r2, lsl #23
 8000eb8:	4770      	bxgt	lr
 8000eba:	f440 0000 	orr.w	r0, r0, #8388608	; 0x800000
 8000ebe:	f04f 0300 	mov.w	r3, #0
 8000ec2:	3a01      	subs	r2, #1
 8000ec4:	e737      	b.n	8000d36 <__aeabi_fmul+0x92>
 8000ec6:	f092 0f00 	teq	r2, #0
 8000eca:	f000 4c00 	and.w	ip, r0, #2147483648	; 0x80000000
 8000ece:	bf02      	ittt	eq
 8000ed0:	0040      	lsleq	r0, r0, #1
 8000ed2:	f410 0f00 	tsteq.w	r0, #8388608	; 0x800000
 8000ed6:	3a01      	subeq	r2, #1
 8000ed8:	d0f9      	beq.n	8000ece <__aeabi_fdiv+0xc2>
 8000eda:	ea40 000c 	orr.w	r0, r0, ip
 8000ede:	f093 0f00 	teq	r3, #0
 8000ee2:	f001 4c00 	and.w	ip, r1, #2147483648	; 0x80000000
 8000ee6:	bf02      	ittt	eq
 8000ee8:	0049      	lsleq	r1, r1, #1
 8000eea:	f411 0f00 	tsteq.w	r1, #8388608	; 0x800000
 8000eee:	3b01      	subeq	r3, #1
 8000ef0:	d0f9      	beq.n	8000ee6 <__aeabi_fdiv+0xda>
 8000ef2:	ea41 010c 	orr.w	r1, r1, ip
 8000ef6:	e795      	b.n	8000e24 <__aeabi_fdiv+0x18>
 8000ef8:	ea0c 53d1 	and.w	r3, ip, r1, lsr #23
 8000efc:	ea92 0f0c 	teq	r2, ip
 8000f00:	d108      	bne.n	8000f14 <__aeabi_fdiv+0x108>
 8000f02:	0242      	lsls	r2, r0, #9
 8000f04:	f47f af7d 	bne.w	8000e02 <__aeabi_fmul+0x15e>
 8000f08:	ea93 0f0c 	teq	r3, ip
 8000f0c:	f47f af70 	bne.w	8000df0 <__aeabi_fmul+0x14c>
 8000f10:	4608      	mov	r0, r1
 8000f12:	e776      	b.n	8000e02 <__aeabi_fmul+0x15e>
 8000f14:	ea93 0f0c 	teq	r3, ip
 8000f18:	d104      	bne.n	8000f24 <__aeabi_fdiv+0x118>
 8000f1a:	024b      	lsls	r3, r1, #9
 8000f1c:	f43f af4c 	beq.w	8000db8 <__aeabi_fmul+0x114>
 8000f20:	4608      	mov	r0, r1
 8000f22:	e76e      	b.n	8000e02 <__aeabi_fmul+0x15e>
 8000f24:	f030 4c00 	bics.w	ip, r0, #2147483648	; 0x80000000
 8000f28:	bf18      	it	ne
 8000f2a:	f031 4c00 	bicsne.w	ip, r1, #2147483648	; 0x80000000
 8000f2e:	d1ca      	bne.n	8000ec6 <__aeabi_fdiv+0xba>
 8000f30:	f030 4200 	bics.w	r2, r0, #2147483648	; 0x80000000
 8000f34:	f47f af5c 	bne.w	8000df0 <__aeabi_fmul+0x14c>
 8000f38:	f031 4300 	bics.w	r3, r1, #2147483648	; 0x80000000
 8000f3c:	f47f af3c 	bne.w	8000db8 <__aeabi_fmul+0x114>
 8000f40:	e75f      	b.n	8000e02 <__aeabi_fmul+0x15e>
 8000f42:	bf00      	nop

08000f44 <__gesf2>:
 8000f44:	f04f 3cff 	mov.w	ip, #4294967295
 8000f48:	e006      	b.n	8000f58 <__cmpsf2+0x4>
 8000f4a:	bf00      	nop

08000f4c <__lesf2>:
 8000f4c:	f04f 0c01 	mov.w	ip, #1
 8000f50:	e002      	b.n	8000f58 <__cmpsf2+0x4>
 8000f52:	bf00      	nop

08000f54 <__cmpsf2>:
 8000f54:	f04f 0c01 	mov.w	ip, #1
 8000f58:	f84d cd04 	str.w	ip, [sp, #-4]!
 8000f5c:	ea4f 0240 	mov.w	r2, r0, lsl #1
 8000f60:	ea4f 0341 	mov.w	r3, r1, lsl #1
 8000f64:	ea7f 6c22 	mvns.w	ip, r2, asr #24
 8000f68:	bf18      	it	ne
 8000f6a:	ea7f 6c23 	mvnsne.w	ip, r3, asr #24
 8000f6e:	d011      	beq.n	8000f94 <__cmpsf2+0x40>
 8000f70:	b001      	add	sp, #4
 8000f72:	ea52 0c53 	orrs.w	ip, r2, r3, lsr #1
 8000f76:	bf18      	it	ne
 8000f78:	ea90 0f01 	teqne	r0, r1
 8000f7c:	bf58      	it	pl
 8000f7e:	ebb2 0003 	subspl.w	r0, r2, r3
 8000f82:	bf88      	it	hi
 8000f84:	17c8      	asrhi	r0, r1, #31
 8000f86:	bf38      	it	cc
 8000f88:	ea6f 70e1 	mvncc.w	r0, r1, asr #31
 8000f8c:	bf18      	it	ne
 8000f8e:	f040 0001 	orrne.w	r0, r0, #1
 8000f92:	4770      	bx	lr
 8000f94:	ea7f 6c22 	mvns.w	ip, r2, asr #24
 8000f98:	d102      	bne.n	8000fa0 <__cmpsf2+0x4c>
 8000f9a:	ea5f 2c40 	movs.w	ip, r0, lsl #9
 8000f9e:	d105      	bne.n	8000fac <__cmpsf2+0x58>
 8000fa0:	ea7f 6c23 	mvns.w	ip, r3, asr #24
 8000fa4:	d1e4      	bne.n	8000f70 <__cmpsf2+0x1c>
 8000fa6:	ea5f 2c41 	movs.w	ip, r1, lsl #9
 8000faa:	d0e1      	beq.n	8000f70 <__cmpsf2+0x1c>
 8000fac:	f85d 0b04 	ldr.w	r0, [sp], #4
 8000fb0:	4770      	bx	lr
 8000fb2:	bf00      	nop

08000fb4 <__aeabi_cfrcmple>:
 8000fb4:	4684      	mov	ip, r0
 8000fb6:	4608      	mov	r0, r1
 8000fb8:	4661      	mov	r1, ip
 8000fba:	e7ff      	b.n	8000fbc <__aeabi_cfcmpeq>

08000fbc <__aeabi_cfcmpeq>:
 8000fbc:	b50f      	push	{r0, r1, r2, r3, lr}
 8000fbe:	f7ff ffc9 	bl	8000f54 <__cmpsf2>
 8000fc2:	2800      	cmp	r0, #0
 8000fc4:	bf48      	it	mi
 8000fc6:	f110 0f00 	cmnmi.w	r0, #0
 8000fca:	bd0f      	pop	{r0, r1, r2, r3, pc}

08000fcc <__aeabi_fcmpeq>:
 8000fcc:	f84d ed08 	str.w	lr, [sp, #-8]!
 8000fd0:	f7ff fff4 	bl	8000fbc <__aeabi_cfcmpeq>
 8000fd4:	bf0c      	ite	eq
 8000fd6:	2001      	moveq	r0, #1
 8000fd8:	2000      	movne	r0, #0
 8000fda:	f85d fb08 	ldr.w	pc, [sp], #8
 8000fde:	bf00      	nop

08000fe0 <__aeabi_fcmplt>:
 8000fe0:	f84d ed08 	str.w	lr, [sp, #-8]!
 8000fe4:	f7ff ffea 	bl	8000fbc <__aeabi_cfcmpeq>
 8000fe8:	bf34      	ite	cc
 8000fea:	2001      	movcc	r0, #1
 8000fec:	2000      	movcs	r0, #0
 8000fee:	f85d fb08 	ldr.w	pc, [sp], #8
 8000ff2:	bf00      	nop

08000ff4 <__aeabi_fcmple>:
 8000ff4:	f84d ed08 	str.w	lr, [sp, #-8]!
 8000ff8:	f7ff ffe0 	bl	8000fbc <__aeabi_cfcmpeq>
 8000ffc:	bf94      	ite	ls
 8000ffe:	2001      	movls	r0, #1
 8001000:	2000      	movhi	r0, #0
 8001002:	f85d fb08 	ldr.w	pc, [sp], #8
 8001006:	bf00      	nop

08001008 <__aeabi_fcmpge>:
 8001008:	f84d ed08 	str.w	lr, [sp, #-8]!
 800100c:	f7ff ffd2 	bl	8000fb4 <__aeabi_cfrcmple>
 8001010:	bf94      	ite	ls
 8001012:	2001      	movls	r0, #1
 8001014:	2000      	movhi	r0, #0
 8001016:	f85d fb08 	ldr.w	pc, [sp], #8
 800101a:	bf00      	nop

0800101c <__aeabi_fcmpgt>:
 800101c:	f84d ed08 	str.w	lr, [sp, #-8]!
 8001020:	f7ff ffc8 	bl	8000fb4 <__aeabi_cfrcmple>
 8001024:	bf34      	ite	cc
 8001026:	2001      	movcc	r0, #1
 8001028:	2000      	movcs	r0, #0
 800102a:	f85d fb08 	ldr.w	pc, [sp], #8
 800102e:	bf00      	nop

08001030 <__aeabi_f2iz>:
 8001030:	ea4f 0240 	mov.w	r2, r0, lsl #1
 8001034:	f1b2 4ffe 	cmp.w	r2, #2130706432	; 0x7f000000
 8001038:	d30f      	bcc.n	800105a <__aeabi_f2iz+0x2a>
 800103a:	f04f 039e 	mov.w	r3, #158	; 0x9e
 800103e:	ebb3 6212 	subs.w	r2, r3, r2, lsr #24
 8001042:	d90d      	bls.n	8001060 <__aeabi_f2iz+0x30>
 8001044:	ea4f 2300 	mov.w	r3, r0, lsl #8
 8001048:	f043 4300 	orr.w	r3, r3, #2147483648	; 0x80000000
 800104c:	f010 4f00 	tst.w	r0, #2147483648	; 0x80000000
 8001050:	fa23 f002 	lsr.w	r0, r3, r2
 8001054:	bf18      	it	ne
 8001056:	4240      	negne	r0, r0
 8001058:	4770      	bx	lr
 800105a:	f04f 0000 	mov.w	r0, #0
 800105e:	4770      	bx	lr
 8001060:	f112 0f61 	cmn.w	r2, #97	; 0x61
 8001064:	d101      	bne.n	800106a <__aeabi_f2iz+0x3a>
 8001066:	0242      	lsls	r2, r0, #9
 8001068:	d105      	bne.n	8001076 <__aeabi_f2iz+0x46>
 800106a:	f010 4000 	ands.w	r0, r0, #2147483648	; 0x80000000
 800106e:	bf08      	it	eq
 8001070:	f06f 4000 	mvneq.w	r0, #2147483648	; 0x80000000
 8001074:	4770      	bx	lr
 8001076:	f04f 0000 	mov.w	r0, #0
 800107a:	4770      	bx	lr

0800107c <MX_ADC1_Init>:
 800107c:	4811      	ldr	r0, [pc, #68]	; (80010c4 <MX_ADC1_Init+0x48>)
 800107e:	4b12      	ldr	r3, [pc, #72]	; (80010c8 <MX_ADC1_Init+0x4c>)
 8001080:	b530      	push	{r4, r5, lr}
 8001082:	2400      	movs	r4, #0
 8001084:	2501      	movs	r5, #1
 8001086:	6003      	str	r3, [r0, #0]
 8001088:	f44f 2360 	mov.w	r3, #917504	; 0xe0000
 800108c:	b085      	sub	sp, #20
 800108e:	e9cd 4401 	strd	r4, r4, [sp, #4]
 8001092:	9403      	str	r4, [sp, #12]
 8001094:	6084      	str	r4, [r0, #8]
 8001096:	7305      	strb	r5, [r0, #12]
 8001098:	7504      	strb	r4, [r0, #20]
 800109a:	61c3      	str	r3, [r0, #28]
 800109c:	6044      	str	r4, [r0, #4]
 800109e:	6105      	str	r5, [r0, #16]
 80010a0:	f001 ffce 	bl	8003040 <HAL_ADC_Init>
 80010a4:	b108      	cbz	r0, 80010aa <MX_ADC1_Init+0x2e>
 80010a6:	f000 f9d3 	bl	8001450 <Error_Handler>
 80010aa:	2305      	movs	r3, #5
 80010ac:	4805      	ldr	r0, [pc, #20]	; (80010c4 <MX_ADC1_Init+0x48>)
 80010ae:	a901      	add	r1, sp, #4
 80010b0:	e9cd 4501 	strd	r4, r5, [sp, #4]
 80010b4:	9303      	str	r3, [sp, #12]
 80010b6:	f001 ff1f 	bl	8002ef8 <HAL_ADC_ConfigChannel>
 80010ba:	b108      	cbz	r0, 80010c0 <MX_ADC1_Init+0x44>
 80010bc:	f000 f9c8 	bl	8001450 <Error_Handler>
 80010c0:	b005      	add	sp, #20
 80010c2:	bd30      	pop	{r4, r5, pc}
 80010c4:	20000294 	.word	0x20000294
 80010c8:	40012400 	.word	0x40012400

080010cc <HAL_ADC_MspInit>:
 80010cc:	b530      	push	{r4, r5, lr}
 80010ce:	4605      	mov	r5, r0
 80010d0:	b087      	sub	sp, #28
 80010d2:	2210      	movs	r2, #16
 80010d4:	2100      	movs	r1, #0
 80010d6:	a802      	add	r0, sp, #8
 80010d8:	f004 fe39 	bl	8005d4e <memset>
 80010dc:	682a      	ldr	r2, [r5, #0]
 80010de:	4b1d      	ldr	r3, [pc, #116]	; (8001154 <HAL_ADC_MspInit+0x88>)
 80010e0:	429a      	cmp	r2, r3
 80010e2:	d134      	bne.n	800114e <HAL_ADC_MspInit+0x82>
 80010e4:	f503 436c 	add.w	r3, r3, #60416	; 0xec00
 80010e8:	699a      	ldr	r2, [r3, #24]
 80010ea:	481b      	ldr	r0, [pc, #108]	; (8001158 <HAL_ADC_MspInit+0x8c>)
 80010ec:	f442 7200 	orr.w	r2, r2, #512	; 0x200
 80010f0:	619a      	str	r2, [r3, #24]
 80010f2:	699a      	ldr	r2, [r3, #24]
 80010f4:	a902      	add	r1, sp, #8
 80010f6:	f402 7200 	and.w	r2, r2, #512	; 0x200
 80010fa:	9200      	str	r2, [sp, #0]
 80010fc:	9a00      	ldr	r2, [sp, #0]
 80010fe:	699a      	ldr	r2, [r3, #24]
 8001100:	4c16      	ldr	r4, [pc, #88]	; (800115c <HAL_ADC_MspInit+0x90>)
 8001102:	f042 0204 	orr.w	r2, r2, #4
 8001106:	619a      	str	r2, [r3, #24]
 8001108:	699b      	ldr	r3, [r3, #24]
 800110a:	2201      	movs	r2, #1
 800110c:	f003 0304 	and.w	r3, r3, #4
 8001110:	9301      	str	r3, [sp, #4]
 8001112:	9b01      	ldr	r3, [sp, #4]
 8001114:	2303      	movs	r3, #3
 8001116:	e9cd 2302 	strd	r2, r3, [sp, #8]
 800111a:	f002 fdd7 	bl	8003ccc <HAL_GPIO_Init>
 800111e:	2080      	movs	r0, #128	; 0x80
 8001120:	f44f 7280 	mov.w	r2, #256	; 0x100
 8001124:	2300      	movs	r3, #0
 8001126:	e9c4 0203 	strd	r0, r2, [r4, #12]
 800112a:	f44f 6c80 	mov.w	ip, #1024	; 0x400
 800112e:	2220      	movs	r2, #32
 8001130:	490b      	ldr	r1, [pc, #44]	; (8001160 <HAL_ADC_MspInit+0x94>)
 8001132:	4620      	mov	r0, r4
 8001134:	e9c4 1300 	strd	r1, r3, [r4]
 8001138:	e9c4 c205 	strd	ip, r2, [r4, #20]
 800113c:	60a3      	str	r3, [r4, #8]
 800113e:	61e3      	str	r3, [r4, #28]
 8001140:	f002 fb6e 	bl	8003820 <HAL_DMA_Init>
 8001144:	b108      	cbz	r0, 800114a <HAL_ADC_MspInit+0x7e>
 8001146:	f000 f983 	bl	8001450 <Error_Handler>
 800114a:	622c      	str	r4, [r5, #32]
 800114c:	6265      	str	r5, [r4, #36]	; 0x24
 800114e:	b007      	add	sp, #28
 8001150:	bd30      	pop	{r4, r5, pc}
 8001152:	bf00      	nop
 8001154:	40012400 	.word	0x40012400
 8001158:	40010800 	.word	0x40010800
 800115c:	200002c4 	.word	0x200002c4
 8001160:	40020008 	.word	0x40020008

08001164 <MX_CAN_Init>:
 8001164:	b508      	push	{r3, lr}
 8001166:	2304      	movs	r3, #4
 8001168:	480d      	ldr	r0, [pc, #52]	; (80011a0 <MX_CAN_Init+0x3c>)
 800116a:	4a0e      	ldr	r2, [pc, #56]	; (80011a4 <MX_CAN_Init+0x40>)
 800116c:	f44f 2130 	mov.w	r1, #720896	; 0xb0000
 8001170:	e9c0 2300 	strd	r2, r3, [r0]
 8001174:	2300      	movs	r3, #0
 8001176:	f04f 7240 	mov.w	r2, #50331648	; 0x3000000
 800117a:	e9c0 3202 	strd	r3, r2, [r0, #8]
 800117e:	f44f 0280 	mov.w	r2, #4194304	; 0x400000
 8001182:	e9c0 1204 	strd	r1, r2, [r0, #16]
 8001186:	f04f 2201 	mov.w	r2, #16777472	; 0x1000100
 800118a:	8383      	strh	r3, [r0, #28]
 800118c:	6182      	str	r2, [r0, #24]
 800118e:	f001 ffd5 	bl	800313c <HAL_CAN_Init>
 8001192:	b118      	cbz	r0, 800119c <MX_CAN_Init+0x38>
 8001194:	e8bd 4008 	ldmia.w	sp!, {r3, lr}
 8001198:	f000 b95a 	b.w	8001450 <Error_Handler>
 800119c:	bd08      	pop	{r3, pc}
 800119e:	bf00      	nop
 80011a0:	20000308 	.word	0x20000308
 80011a4:	40006400 	.word	0x40006400

080011a8 <HAL_CAN_MspInit>:
 80011a8:	b510      	push	{r4, lr}
 80011aa:	4604      	mov	r4, r0
 80011ac:	b086      	sub	sp, #24
 80011ae:	2210      	movs	r2, #16
 80011b0:	2100      	movs	r1, #0
 80011b2:	a802      	add	r0, sp, #8
 80011b4:	f004 fdcb 	bl	8005d4e <memset>
 80011b8:	6822      	ldr	r2, [r4, #0]
 80011ba:	4b21      	ldr	r3, [pc, #132]	; (8001240 <HAL_CAN_MspInit+0x98>)
 80011bc:	429a      	cmp	r2, r3
 80011be:	d13d      	bne.n	800123c <HAL_CAN_MspInit+0x94>
 80011c0:	f503 33d6 	add.w	r3, r3, #109568	; 0x1ac00
 80011c4:	69da      	ldr	r2, [r3, #28]
 80011c6:	481f      	ldr	r0, [pc, #124]	; (8001244 <HAL_CAN_MspInit+0x9c>)
 80011c8:	f042 7200 	orr.w	r2, r2, #33554432	; 0x2000000
 80011cc:	61da      	str	r2, [r3, #28]
 80011ce:	69da      	ldr	r2, [r3, #28]
 80011d0:	a902      	add	r1, sp, #8
 80011d2:	f002 7200 	and.w	r2, r2, #33554432	; 0x2000000
 80011d6:	9200      	str	r2, [sp, #0]
 80011d8:	9a00      	ldr	r2, [sp, #0]
 80011da:	699a      	ldr	r2, [r3, #24]
 80011dc:	f042 0204 	orr.w	r2, r2, #4
 80011e0:	619a      	str	r2, [r3, #24]
 80011e2:	699b      	ldr	r3, [r3, #24]
 80011e4:	f003 0304 	and.w	r3, r3, #4
 80011e8:	9301      	str	r3, [sp, #4]
 80011ea:	9b01      	ldr	r3, [sp, #4]
 80011ec:	f44f 6300 	mov.w	r3, #2048	; 0x800
 80011f0:	9302      	str	r3, [sp, #8]
 80011f2:	f002 fd6b 	bl	8003ccc <HAL_GPIO_Init>
 80011f6:	f44f 5280 	mov.w	r2, #4096	; 0x1000
 80011fa:	2302      	movs	r3, #2
 80011fc:	e9cd 2302 	strd	r2, r3, [sp, #8]
 8001200:	2303      	movs	r3, #3
 8001202:	4810      	ldr	r0, [pc, #64]	; (8001244 <HAL_CAN_MspInit+0x9c>)
 8001204:	a902      	add	r1, sp, #8
 8001206:	9305      	str	r3, [sp, #20]
 8001208:	f002 fd60 	bl	8003ccc <HAL_GPIO_Init>
 800120c:	2200      	movs	r2, #0
 800120e:	2014      	movs	r0, #20
 8001210:	4611      	mov	r1, r2
 8001212:	f002 fab3 	bl	800377c <HAL_NVIC_SetPriority>
 8001216:	2014      	movs	r0, #20
 8001218:	f002 fae0 	bl	80037dc <HAL_NVIC_EnableIRQ>
 800121c:	2200      	movs	r2, #0
 800121e:	2015      	movs	r0, #21
 8001220:	4611      	mov	r1, r2
 8001222:	f002 faab 	bl	800377c <HAL_NVIC_SetPriority>
 8001226:	2015      	movs	r0, #21
 8001228:	f002 fad8 	bl	80037dc <HAL_NVIC_EnableIRQ>
 800122c:	2200      	movs	r2, #0
 800122e:	2016      	movs	r0, #22
 8001230:	4611      	mov	r1, r2
 8001232:	f002 faa3 	bl	800377c <HAL_NVIC_SetPriority>
 8001236:	2016      	movs	r0, #22
 8001238:	f002 fad0 	bl	80037dc <HAL_NVIC_EnableIRQ>
 800123c:	b006      	add	sp, #24
 800123e:	bd10      	pop	{r4, pc}
 8001240:	40006400 	.word	0x40006400
 8001244:	40010800 	.word	0x40010800

08001248 <MX_DMA_Init>:
 8001248:	4b0a      	ldr	r3, [pc, #40]	; (8001274 <MX_DMA_Init+0x2c>)
 800124a:	b507      	push	{r0, r1, r2, lr}
 800124c:	695a      	ldr	r2, [r3, #20]
 800124e:	200b      	movs	r0, #11
 8001250:	f042 0201 	orr.w	r2, r2, #1
 8001254:	615a      	str	r2, [r3, #20]
 8001256:	2200      	movs	r2, #0
 8001258:	695b      	ldr	r3, [r3, #20]
 800125a:	4611      	mov	r1, r2
 800125c:	f003 0301 	and.w	r3, r3, #1
 8001260:	9301      	str	r3, [sp, #4]
 8001262:	9b01      	ldr	r3, [sp, #4]
 8001264:	f002 fa8a 	bl	800377c <HAL_NVIC_SetPriority>
 8001268:	200b      	movs	r0, #11
 800126a:	b003      	add	sp, #12
 800126c:	f85d eb04 	ldr.w	lr, [sp], #4
 8001270:	f002 bab4 	b.w	80037dc <HAL_NVIC_EnableIRQ>
 8001274:	40021000 	.word	0x40021000

08001278 <MX_GPIO_Init>:
 8001278:	2210      	movs	r2, #16
 800127a:	e92d 41f0 	stmdb	sp!, {r4, r5, r6, r7, r8, lr}
 800127e:	b088      	sub	sp, #32
 8001280:	eb0d 0002 	add.w	r0, sp, r2
 8001284:	2100      	movs	r1, #0
 8001286:	f004 fd62 	bl	8005d4e <memset>
 800128a:	4b2a      	ldr	r3, [pc, #168]	; (8001334 <MX_GPIO_Init+0xbc>)
 800128c:	f8df 80a8 	ldr.w	r8, [pc, #168]	; 8001338 <MX_GPIO_Init+0xc0>
 8001290:	699a      	ldr	r2, [r3, #24]
 8001292:	4d2a      	ldr	r5, [pc, #168]	; (800133c <MX_GPIO_Init+0xc4>)
 8001294:	f042 0220 	orr.w	r2, r2, #32
 8001298:	619a      	str	r2, [r3, #24]
 800129a:	699a      	ldr	r2, [r3, #24]
 800129c:	4640      	mov	r0, r8
 800129e:	f002 0220 	and.w	r2, r2, #32
 80012a2:	9201      	str	r2, [sp, #4]
 80012a4:	9a01      	ldr	r2, [sp, #4]
 80012a6:	699a      	ldr	r2, [r3, #24]
 80012a8:	f248 01c0 	movw	r1, #32960	; 0x80c0
 80012ac:	f042 0204 	orr.w	r2, r2, #4
 80012b0:	619a      	str	r2, [r3, #24]
 80012b2:	699a      	ldr	r2, [r3, #24]
 80012b4:	2400      	movs	r4, #0
 80012b6:	f002 0204 	and.w	r2, r2, #4
 80012ba:	9202      	str	r2, [sp, #8]
 80012bc:	9a02      	ldr	r2, [sp, #8]
 80012be:	699a      	ldr	r2, [r3, #24]
 80012c0:	2701      	movs	r7, #1
 80012c2:	f042 0208 	orr.w	r2, r2, #8
 80012c6:	619a      	str	r2, [r3, #24]
 80012c8:	699b      	ldr	r3, [r3, #24]
 80012ca:	2200      	movs	r2, #0
 80012cc:	f003 0308 	and.w	r3, r3, #8
 80012d0:	9303      	str	r3, [sp, #12]
 80012d2:	9b03      	ldr	r3, [sp, #12]
 80012d4:	f002 fdda 	bl	8003e8c <HAL_GPIO_WritePin>
 80012d8:	2200      	movs	r2, #0
 80012da:	4628      	mov	r0, r5
 80012dc:	21c8      	movs	r1, #200	; 0xc8
 80012de:	f002 fdd5 	bl	8003e8c <HAL_GPIO_WritePin>
 80012e2:	2602      	movs	r6, #2
 80012e4:	f248 03c0 	movw	r3, #32960	; 0x80c0
 80012e8:	4640      	mov	r0, r8
 80012ea:	a904      	add	r1, sp, #16
 80012ec:	e9cd 3704 	strd	r3, r7, [sp, #16]
 80012f0:	e9cd 4606 	strd	r4, r6, [sp, #24]
 80012f4:	f002 fcea 	bl	8003ccc <HAL_GPIO_Init>
 80012f8:	f44f 42e0 	mov.w	r2, #28672	; 0x7000
 80012fc:	4b10      	ldr	r3, [pc, #64]	; (8001340 <MX_GPIO_Init+0xc8>)
 80012fe:	4628      	mov	r0, r5
 8001300:	a904      	add	r1, sp, #16
 8001302:	e9cd 2304 	strd	r2, r3, [sp, #16]
 8001306:	9406      	str	r4, [sp, #24]
 8001308:	f002 fce0 	bl	8003ccc <HAL_GPIO_Init>
 800130c:	23c8      	movs	r3, #200	; 0xc8
 800130e:	4628      	mov	r0, r5
 8001310:	a904      	add	r1, sp, #16
 8001312:	e9cd 3704 	strd	r3, r7, [sp, #16]
 8001316:	e9cd 4606 	strd	r4, r6, [sp, #24]
 800131a:	f002 fcd7 	bl	8003ccc <HAL_GPIO_Init>
 800131e:	4622      	mov	r2, r4
 8001320:	4621      	mov	r1, r4
 8001322:	2028      	movs	r0, #40	; 0x28
 8001324:	f002 fa2a 	bl	800377c <HAL_NVIC_SetPriority>
 8001328:	2028      	movs	r0, #40	; 0x28
 800132a:	f002 fa57 	bl	80037dc <HAL_NVIC_EnableIRQ>
 800132e:	b008      	add	sp, #32
 8001330:	e8bd 81f0 	ldmia.w	sp!, {r4, r5, r6, r7, r8, pc}
 8001334:	40021000 	.word	0x40021000
 8001338:	40010800 	.word	0x40010800
 800133c:	40010c00 	.word	0x40010c00
 8001340:	10310000 	.word	0x10310000

08001344 <SystemClock_Config>:
 8001344:	b510      	push	{r4, lr}
 8001346:	b094      	sub	sp, #80	; 0x50
 8001348:	2214      	movs	r2, #20
 800134a:	2100      	movs	r1, #0
 800134c:	a80c      	add	r0, sp, #48	; 0x30
 800134e:	f004 fcfe 	bl	8005d4e <memset>
 8001352:	2214      	movs	r2, #20
 8001354:	2100      	movs	r1, #0
 8001356:	eb0d 0002 	add.w	r0, sp, r2
 800135a:	f004 fcf8 	bl	8005d4e <memset>
 800135e:	2210      	movs	r2, #16
 8001360:	2100      	movs	r1, #0
 8001362:	a801      	add	r0, sp, #4
 8001364:	f004 fcf3 	bl	8005d4e <memset>
 8001368:	2402      	movs	r4, #2
 800136a:	f44f 3380 	mov.w	r3, #65536	; 0x10000
 800136e:	2201      	movs	r2, #1
 8001370:	e9cd 4311 	strd	r4, r3, [sp, #68]	; 0x44
 8001374:	e9cd 230a 	strd	r2, r3, [sp, #40]	; 0x28
 8001378:	f44f 13e0 	mov.w	r3, #1835008	; 0x1c0000
 800137c:	a80a      	add	r0, sp, #40	; 0x28
 800137e:	920e      	str	r2, [sp, #56]	; 0x38
 8001380:	9313      	str	r3, [sp, #76]	; 0x4c
 8001382:	f002 fd9d 	bl	8003ec0 <HAL_RCC_OscConfig>
 8001386:	b108      	cbz	r0, 800138c <SystemClock_Config+0x48>
 8001388:	b672      	cpsid	i
 800138a:	e7fe      	b.n	800138a <SystemClock_Config+0x46>
 800138c:	230f      	movs	r3, #15
 800138e:	e9cd 3405 	strd	r3, r4, [sp, #20]
 8001392:	f44f 6380 	mov.w	r3, #1024	; 0x400
 8001396:	9007      	str	r0, [sp, #28]
 8001398:	e9cd 3008 	strd	r3, r0, [sp, #32]
 800139c:	4621      	mov	r1, r4
 800139e:	a805      	add	r0, sp, #20
 80013a0:	f002 ff50 	bl	8004244 <HAL_RCC_ClockConfig>
 80013a4:	b108      	cbz	r0, 80013aa <SystemClock_Config+0x66>
 80013a6:	b672      	cpsid	i
 80013a8:	e7fe      	b.n	80013a8 <SystemClock_Config+0x64>
 80013aa:	f44f 4300 	mov.w	r3, #32768	; 0x8000
 80013ae:	a801      	add	r0, sp, #4
 80013b0:	9401      	str	r4, [sp, #4]
 80013b2:	9303      	str	r3, [sp, #12]
 80013b4:	f003 f802 	bl	80043bc <HAL_RCCEx_PeriphCLKConfig>
 80013b8:	b108      	cbz	r0, 80013be <SystemClock_Config+0x7a>
 80013ba:	b672      	cpsid	i
 80013bc:	e7fe      	b.n	80013bc <SystemClock_Config+0x78>
 80013be:	b014      	add	sp, #80	; 0x50
 80013c0:	bd10      	pop	{r4, pc}
	...

080013c4 <main>:
 80013c4:	b507      	push	{r0, r1, r2, lr}
 80013c6:	f001 fd61 	bl	8002e8c <HAL_Init>
 80013ca:	f7ff ffbb 	bl	8001344 <SystemClock_Config>
 80013ce:	f000 fb37 	bl	8001a40 <CONF_init>
 80013d2:	2014      	movs	r0, #20
 80013d4:	f001 fd7e 	bl	8002ed4 <HAL_Delay>
 80013d8:	f7ff ff4e 	bl	8001278 <MX_GPIO_Init>
 80013dc:	f7ff ff34 	bl	8001248 <MX_DMA_Init>
 80013e0:	f7ff fe4c 	bl	800107c <MX_ADC1_Init>
 80013e4:	f7ff febe 	bl	8001164 <MX_CAN_Init>
 80013e8:	f000 f92e 	bl	8001648 <MX_TIM4_Init>
 80013ec:	f000 f9d4 	bl	8001798 <MX_TIM1_Init>
 80013f0:	f000 fa26 	bl	8001840 <MX_USART1_UART_Init>
 80013f4:	f000 fa40 	bl	8001878 <MX_USART2_UART_Init>
 80013f8:	f000 fa5a 	bl	80018b0 <MX_USART3_UART_Init>
 80013fc:	f000 f8ee 	bl	80015dc <MX_TIM2_Init>
 8001400:	f000 fb34 	bl	8001a6c <CONF_load>
 8001404:	480f      	ldr	r0, [pc, #60]	; (8001444 <main+0x80>)
 8001406:	f003 f8c7 	bl	8004598 <HAL_TIM_Base_Start>
 800140a:	200a      	movs	r0, #10
 800140c:	f001 fd62 	bl	8002ed4 <HAL_Delay>
 8001410:	2380      	movs	r3, #128	; 0x80
 8001412:	9300      	str	r3, [sp, #0]
 8001414:	4b0c      	ldr	r3, [pc, #48]	; (8001448 <main+0x84>)
 8001416:	2240      	movs	r2, #64	; 0x40
 8001418:	4619      	mov	r1, r3
 800141a:	480c      	ldr	r0, [pc, #48]	; (800144c <main+0x88>)
 800141c:	f001 fa30 	bl	8002880 <hx711_init>
 8001420:	f000 ffd4 	bl	80023cc <Proc_init>
 8001424:	f001 fb02 	bl	8002a2c <Modbus_init>
 8001428:	f001 fc2a 	bl	8002c80 <TOF_init>
 800142c:	f001 fab0 	bl	8002990 <hx711_proc>
 8001430:	f001 fbd8 	bl	8002be4 <Modbus_proc>
 8001434:	f001 fc4c 	bl	8002cd0 <TOF_proc>
 8001438:	f001 f928 	bl	800268c <Proc_loop>
 800143c:	2008      	movs	r0, #8
 800143e:	f001 fd49 	bl	8002ed4 <HAL_Delay>
 8001442:	e7f3      	b.n	800142c <main+0x68>
 8001444:	200003c4 	.word	0x200003c4
 8001448:	40010c00 	.word	0x40010c00
 800144c:	200006e8 	.word	0x200006e8

08001450 <Error_Handler>:
 8001450:	b672      	cpsid	i
 8001452:	e7fe      	b.n	8001452 <Error_Handler+0x2>

08001454 <HAL_MspInit>:
 8001454:	4b0e      	ldr	r3, [pc, #56]	; (8001490 <HAL_MspInit+0x3c>)
 8001456:	b082      	sub	sp, #8
 8001458:	699a      	ldr	r2, [r3, #24]
 800145a:	f042 0201 	orr.w	r2, r2, #1
 800145e:	619a      	str	r2, [r3, #24]
 8001460:	699a      	ldr	r2, [r3, #24]
 8001462:	f002 0201 	and.w	r2, r2, #1
 8001466:	9200      	str	r2, [sp, #0]
 8001468:	9a00      	ldr	r2, [sp, #0]
 800146a:	69da      	ldr	r2, [r3, #28]
 800146c:	f042 5280 	orr.w	r2, r2, #268435456	; 0x10000000
 8001470:	61da      	str	r2, [r3, #28]
 8001472:	69db      	ldr	r3, [r3, #28]
 8001474:	4a07      	ldr	r2, [pc, #28]	; (8001494 <HAL_MspInit+0x40>)
 8001476:	f003 5380 	and.w	r3, r3, #268435456	; 0x10000000
 800147a:	9301      	str	r3, [sp, #4]
 800147c:	9b01      	ldr	r3, [sp, #4]
 800147e:	6853      	ldr	r3, [r2, #4]
 8001480:	f023 63e0 	bic.w	r3, r3, #117440512	; 0x7000000
 8001484:	f043 7300 	orr.w	r3, r3, #33554432	; 0x2000000
 8001488:	6053      	str	r3, [r2, #4]
 800148a:	b002      	add	sp, #8
 800148c:	4770      	bx	lr
 800148e:	bf00      	nop
 8001490:	40021000 	.word	0x40021000
 8001494:	40010000 	.word	0x40010000

08001498 <NMI_Handler>:
 8001498:	e7fe      	b.n	8001498 <NMI_Handler>

0800149a <HardFault_Handler>:
 800149a:	e7fe      	b.n	800149a <HardFault_Handler>

0800149c <MemManage_Handler>:
 800149c:	e7fe      	b.n	800149c <MemManage_Handler>

0800149e <BusFault_Handler>:
 800149e:	e7fe      	b.n	800149e <BusFault_Handler>

080014a0 <UsageFault_Handler>:
 80014a0:	e7fe      	b.n	80014a0 <UsageFault_Handler>

080014a2 <SVC_Handler>:
 80014a2:	4770      	bx	lr

080014a4 <DebugMon_Handler>:
 80014a4:	4770      	bx	lr

080014a6 <PendSV_Handler>:
 80014a6:	4770      	bx	lr

080014a8 <SysTick_Handler>:
 80014a8:	f001 bd02 	b.w	8002eb0 <HAL_IncTick>

080014ac <DMA1_Channel1_IRQHandler>:
 80014ac:	4801      	ldr	r0, [pc, #4]	; (80014b4 <DMA1_Channel1_IRQHandler+0x8>)
 80014ae:	f002 ba51 	b.w	8003954 <HAL_DMA_IRQHandler>
 80014b2:	bf00      	nop
 80014b4:	200002c4 	.word	0x200002c4

080014b8 <USB_LP_CAN1_RX0_IRQHandler>:
 80014b8:	4801      	ldr	r0, [pc, #4]	; (80014c0 <USB_LP_CAN1_RX0_IRQHandler+0x8>)
 80014ba:	f002 b84f 	b.w	800355c <HAL_CAN_IRQHandler>
 80014be:	bf00      	nop
 80014c0:	20000308 	.word	0x20000308

080014c4 <CAN1_RX1_IRQHandler>:
 80014c4:	f7ff bff8 	b.w	80014b8 <USB_LP_CAN1_RX0_IRQHandler>

080014c8 <CAN1_SCE_IRQHandler>:
 80014c8:	f7ff bff6 	b.w	80014b8 <USB_LP_CAN1_RX0_IRQHandler>

080014cc <TIM2_IRQHandler>:
 80014cc:	4801      	ldr	r0, [pc, #4]	; (80014d4 <TIM2_IRQHandler+0x8>)
 80014ce:	f003 b8b7 	b.w	8004640 <HAL_TIM_IRQHandler>
 80014d2:	bf00      	nop
 80014d4:	2000037c 	.word	0x2000037c

080014d8 <TIM4_IRQHandler>:
 80014d8:	4801      	ldr	r0, [pc, #4]	; (80014e0 <TIM4_IRQHandler+0x8>)
 80014da:	f003 b8b1 	b.w	8004640 <HAL_TIM_IRQHandler>
 80014de:	bf00      	nop
 80014e0:	200003c4 	.word	0x200003c4

080014e4 <USART1_IRQHandler>:
 80014e4:	4801      	ldr	r0, [pc, #4]	; (80014ec <USART1_IRQHandler+0x8>)
 80014e6:	f003 bd3f 	b.w	8004f68 <HAL_UART_IRQHandler>
 80014ea:	bf00      	nop
 80014ec:	2000040c 	.word	0x2000040c

080014f0 <USART2_IRQHandler>:
 80014f0:	4801      	ldr	r0, [pc, #4]	; (80014f8 <USART2_IRQHandler+0x8>)
 80014f2:	f003 bd39 	b.w	8004f68 <HAL_UART_IRQHandler>
 80014f6:	bf00      	nop
 80014f8:	20000454 	.word	0x20000454

080014fc <USART3_IRQHandler>:
 80014fc:	4801      	ldr	r0, [pc, #4]	; (8001504 <USART3_IRQHandler+0x8>)
 80014fe:	f003 bd33 	b.w	8004f68 <HAL_UART_IRQHandler>
 8001502:	bf00      	nop
 8001504:	2000049c 	.word	0x2000049c

08001508 <EXTI15_10_IRQHandler>:
 8001508:	b508      	push	{r3, lr}
 800150a:	f44f 5080 	mov.w	r0, #4096	; 0x1000
 800150e:	f002 fccb 	bl	8003ea8 <HAL_GPIO_EXTI_IRQHandler>
 8001512:	f44f 5000 	mov.w	r0, #8192	; 0x2000
 8001516:	f002 fcc7 	bl	8003ea8 <HAL_GPIO_EXTI_IRQHandler>
 800151a:	e8bd 4008 	ldmia.w	sp!, {r3, lr}
 800151e:	f44f 4080 	mov.w	r0, #16384	; 0x4000
 8001522:	f002 bcc1 	b.w	8003ea8 <HAL_GPIO_EXTI_IRQHandler>

08001526 <_getpid>:
 8001526:	2001      	movs	r0, #1
 8001528:	4770      	bx	lr

0800152a <_kill>:
 800152a:	b508      	push	{r3, lr}
 800152c:	f004 fc62 	bl	8005df4 <__errno>
 8001530:	2316      	movs	r3, #22
 8001532:	6003      	str	r3, [r0, #0]
 8001534:	f04f 30ff 	mov.w	r0, #4294967295
 8001538:	bd08      	pop	{r3, pc}

0800153a <_exit>:
 800153a:	b508      	push	{r3, lr}
 800153c:	f004 fc5a 	bl	8005df4 <__errno>
 8001540:	2316      	movs	r3, #22
 8001542:	6003      	str	r3, [r0, #0]
 8001544:	e7fe      	b.n	8001544 <_exit+0xa>

08001546 <_read>:
 8001546:	b570      	push	{r4, r5, r6, lr}
 8001548:	460d      	mov	r5, r1
 800154a:	4614      	mov	r4, r2
 800154c:	460e      	mov	r6, r1
 800154e:	1b73      	subs	r3, r6, r5
 8001550:	429c      	cmp	r4, r3
 8001552:	dc01      	bgt.n	8001558 <_read+0x12>
 8001554:	4620      	mov	r0, r4
 8001556:	bd70      	pop	{r4, r5, r6, pc}
 8001558:	f3af 8000 	nop.w
 800155c:	f806 0b01 	strb.w	r0, [r6], #1
 8001560:	e7f5      	b.n	800154e <_read+0x8>

08001562 <_write>:
 8001562:	b570      	push	{r4, r5, r6, lr}
 8001564:	460d      	mov	r5, r1
 8001566:	4614      	mov	r4, r2
 8001568:	460e      	mov	r6, r1
 800156a:	1b73      	subs	r3, r6, r5
 800156c:	429c      	cmp	r4, r3
 800156e:	dc01      	bgt.n	8001574 <_write+0x12>
 8001570:	4620      	mov	r0, r4
 8001572:	bd70      	pop	{r4, r5, r6, pc}
 8001574:	f816 0b01 	ldrb.w	r0, [r6], #1
 8001578:	f3af 8000 	nop.w
 800157c:	e7f5      	b.n	800156a <_write+0x8>

0800157e <_close>:
 800157e:	f04f 30ff 	mov.w	r0, #4294967295
 8001582:	4770      	bx	lr

08001584 <_fstat>:
 8001584:	f44f 5300 	mov.w	r3, #8192	; 0x2000
 8001588:	2000      	movs	r0, #0
 800158a:	604b      	str	r3, [r1, #4]
 800158c:	4770      	bx	lr

0800158e <_isatty>:
 800158e:	2001      	movs	r0, #1
 8001590:	4770      	bx	lr

08001592 <_lseek>:
 8001592:	2000      	movs	r0, #0
 8001594:	4770      	bx	lr
	...

08001598 <_sbrk>:
 8001598:	4a0b      	ldr	r2, [pc, #44]	; (80015c8 <_sbrk+0x30>)
 800159a:	4603      	mov	r3, r0
 800159c:	6811      	ldr	r1, [r2, #0]
 800159e:	b510      	push	{r4, lr}
 80015a0:	b909      	cbnz	r1, 80015a6 <_sbrk+0xe>
 80015a2:	490a      	ldr	r1, [pc, #40]	; (80015cc <_sbrk+0x34>)
 80015a4:	6011      	str	r1, [r2, #0]
 80015a6:	6810      	ldr	r0, [r2, #0]
 80015a8:	4909      	ldr	r1, [pc, #36]	; (80015d0 <_sbrk+0x38>)
 80015aa:	4c0a      	ldr	r4, [pc, #40]	; (80015d4 <_sbrk+0x3c>)
 80015ac:	4403      	add	r3, r0
 80015ae:	1b09      	subs	r1, r1, r4
 80015b0:	428b      	cmp	r3, r1
 80015b2:	d906      	bls.n	80015c2 <_sbrk+0x2a>
 80015b4:	f004 fc1e 	bl	8005df4 <__errno>
 80015b8:	230c      	movs	r3, #12
 80015ba:	6003      	str	r3, [r0, #0]
 80015bc:	f04f 30ff 	mov.w	r0, #4294967295
 80015c0:	bd10      	pop	{r4, pc}
 80015c2:	6013      	str	r3, [r2, #0]
 80015c4:	e7fc      	b.n	80015c0 <_sbrk+0x28>
 80015c6:	bf00      	nop
 80015c8:	20000330 	.word	0x20000330
 80015cc:	20000a20 	.word	0x20000a20
 80015d0:	20005000 	.word	0x20005000
 80015d4:	00000400 	.word	0x00000400

080015d8 <SystemInit>:
 80015d8:	4770      	bx	lr
	...

080015dc <MX_TIM2_Init>:
 80015dc:	b57f      	push	{r0, r1, r2, r3, r4, r5, r6, lr}
 80015de:	2210      	movs	r2, #16
 80015e0:	2100      	movs	r1, #0
 80015e2:	a802      	add	r0, sp, #8
 80015e4:	f004 fbb3 	bl	8005d4e <memset>
 80015e8:	f240 22cf 	movw	r2, #719	; 0x2cf
 80015ec:	f04f 4180 	mov.w	r1, #1073741824	; 0x40000000
 80015f0:	4814      	ldr	r0, [pc, #80]	; (8001644 <MX_TIM2_Init+0x68>)
 80015f2:	2300      	movs	r3, #0
 80015f4:	e9c0 1200 	strd	r1, r2, [r0]
 80015f8:	f240 32e7 	movw	r2, #999	; 0x3e7
 80015fc:	e9cd 3300 	strd	r3, r3, [sp]
 8001600:	e9c0 2303 	strd	r2, r3, [r0, #12]
 8001604:	6083      	str	r3, [r0, #8]
 8001606:	2380      	movs	r3, #128	; 0x80
 8001608:	6183      	str	r3, [r0, #24]
 800160a:	f003 f8ed 	bl	80047e8 <HAL_TIM_Base_Init>
 800160e:	b108      	cbz	r0, 8001614 <MX_TIM2_Init+0x38>
 8001610:	f7ff ff1e 	bl	8001450 <Error_Handler>
 8001614:	f44f 5380 	mov.w	r3, #4096	; 0x1000
 8001618:	480a      	ldr	r0, [pc, #40]	; (8001644 <MX_TIM2_Init+0x68>)
 800161a:	a902      	add	r1, sp, #8
 800161c:	9302      	str	r3, [sp, #8]
 800161e:	f003 f9ca 	bl	80049b6 <HAL_TIM_ConfigClockSource>
 8001622:	b108      	cbz	r0, 8001628 <MX_TIM2_Init+0x4c>
 8001624:	f7ff ff14 	bl	8001450 <Error_Handler>
 8001628:	2300      	movs	r3, #0
 800162a:	4669      	mov	r1, sp
 800162c:	4805      	ldr	r0, [pc, #20]	; (8001644 <MX_TIM2_Init+0x68>)
 800162e:	e9cd 3300 	strd	r3, r3, [sp]
 8001632:	f003 fa59 	bl	8004ae8 <HAL_TIMEx_MasterConfigSynchronization>
 8001636:	b108      	cbz	r0, 800163c <MX_TIM2_Init+0x60>
 8001638:	f7ff ff0a 	bl	8001450 <Error_Handler>
 800163c:	b007      	add	sp, #28
 800163e:	f85d fb04 	ldr.w	pc, [sp], #4
 8001642:	bf00      	nop
 8001644:	2000037c 	.word	0x2000037c

08001648 <MX_TIM4_Init>:
 8001648:	b57f      	push	{r0, r1, r2, r3, r4, r5, r6, lr}
 800164a:	2210      	movs	r2, #16
 800164c:	2100      	movs	r1, #0
 800164e:	a802      	add	r0, sp, #8
 8001650:	f004 fb7d 	bl	8005d4e <memset>
 8001654:	2247      	movs	r2, #71	; 0x47
 8001656:	4815      	ldr	r0, [pc, #84]	; (80016ac <MX_TIM4_Init+0x64>)
 8001658:	4915      	ldr	r1, [pc, #84]	; (80016b0 <MX_TIM4_Init+0x68>)
 800165a:	2300      	movs	r3, #0
 800165c:	e9c0 1200 	strd	r1, r2, [r0]
 8001660:	f64f 72ff 	movw	r2, #65535	; 0xffff
 8001664:	e9cd 3300 	strd	r3, r3, [sp]
 8001668:	e9c0 2303 	strd	r2, r3, [r0, #12]
 800166c:	6083      	str	r3, [r0, #8]
 800166e:	2380      	movs	r3, #128	; 0x80
 8001670:	6183      	str	r3, [r0, #24]
 8001672:	f003 f8b9 	bl	80047e8 <HAL_TIM_Base_Init>
 8001676:	b108      	cbz	r0, 800167c <MX_TIM4_Init+0x34>
 8001678:	f7ff feea 	bl	8001450 <Error_Handler>
 800167c:	f44f 5380 	mov.w	r3, #4096	; 0x1000
 8001680:	480a      	ldr	r0, [pc, #40]	; (80016ac <MX_TIM4_Init+0x64>)
 8001682:	a902      	add	r1, sp, #8
 8001684:	9302      	str	r3, [sp, #8]
 8001686:	f003 f996 	bl	80049b6 <HAL_TIM_ConfigClockSource>
 800168a:	b108      	cbz	r0, 8001690 <MX_TIM4_Init+0x48>
 800168c:	f7ff fee0 	bl	8001450 <Error_Handler>
 8001690:	2300      	movs	r3, #0
 8001692:	4669      	mov	r1, sp
 8001694:	4805      	ldr	r0, [pc, #20]	; (80016ac <MX_TIM4_Init+0x64>)
 8001696:	e9cd 3300 	strd	r3, r3, [sp]
 800169a:	f003 fa25 	bl	8004ae8 <HAL_TIMEx_MasterConfigSynchronization>
 800169e:	b108      	cbz	r0, 80016a4 <MX_TIM4_Init+0x5c>
 80016a0:	f7ff fed6 	bl	8001450 <Error_Handler>
 80016a4:	b007      	add	sp, #28
 80016a6:	f85d fb04 	ldr.w	pc, [sp], #4
 80016aa:	bf00      	nop
 80016ac:	200003c4 	.word	0x200003c4
 80016b0:	40000800 	.word	0x40000800

080016b4 <HAL_TIM_PWM_MspInit>:
 80016b4:	6802      	ldr	r2, [r0, #0]
 80016b6:	4b08      	ldr	r3, [pc, #32]	; (80016d8 <HAL_TIM_PWM_MspInit+0x24>)
 80016b8:	b082      	sub	sp, #8
 80016ba:	429a      	cmp	r2, r3
 80016bc:	d10a      	bne.n	80016d4 <HAL_TIM_PWM_MspInit+0x20>
 80016be:	f503 4364 	add.w	r3, r3, #58368	; 0xe400
 80016c2:	699a      	ldr	r2, [r3, #24]
 80016c4:	f442 6200 	orr.w	r2, r2, #2048	; 0x800
 80016c8:	619a      	str	r2, [r3, #24]
 80016ca:	699b      	ldr	r3, [r3, #24]
 80016cc:	f403 6300 	and.w	r3, r3, #2048	; 0x800
 80016d0:	9301      	str	r3, [sp, #4]
 80016d2:	9b01      	ldr	r3, [sp, #4]
 80016d4:	b002      	add	sp, #8
 80016d6:	4770      	bx	lr
 80016d8:	40012c00 	.word	0x40012c00

080016dc <HAL_TIM_Base_MspInit>:
 80016dc:	6803      	ldr	r3, [r0, #0]
 80016de:	b507      	push	{r0, r1, r2, lr}
 80016e0:	f1b3 4f80 	cmp.w	r3, #1073741824	; 0x40000000
 80016e4:	d115      	bne.n	8001712 <HAL_TIM_Base_MspInit+0x36>
 80016e6:	f503 3304 	add.w	r3, r3, #135168	; 0x21000
 80016ea:	69da      	ldr	r2, [r3, #28]
 80016ec:	201c      	movs	r0, #28
 80016ee:	f042 0201 	orr.w	r2, r2, #1
 80016f2:	61da      	str	r2, [r3, #28]
 80016f4:	2200      	movs	r2, #0
 80016f6:	69db      	ldr	r3, [r3, #28]
 80016f8:	4611      	mov	r1, r2
 80016fa:	f003 0301 	and.w	r3, r3, #1
 80016fe:	9300      	str	r3, [sp, #0]
 8001700:	9b00      	ldr	r3, [sp, #0]
 8001702:	f002 f83b 	bl	800377c <HAL_NVIC_SetPriority>
 8001706:	201c      	movs	r0, #28
 8001708:	b003      	add	sp, #12
 800170a:	f85d eb04 	ldr.w	lr, [sp], #4
 800170e:	f002 b865 	b.w	80037dc <HAL_NVIC_EnableIRQ>
 8001712:	4a0b      	ldr	r2, [pc, #44]	; (8001740 <HAL_TIM_Base_MspInit+0x64>)
 8001714:	4293      	cmp	r3, r2
 8001716:	d110      	bne.n	800173a <HAL_TIM_Base_MspInit+0x5e>
 8001718:	4b0a      	ldr	r3, [pc, #40]	; (8001744 <HAL_TIM_Base_MspInit+0x68>)
 800171a:	201e      	movs	r0, #30
 800171c:	69da      	ldr	r2, [r3, #28]
 800171e:	f042 0204 	orr.w	r2, r2, #4
 8001722:	61da      	str	r2, [r3, #28]
 8001724:	2200      	movs	r2, #0
 8001726:	69db      	ldr	r3, [r3, #28]
 8001728:	4611      	mov	r1, r2
 800172a:	f003 0304 	and.w	r3, r3, #4
 800172e:	9301      	str	r3, [sp, #4]
 8001730:	9b01      	ldr	r3, [sp, #4]
 8001732:	f002 f823 	bl	800377c <HAL_NVIC_SetPriority>
 8001736:	201e      	movs	r0, #30
 8001738:	e7e6      	b.n	8001708 <HAL_TIM_Base_MspInit+0x2c>
 800173a:	b003      	add	sp, #12
 800173c:	f85d fb04 	ldr.w	pc, [sp], #4
 8001740:	40000800 	.word	0x40000800
 8001744:	40021000 	.word	0x40021000

08001748 <HAL_TIM_MspPostInit>:
 8001748:	b510      	push	{r4, lr}
 800174a:	4604      	mov	r4, r0
 800174c:	b086      	sub	sp, #24
 800174e:	2210      	movs	r2, #16
 8001750:	2100      	movs	r1, #0
 8001752:	a802      	add	r0, sp, #8
 8001754:	f004 fafb 	bl	8005d4e <memset>
 8001758:	6822      	ldr	r2, [r4, #0]
 800175a:	4b0d      	ldr	r3, [pc, #52]	; (8001790 <HAL_TIM_MspPostInit+0x48>)
 800175c:	429a      	cmp	r2, r3
 800175e:	d114      	bne.n	800178a <HAL_TIM_MspPostInit+0x42>
 8001760:	f503 4364 	add.w	r3, r3, #58368	; 0xe400
 8001764:	699a      	ldr	r2, [r3, #24]
 8001766:	480b      	ldr	r0, [pc, #44]	; (8001794 <HAL_TIM_MspPostInit+0x4c>)
 8001768:	f042 0204 	orr.w	r2, r2, #4
 800176c:	619a      	str	r2, [r3, #24]
 800176e:	699b      	ldr	r3, [r3, #24]
 8001770:	f44f 7280 	mov.w	r2, #256	; 0x100
 8001774:	f003 0304 	and.w	r3, r3, #4
 8001778:	9301      	str	r3, [sp, #4]
 800177a:	9b01      	ldr	r3, [sp, #4]
 800177c:	2302      	movs	r3, #2
 800177e:	a902      	add	r1, sp, #8
 8001780:	e9cd 2302 	strd	r2, r3, [sp, #8]
 8001784:	9305      	str	r3, [sp, #20]
 8001786:	f002 faa1 	bl	8003ccc <HAL_GPIO_Init>
 800178a:	b006      	add	sp, #24
 800178c:	bd10      	pop	{r4, pc}
 800178e:	bf00      	nop
 8001790:	40012c00 	.word	0x40012c00
 8001794:	40010800 	.word	0x40010800

08001798 <MX_TIM1_Init>:
 8001798:	b510      	push	{r4, lr}
 800179a:	2400      	movs	r4, #0
 800179c:	b092      	sub	sp, #72	; 0x48
 800179e:	221c      	movs	r2, #28
 80017a0:	4621      	mov	r1, r4
 80017a2:	a803      	add	r0, sp, #12
 80017a4:	e9cd 4401 	strd	r4, r4, [sp, #4]
 80017a8:	f004 fad1 	bl	8005d4e <memset>
 80017ac:	2220      	movs	r2, #32
 80017ae:	4621      	mov	r1, r4
 80017b0:	a80a      	add	r0, sp, #40	; 0x28
 80017b2:	f004 facc 	bl	8005d4e <memset>
 80017b6:	2301      	movs	r3, #1
 80017b8:	481f      	ldr	r0, [pc, #124]	; (8001838 <MX_TIM1_Init+0xa0>)
 80017ba:	4a20      	ldr	r2, [pc, #128]	; (800183c <MX_TIM1_Init+0xa4>)
 80017bc:	e9c0 4405 	strd	r4, r4, [r0, #20]
 80017c0:	e9c0 2300 	strd	r2, r3, [r0]
 80017c4:	f640 630f 	movw	r3, #3599	; 0xe0f
 80017c8:	6084      	str	r4, [r0, #8]
 80017ca:	e9c0 3403 	strd	r3, r4, [r0, #12]
 80017ce:	f003 f837 	bl	8004840 <HAL_TIM_PWM_Init>
 80017d2:	b108      	cbz	r0, 80017d8 <MX_TIM1_Init+0x40>
 80017d4:	f7ff fe3c 	bl	8001450 <Error_Handler>
 80017d8:	4817      	ldr	r0, [pc, #92]	; (8001838 <MX_TIM1_Init+0xa0>)
 80017da:	a901      	add	r1, sp, #4
 80017dc:	e9cd 4401 	strd	r4, r4, [sp, #4]
 80017e0:	f003 f982 	bl	8004ae8 <HAL_TIMEx_MasterConfigSynchronization>
 80017e4:	b108      	cbz	r0, 80017ea <MX_TIM1_Init+0x52>
 80017e6:	f7ff fe33 	bl	8001450 <Error_Handler>
 80017ea:	2400      	movs	r4, #0
 80017ec:	2360      	movs	r3, #96	; 0x60
 80017ee:	4622      	mov	r2, r4
 80017f0:	4811      	ldr	r0, [pc, #68]	; (8001838 <MX_TIM1_Init+0xa0>)
 80017f2:	a903      	add	r1, sp, #12
 80017f4:	e9cd 3403 	strd	r3, r4, [sp, #12]
 80017f8:	e9cd 4405 	strd	r4, r4, [sp, #20]
 80017fc:	e9cd 4407 	strd	r4, r4, [sp, #28]
 8001800:	9409      	str	r4, [sp, #36]	; 0x24
 8001802:	f003 f875 	bl	80048f0 <HAL_TIM_PWM_ConfigChannel>
 8001806:	b108      	cbz	r0, 800180c <MX_TIM1_Init+0x74>
 8001808:	f7ff fe22 	bl	8001450 <Error_Handler>
 800180c:	f44f 5300 	mov.w	r3, #8192	; 0x2000
 8001810:	4809      	ldr	r0, [pc, #36]	; (8001838 <MX_TIM1_Init+0xa0>)
 8001812:	a90a      	add	r1, sp, #40	; 0x28
 8001814:	e9cd 440a 	strd	r4, r4, [sp, #40]	; 0x28
 8001818:	e9cd 440c 	strd	r4, r4, [sp, #48]	; 0x30
 800181c:	940e      	str	r4, [sp, #56]	; 0x38
 800181e:	930f      	str	r3, [sp, #60]	; 0x3c
 8001820:	9411      	str	r4, [sp, #68]	; 0x44
 8001822:	f003 f98f 	bl	8004b44 <HAL_TIMEx_ConfigBreakDeadTime>
 8001826:	b108      	cbz	r0, 800182c <MX_TIM1_Init+0x94>
 8001828:	f7ff fe12 	bl	8001450 <Error_Handler>
 800182c:	4802      	ldr	r0, [pc, #8]	; (8001838 <MX_TIM1_Init+0xa0>)
 800182e:	f7ff ff8b 	bl	8001748 <HAL_TIM_MspPostInit>
 8001832:	b012      	add	sp, #72	; 0x48
 8001834:	bd10      	pop	{r4, pc}
 8001836:	bf00      	nop
 8001838:	20000334 	.word	0x20000334
 800183c:	40012c00 	.word	0x40012c00

08001840 <MX_USART1_UART_Init>:
 8001840:	b508      	push	{r3, lr}
 8001842:	f44f 33e1 	mov.w	r3, #115200	; 0x1c200
 8001846:	480a      	ldr	r0, [pc, #40]	; (8001870 <MX_USART1_UART_Init+0x30>)
 8001848:	4a0a      	ldr	r2, [pc, #40]	; (8001874 <MX_USART1_UART_Init+0x34>)
 800184a:	e9c0 2300 	strd	r2, r3, [r0]
 800184e:	2300      	movs	r3, #0
 8001850:	220c      	movs	r2, #12
 8001852:	e9c0 3302 	strd	r3, r3, [r0, #8]
 8001856:	e9c0 2305 	strd	r2, r3, [r0, #20]
 800185a:	6103      	str	r3, [r0, #16]
 800185c:	61c3      	str	r3, [r0, #28]
 800185e:	f003 fa33 	bl	8004cc8 <HAL_UART_Init>
 8001862:	b118      	cbz	r0, 800186c <MX_USART1_UART_Init+0x2c>
 8001864:	e8bd 4008 	ldmia.w	sp!, {r3, lr}
 8001868:	f7ff bdf2 	b.w	8001450 <Error_Handler>
 800186c:	bd08      	pop	{r3, pc}
 800186e:	bf00      	nop
 8001870:	2000040c 	.word	0x2000040c
 8001874:	40013800 	.word	0x40013800

08001878 <MX_USART2_UART_Init>:
 8001878:	b508      	push	{r3, lr}
 800187a:	f44f 33e1 	mov.w	r3, #115200	; 0x1c200
 800187e:	480a      	ldr	r0, [pc, #40]	; (80018a8 <MX_USART2_UART_Init+0x30>)
 8001880:	4a0a      	ldr	r2, [pc, #40]	; (80018ac <MX_USART2_UART_Init+0x34>)
 8001882:	e9c0 2300 	strd	r2, r3, [r0]
 8001886:	2300      	movs	r3, #0
 8001888:	220c      	movs	r2, #12
 800188a:	e9c0 3302 	strd	r3, r3, [r0, #8]
 800188e:	e9c0 2305 	strd	r2, r3, [r0, #20]
 8001892:	6103      	str	r3, [r0, #16]
 8001894:	61c3      	str	r3, [r0, #28]
 8001896:	f003 fa17 	bl	8004cc8 <HAL_UART_Init>
 800189a:	b118      	cbz	r0, 80018a4 <MX_USART2_UART_Init+0x2c>
 800189c:	e8bd 4008 	ldmia.w	sp!, {r3, lr}
 80018a0:	f7ff bdd6 	b.w	8001450 <Error_Handler>
 80018a4:	bd08      	pop	{r3, pc}
 80018a6:	bf00      	nop
 80018a8:	20000454 	.word	0x20000454
 80018ac:	40004400 	.word	0x40004400

080018b0 <MX_USART3_UART_Init>:
 80018b0:	b508      	push	{r3, lr}
 80018b2:	f44f 33e1 	mov.w	r3, #115200	; 0x1c200
 80018b6:	480a      	ldr	r0, [pc, #40]	; (80018e0 <MX_USART3_UART_Init+0x30>)
 80018b8:	4a0a      	ldr	r2, [pc, #40]	; (80018e4 <MX_USART3_UART_Init+0x34>)
 80018ba:	e9c0 2300 	strd	r2, r3, [r0]
 80018be:	2300      	movs	r3, #0
 80018c0:	220c      	movs	r2, #12
 80018c2:	e9c0 3302 	strd	r3, r3, [r0, #8]
 80018c6:	e9c0 2305 	strd	r2, r3, [r0, #20]
 80018ca:	6103      	str	r3, [r0, #16]
 80018cc:	61c3      	str	r3, [r0, #28]
 80018ce:	f003 f9fb 	bl	8004cc8 <HAL_UART_Init>
 80018d2:	b118      	cbz	r0, 80018dc <MX_USART3_UART_Init+0x2c>
 80018d4:	e8bd 4008 	ldmia.w	sp!, {r3, lr}
 80018d8:	f7ff bdba 	b.w	8001450 <Error_Handler>
 80018dc:	bd08      	pop	{r3, pc}
 80018de:	bf00      	nop
 80018e0:	2000049c 	.word	0x2000049c
 80018e4:	40004800 	.word	0x40004800

080018e8 <HAL_UART_MspInit>:
 80018e8:	b510      	push	{r4, lr}
 80018ea:	4604      	mov	r4, r0
 80018ec:	b08a      	sub	sp, #40	; 0x28
 80018ee:	2210      	movs	r2, #16
 80018f0:	2100      	movs	r1, #0
 80018f2:	a806      	add	r0, sp, #24
 80018f4:	f004 fa2b 	bl	8005d4e <memset>
 80018f8:	6823      	ldr	r3, [r4, #0]
 80018fa:	4a4b      	ldr	r2, [pc, #300]	; (8001a28 <HAL_UART_MspInit+0x140>)
 80018fc:	4293      	cmp	r3, r2
 80018fe:	d131      	bne.n	8001964 <HAL_UART_MspInit+0x7c>
 8001900:	4b4a      	ldr	r3, [pc, #296]	; (8001a2c <HAL_UART_MspInit+0x144>)
 8001902:	f44f 7000 	mov.w	r0, #512	; 0x200
 8001906:	699a      	ldr	r2, [r3, #24]
 8001908:	a906      	add	r1, sp, #24
 800190a:	f442 4280 	orr.w	r2, r2, #16384	; 0x4000
 800190e:	619a      	str	r2, [r3, #24]
 8001910:	699a      	ldr	r2, [r3, #24]
 8001912:	2400      	movs	r4, #0
 8001914:	f402 4280 	and.w	r2, r2, #16384	; 0x4000
 8001918:	9200      	str	r2, [sp, #0]
 800191a:	9a00      	ldr	r2, [sp, #0]
 800191c:	699a      	ldr	r2, [r3, #24]
 800191e:	f042 0204 	orr.w	r2, r2, #4
 8001922:	619a      	str	r2, [r3, #24]
 8001924:	699b      	ldr	r3, [r3, #24]
 8001926:	f003 0304 	and.w	r3, r3, #4
 800192a:	9301      	str	r3, [sp, #4]
 800192c:	9b01      	ldr	r3, [sp, #4]
 800192e:	2302      	movs	r3, #2
 8001930:	e9cd 0306 	strd	r0, r3, [sp, #24]
 8001934:	2303      	movs	r3, #3
 8001936:	483e      	ldr	r0, [pc, #248]	; (8001a30 <HAL_UART_MspInit+0x148>)
 8001938:	9309      	str	r3, [sp, #36]	; 0x24
 800193a:	f002 f9c7 	bl	8003ccc <HAL_GPIO_Init>
 800193e:	f44f 6380 	mov.w	r3, #1024	; 0x400
 8001942:	483b      	ldr	r0, [pc, #236]	; (8001a30 <HAL_UART_MspInit+0x148>)
 8001944:	a906      	add	r1, sp, #24
 8001946:	e9cd 3406 	strd	r3, r4, [sp, #24]
 800194a:	9408      	str	r4, [sp, #32]
 800194c:	f002 f9be 	bl	8003ccc <HAL_GPIO_Init>
 8001950:	2025      	movs	r0, #37	; 0x25
 8001952:	4622      	mov	r2, r4
 8001954:	4621      	mov	r1, r4
 8001956:	f001 ff11 	bl	800377c <HAL_NVIC_SetPriority>
 800195a:	2025      	movs	r0, #37	; 0x25
 800195c:	f001 ff3e 	bl	80037dc <HAL_NVIC_EnableIRQ>
 8001960:	b00a      	add	sp, #40	; 0x28
 8001962:	bd10      	pop	{r4, pc}
 8001964:	4a33      	ldr	r2, [pc, #204]	; (8001a34 <HAL_UART_MspInit+0x14c>)
 8001966:	4293      	cmp	r3, r2
 8001968:	d12c      	bne.n	80019c4 <HAL_UART_MspInit+0xdc>
 800196a:	4b30      	ldr	r3, [pc, #192]	; (8001a2c <HAL_UART_MspInit+0x144>)
 800196c:	2104      	movs	r1, #4
 800196e:	69da      	ldr	r2, [r3, #28]
 8001970:	482f      	ldr	r0, [pc, #188]	; (8001a30 <HAL_UART_MspInit+0x148>)
 8001972:	f442 3200 	orr.w	r2, r2, #131072	; 0x20000
 8001976:	61da      	str	r2, [r3, #28]
 8001978:	69da      	ldr	r2, [r3, #28]
 800197a:	2400      	movs	r4, #0
 800197c:	f402 3200 	and.w	r2, r2, #131072	; 0x20000
 8001980:	9202      	str	r2, [sp, #8]
 8001982:	9a02      	ldr	r2, [sp, #8]
 8001984:	699a      	ldr	r2, [r3, #24]
 8001986:	f042 0204 	orr.w	r2, r2, #4
 800198a:	619a      	str	r2, [r3, #24]
 800198c:	699b      	ldr	r3, [r3, #24]
 800198e:	f003 0304 	and.w	r3, r3, #4
 8001992:	9303      	str	r3, [sp, #12]
 8001994:	9b03      	ldr	r3, [sp, #12]
 8001996:	2302      	movs	r3, #2
 8001998:	e9cd 1306 	strd	r1, r3, [sp, #24]
 800199c:	2303      	movs	r3, #3
 800199e:	a906      	add	r1, sp, #24
 80019a0:	9309      	str	r3, [sp, #36]	; 0x24
 80019a2:	f002 f993 	bl	8003ccc <HAL_GPIO_Init>
 80019a6:	2308      	movs	r3, #8
 80019a8:	4821      	ldr	r0, [pc, #132]	; (8001a30 <HAL_UART_MspInit+0x148>)
 80019aa:	a906      	add	r1, sp, #24
 80019ac:	e9cd 3406 	strd	r3, r4, [sp, #24]
 80019b0:	9408      	str	r4, [sp, #32]
 80019b2:	f002 f98b 	bl	8003ccc <HAL_GPIO_Init>
 80019b6:	2026      	movs	r0, #38	; 0x26
 80019b8:	4622      	mov	r2, r4
 80019ba:	4621      	mov	r1, r4
 80019bc:	f001 fede 	bl	800377c <HAL_NVIC_SetPriority>
 80019c0:	2026      	movs	r0, #38	; 0x26
 80019c2:	e7cb      	b.n	800195c <HAL_UART_MspInit+0x74>
 80019c4:	4a1c      	ldr	r2, [pc, #112]	; (8001a38 <HAL_UART_MspInit+0x150>)
 80019c6:	4293      	cmp	r3, r2
 80019c8:	d1ca      	bne.n	8001960 <HAL_UART_MspInit+0x78>
 80019ca:	4b18      	ldr	r3, [pc, #96]	; (8001a2c <HAL_UART_MspInit+0x144>)
 80019cc:	481b      	ldr	r0, [pc, #108]	; (8001a3c <HAL_UART_MspInit+0x154>)
 80019ce:	69da      	ldr	r2, [r3, #28]
 80019d0:	a906      	add	r1, sp, #24
 80019d2:	f442 2280 	orr.w	r2, r2, #262144	; 0x40000
 80019d6:	61da      	str	r2, [r3, #28]
 80019d8:	69da      	ldr	r2, [r3, #28]
 80019da:	2400      	movs	r4, #0
 80019dc:	f402 2280 	and.w	r2, r2, #262144	; 0x40000
 80019e0:	9204      	str	r2, [sp, #16]
 80019e2:	9a04      	ldr	r2, [sp, #16]
 80019e4:	699a      	ldr	r2, [r3, #24]
 80019e6:	f042 0208 	orr.w	r2, r2, #8
 80019ea:	619a      	str	r2, [r3, #24]
 80019ec:	699b      	ldr	r3, [r3, #24]
 80019ee:	f44f 6280 	mov.w	r2, #1024	; 0x400
 80019f2:	f003 0308 	and.w	r3, r3, #8
 80019f6:	9305      	str	r3, [sp, #20]
 80019f8:	9b05      	ldr	r3, [sp, #20]
 80019fa:	2302      	movs	r3, #2
 80019fc:	e9cd 2306 	strd	r2, r3, [sp, #24]
 8001a00:	2303      	movs	r3, #3
 8001a02:	9309      	str	r3, [sp, #36]	; 0x24
 8001a04:	f002 f962 	bl	8003ccc <HAL_GPIO_Init>
 8001a08:	f44f 6300 	mov.w	r3, #2048	; 0x800
 8001a0c:	480b      	ldr	r0, [pc, #44]	; (8001a3c <HAL_UART_MspInit+0x154>)
 8001a0e:	a906      	add	r1, sp, #24
 8001a10:	e9cd 3406 	strd	r3, r4, [sp, #24]
 8001a14:	9408      	str	r4, [sp, #32]
 8001a16:	f002 f959 	bl	8003ccc <HAL_GPIO_Init>
 8001a1a:	2027      	movs	r0, #39	; 0x27
 8001a1c:	4622      	mov	r2, r4
 8001a1e:	2101      	movs	r1, #1
 8001a20:	f001 feac 	bl	800377c <HAL_NVIC_SetPriority>
 8001a24:	2027      	movs	r0, #39	; 0x27
 8001a26:	e799      	b.n	800195c <HAL_UART_MspInit+0x74>
 8001a28:	40013800 	.word	0x40013800
 8001a2c:	40021000 	.word	0x40021000
 8001a30:	40010800 	.word	0x40010800
 8001a34:	40004400 	.word	0x40004400
 8001a38:	40004800 	.word	0x40004800
 8001a3c:	40010c00 	.word	0x40010c00

08001a40 <CONF_init>:
 8001a40:	b508      	push	{r3, lr}
 8001a42:	4a07      	ldr	r2, [pc, #28]	; (8001a60 <CONF_init+0x20>)
 8001a44:	4b07      	ldr	r3, [pc, #28]	; (8001a64 <CONF_init+0x24>)
 8001a46:	601a      	str	r2, [r3, #0]
 8001a48:	2228      	movs	r2, #40	; 0x28
 8001a4a:	4b07      	ldr	r3, [pc, #28]	; (8001a68 <CONF_init+0x28>)
 8001a4c:	801a      	strh	r2, [r3, #0]
 8001a4e:	f002 f83f 	bl	8003ad0 <HAL_FLASH_Unlock>
 8001a52:	f000 f997 	bl	8001d84 <EE_Init>
 8001a56:	e8bd 4008 	ldmia.w	sp!, {r3, lr}
 8001a5a:	f002 b84b 	b.w	8003af4 <HAL_FLASH_Lock>
 8001a5e:	bf00      	nop
 8001a60:	2000004e 	.word	0x2000004e
 8001a64:	200004e8 	.word	0x200004e8
 8001a68:	200004e4 	.word	0x200004e4

08001a6c <CONF_load>:
 8001a6c:	b538      	push	{r3, r4, r5, lr}
 8001a6e:	4d65      	ldr	r5, [pc, #404]	; (8001c04 <CONF_load+0x198>)
 8001a70:	4c65      	ldr	r4, [pc, #404]	; (8001c08 <CONF_load+0x19c>)
 8001a72:	4629      	mov	r1, r5
 8001a74:	8820      	ldrh	r0, [r4, #0]
 8001a76:	f000 f95d 	bl	8001d34 <EE_ReadVariable>
 8001a7a:	1ca9      	adds	r1, r5, #2
 8001a7c:	8860      	ldrh	r0, [r4, #2]
 8001a7e:	f000 f959 	bl	8001d34 <EE_ReadVariable>
 8001a82:	1d29      	adds	r1, r5, #4
 8001a84:	88a0      	ldrh	r0, [r4, #4]
 8001a86:	f000 f955 	bl	8001d34 <EE_ReadVariable>
 8001a8a:	1da9      	adds	r1, r5, #6
 8001a8c:	88e0      	ldrh	r0, [r4, #6]
 8001a8e:	f000 f951 	bl	8001d34 <EE_ReadVariable>
 8001a92:	f105 0108 	add.w	r1, r5, #8
 8001a96:	8920      	ldrh	r0, [r4, #8]
 8001a98:	f000 f94c 	bl	8001d34 <EE_ReadVariable>
 8001a9c:	f105 010a 	add.w	r1, r5, #10
 8001aa0:	8960      	ldrh	r0, [r4, #10]
 8001aa2:	f000 f947 	bl	8001d34 <EE_ReadVariable>
 8001aa6:	f105 010b 	add.w	r1, r5, #11
 8001aaa:	89a0      	ldrh	r0, [r4, #12]
 8001aac:	f000 f942 	bl	8001d34 <EE_ReadVariable>
 8001ab0:	f105 010c 	add.w	r1, r5, #12
 8001ab4:	89e0      	ldrh	r0, [r4, #14]
 8001ab6:	f000 f93d 	bl	8001d34 <EE_ReadVariable>
 8001aba:	f105 010e 	add.w	r1, r5, #14
 8001abe:	8a20      	ldrh	r0, [r4, #16]
 8001ac0:	f000 f938 	bl	8001d34 <EE_ReadVariable>
 8001ac4:	f105 0110 	add.w	r1, r5, #16
 8001ac8:	8a60      	ldrh	r0, [r4, #18]
 8001aca:	f000 f933 	bl	8001d34 <EE_ReadVariable>
 8001ace:	f105 0112 	add.w	r1, r5, #18
 8001ad2:	8aa0      	ldrh	r0, [r4, #20]
 8001ad4:	f000 f92e 	bl	8001d34 <EE_ReadVariable>
 8001ad8:	f105 0114 	add.w	r1, r5, #20
 8001adc:	8ae0      	ldrh	r0, [r4, #22]
 8001ade:	f000 f929 	bl	8001d34 <EE_ReadVariable>
 8001ae2:	f105 0116 	add.w	r1, r5, #22
 8001ae6:	8b20      	ldrh	r0, [r4, #24]
 8001ae8:	f000 f924 	bl	8001d34 <EE_ReadVariable>
 8001aec:	f105 0118 	add.w	r1, r5, #24
 8001af0:	8b60      	ldrh	r0, [r4, #26]
 8001af2:	f000 f91f 	bl	8001d34 <EE_ReadVariable>
 8001af6:	f105 011a 	add.w	r1, r5, #26
 8001afa:	8ba0      	ldrh	r0, [r4, #28]
 8001afc:	f000 f91a 	bl	8001d34 <EE_ReadVariable>
 8001b00:	f105 011c 	add.w	r1, r5, #28
 8001b04:	8be0      	ldrh	r0, [r4, #30]
 8001b06:	f000 f915 	bl	8001d34 <EE_ReadVariable>
 8001b0a:	f105 011e 	add.w	r1, r5, #30
 8001b0e:	8c20      	ldrh	r0, [r4, #32]
 8001b10:	f000 f910 	bl	8001d34 <EE_ReadVariable>
 8001b14:	f105 0120 	add.w	r1, r5, #32
 8001b18:	8c60      	ldrh	r0, [r4, #34]	; 0x22
 8001b1a:	f000 f90b 	bl	8001d34 <EE_ReadVariable>
 8001b1e:	f105 0122 	add.w	r1, r5, #34	; 0x22
 8001b22:	8ca0      	ldrh	r0, [r4, #36]	; 0x24
 8001b24:	f000 f906 	bl	8001d34 <EE_ReadVariable>
 8001b28:	f105 0124 	add.w	r1, r5, #36	; 0x24
 8001b2c:	8ce0      	ldrh	r0, [r4, #38]	; 0x26
 8001b2e:	f000 f901 	bl	8001d34 <EE_ReadVariable>
 8001b32:	f105 0126 	add.w	r1, r5, #38	; 0x26
 8001b36:	8d20      	ldrh	r0, [r4, #40]	; 0x28
 8001b38:	f000 f8fc 	bl	8001d34 <EE_ReadVariable>
 8001b3c:	f105 0128 	add.w	r1, r5, #40	; 0x28
 8001b40:	8d60      	ldrh	r0, [r4, #42]	; 0x2a
 8001b42:	f000 f8f7 	bl	8001d34 <EE_ReadVariable>
 8001b46:	f105 012a 	add.w	r1, r5, #42	; 0x2a
 8001b4a:	8da0      	ldrh	r0, [r4, #44]	; 0x2c
 8001b4c:	f000 f8f2 	bl	8001d34 <EE_ReadVariable>
 8001b50:	f105 012c 	add.w	r1, r5, #44	; 0x2c
 8001b54:	8de0      	ldrh	r0, [r4, #46]	; 0x2e
 8001b56:	f000 f8ed 	bl	8001d34 <EE_ReadVariable>
 8001b5a:	f105 012e 	add.w	r1, r5, #46	; 0x2e
 8001b5e:	8e20      	ldrh	r0, [r4, #48]	; 0x30
 8001b60:	f000 f8e8 	bl	8001d34 <EE_ReadVariable>
 8001b64:	f105 0130 	add.w	r1, r5, #48	; 0x30
 8001b68:	8e60      	ldrh	r0, [r4, #50]	; 0x32
 8001b6a:	f000 f8e3 	bl	8001d34 <EE_ReadVariable>
 8001b6e:	f105 0132 	add.w	r1, r5, #50	; 0x32
 8001b72:	8ea0      	ldrh	r0, [r4, #52]	; 0x34
 8001b74:	f000 f8de 	bl	8001d34 <EE_ReadVariable>
 8001b78:	f105 0134 	add.w	r1, r5, #52	; 0x34
 8001b7c:	8ee0      	ldrh	r0, [r4, #54]	; 0x36
 8001b7e:	f000 f8d9 	bl	8001d34 <EE_ReadVariable>
 8001b82:	f105 0136 	add.w	r1, r5, #54	; 0x36
 8001b86:	8f20      	ldrh	r0, [r4, #56]	; 0x38
 8001b88:	f000 f8d4 	bl	8001d34 <EE_ReadVariable>
 8001b8c:	f105 0138 	add.w	r1, r5, #56	; 0x38
 8001b90:	8f60      	ldrh	r0, [r4, #58]	; 0x3a
 8001b92:	f000 f8cf 	bl	8001d34 <EE_ReadVariable>
 8001b96:	f105 013a 	add.w	r1, r5, #58	; 0x3a
 8001b9a:	8fa0      	ldrh	r0, [r4, #60]	; 0x3c
 8001b9c:	f000 f8ca 	bl	8001d34 <EE_ReadVariable>
 8001ba0:	f105 013b 	add.w	r1, r5, #59	; 0x3b
 8001ba4:	8fe0      	ldrh	r0, [r4, #62]	; 0x3e
 8001ba6:	f000 f8c5 	bl	8001d34 <EE_ReadVariable>
 8001baa:	f105 013c 	add.w	r1, r5, #60	; 0x3c
 8001bae:	f8b4 0040 	ldrh.w	r0, [r4, #64]	; 0x40
 8001bb2:	f000 f8bf 	bl	8001d34 <EE_ReadVariable>
 8001bb6:	f105 013d 	add.w	r1, r5, #61	; 0x3d
 8001bba:	f8b4 0042 	ldrh.w	r0, [r4, #66]	; 0x42
 8001bbe:	f000 f8b9 	bl	8001d34 <EE_ReadVariable>
 8001bc2:	f105 013e 	add.w	r1, r5, #62	; 0x3e
 8001bc6:	f8b4 0044 	ldrh.w	r0, [r4, #68]	; 0x44
 8001bca:	f000 f8b3 	bl	8001d34 <EE_ReadVariable>
 8001bce:	f105 0140 	add.w	r1, r5, #64	; 0x40
 8001bd2:	f8b4 0046 	ldrh.w	r0, [r4, #70]	; 0x46
 8001bd6:	f000 f8ad 	bl	8001d34 <EE_ReadVariable>
 8001bda:	f105 0142 	add.w	r1, r5, #66	; 0x42
 8001bde:	f8b4 0048 	ldrh.w	r0, [r4, #72]	; 0x48
 8001be2:	f000 f8a7 	bl	8001d34 <EE_ReadVariable>
 8001be6:	f105 0144 	add.w	r1, r5, #68	; 0x44
 8001bea:	f8b4 004a 	ldrh.w	r0, [r4, #74]	; 0x4a
 8001bee:	f000 f8a1 	bl	8001d34 <EE_ReadVariable>
 8001bf2:	f8b4 004c 	ldrh.w	r0, [r4, #76]	; 0x4c
 8001bf6:	f105 0146 	add.w	r1, r5, #70	; 0x46
 8001bfa:	e8bd 4038 	ldmia.w	sp!, {r3, r4, r5, lr}
 8001bfe:	f000 b899 	b.w	8001d34 <EE_ReadVariable>
 8001c02:	bf00      	nop
 8001c04:	20000004 	.word	0x20000004
 8001c08:	2000004e 	.word	0x2000004e

08001c0c <CONF_setID>:
 8001c0c:	b508      	push	{r3, lr}
 8001c0e:	1e43      	subs	r3, r0, #1
 8001c10:	b2db      	uxtb	r3, r3
 8001c12:	2bfc      	cmp	r3, #252	; 0xfc
 8001c14:	4601      	mov	r1, r0
 8001c16:	d809      	bhi.n	8001c2c <CONF_setID+0x20>
 8001c18:	4b05      	ldr	r3, [pc, #20]	; (8001c30 <CONF_setID+0x24>)
 8001c1a:	7298      	strb	r0, [r3, #10]
 8001c1c:	4b05      	ldr	r3, [pc, #20]	; (8001c34 <CONF_setID+0x28>)
 8001c1e:	8958      	ldrh	r0, [r3, #10]
 8001c20:	f000 f97e 	bl	8001f20 <EE_WriteVariable>
 8001c24:	fab0 f080 	clz	r0, r0
 8001c28:	0940      	lsrs	r0, r0, #5
 8001c2a:	bd08      	pop	{r3, pc}
 8001c2c:	2000      	movs	r0, #0
 8001c2e:	e7fc      	b.n	8001c2a <CONF_setID+0x1e>
 8001c30:	20000004 	.word	0x20000004
 8001c34:	2000004e 	.word	0x2000004e

08001c38 <EE_VerifyPageFullyErased>:
 8001c38:	f64f 71ff 	movw	r1, #65535	; 0xffff
 8001c3c:	4a06      	ldr	r2, [pc, #24]	; (8001c58 <EE_VerifyPageFullyErased+0x20>)
 8001c3e:	4290      	cmp	r0, r2
 8001c40:	d301      	bcc.n	8001c46 <EE_VerifyPageFullyErased+0xe>
 8001c42:	2001      	movs	r0, #1
 8001c44:	4770      	bx	lr
 8001c46:	8803      	ldrh	r3, [r0, #0]
 8001c48:	b29b      	uxth	r3, r3
 8001c4a:	428b      	cmp	r3, r1
 8001c4c:	d101      	bne.n	8001c52 <EE_VerifyPageFullyErased+0x1a>
 8001c4e:	3004      	adds	r0, #4
 8001c50:	e7f5      	b.n	8001c3e <EE_VerifyPageFullyErased+0x6>
 8001c52:	2000      	movs	r0, #0
 8001c54:	4770      	bx	lr
 8001c56:	bf00      	nop
 8001c58:	0800fc00 	.word	0x0800fc00

08001c5c <EE_VerifyPageFullWriteVariable>:
 8001c5c:	b538      	push	{r3, r4, r5, lr}
 8001c5e:	4b1c      	ldr	r3, [pc, #112]	; (8001cd0 <EE_VerifyPageFullWriteVariable+0x74>)
 8001c60:	4604      	mov	r4, r0
 8001c62:	8818      	ldrh	r0, [r3, #0]
 8001c64:	f503 6380 	add.w	r3, r3, #1024	; 0x400
 8001c68:	881b      	ldrh	r3, [r3, #0]
 8001c6a:	460a      	mov	r2, r1
 8001c6c:	b29b      	uxth	r3, r3
 8001c6e:	b280      	uxth	r0, r0
 8001c70:	b97b      	cbnz	r3, 8001c92 <EE_VerifyPageFullWriteVariable+0x36>
 8001c72:	f64e 63ee 	movw	r3, #61166	; 0xeeee
 8001c76:	1ac3      	subs	r3, r0, r3
 8001c78:	bf18      	it	ne
 8001c7a:	2301      	movne	r3, #1
 8001c7c:	029b      	lsls	r3, r3, #10
 8001c7e:	4815      	ldr	r0, [pc, #84]	; (8001cd4 <EE_VerifyPageFullWriteVariable+0x78>)
 8001c80:	f103 6500 	add.w	r5, r3, #134217728	; 0x8000000
 8001c84:	f505 4578 	add.w	r5, r5, #63488	; 0xf800
 8001c88:	4418      	add	r0, r3
 8001c8a:	4285      	cmp	r5, r0
 8001c8c:	d308      	bcc.n	8001ca0 <EE_VerifyPageFullWriteVariable+0x44>
 8001c8e:	2080      	movs	r0, #128	; 0x80
 8001c90:	e011      	b.n	8001cb6 <EE_VerifyPageFullWriteVariable+0x5a>
 8001c92:	b9d0      	cbnz	r0, 8001cca <EE_VerifyPageFullWriteVariable+0x6e>
 8001c94:	f64e 61ee 	movw	r1, #61166	; 0xeeee
 8001c98:	1a59      	subs	r1, r3, r1
 8001c9a:	424b      	negs	r3, r1
 8001c9c:	414b      	adcs	r3, r1
 8001c9e:	e7ed      	b.n	8001c7c <EE_VerifyPageFullWriteVariable+0x20>
 8001ca0:	682b      	ldr	r3, [r5, #0]
 8001ca2:	3301      	adds	r3, #1
 8001ca4:	d10f      	bne.n	8001cc6 <EE_VerifyPageFullWriteVariable+0x6a>
 8001ca6:	2300      	movs	r3, #0
 8001ca8:	4629      	mov	r1, r5
 8001caa:	2001      	movs	r0, #1
 8001cac:	f001 ff56 	bl	8003b5c <HAL_FLASH_Program>
 8001cb0:	4603      	mov	r3, r0
 8001cb2:	b108      	cbz	r0, 8001cb8 <EE_VerifyPageFullWriteVariable+0x5c>
 8001cb4:	b280      	uxth	r0, r0
 8001cb6:	bd38      	pop	{r3, r4, r5, pc}
 8001cb8:	4622      	mov	r2, r4
 8001cba:	2001      	movs	r0, #1
 8001cbc:	1ca9      	adds	r1, r5, #2
 8001cbe:	f001 ff4d 	bl	8003b5c <HAL_FLASH_Program>
 8001cc2:	b280      	uxth	r0, r0
 8001cc4:	e7f7      	b.n	8001cb6 <EE_VerifyPageFullWriteVariable+0x5a>
 8001cc6:	3504      	adds	r5, #4
 8001cc8:	e7df      	b.n	8001c8a <EE_VerifyPageFullWriteVariable+0x2e>
 8001cca:	20ab      	movs	r0, #171	; 0xab
 8001ccc:	e7f3      	b.n	8001cb6 <EE_VerifyPageFullWriteVariable+0x5a>
 8001cce:	bf00      	nop
 8001cd0:	0800f800 	.word	0x0800f800
 8001cd4:	0800fbfe 	.word	0x0800fbfe

08001cd8 <EE_Format>:
 8001cd8:	2300      	movs	r3, #0
 8001cda:	b510      	push	{r4, lr}
 8001cdc:	b086      	sub	sp, #24
 8001cde:	e9cd 3301 	strd	r3, r3, [sp, #4]
 8001ce2:	2301      	movs	r3, #1
 8001ce4:	4811      	ldr	r0, [pc, #68]	; (8001d2c <EE_Format+0x54>)
 8001ce6:	e9cd 0304 	strd	r0, r3, [sp, #16]
 8001cea:	f7ff ffa5 	bl	8001c38 <EE_VerifyPageFullyErased>
 8001cee:	b190      	cbz	r0, 8001d16 <EE_Format+0x3e>
 8001cf0:	2200      	movs	r2, #0
 8001cf2:	2300      	movs	r3, #0
 8001cf4:	2001      	movs	r0, #1
 8001cf6:	490d      	ldr	r1, [pc, #52]	; (8001d2c <EE_Format+0x54>)
 8001cf8:	f001 ff30 	bl	8003b5c <HAL_FLASH_Program>
 8001cfc:	4604      	mov	r4, r0
 8001cfe:	b988      	cbnz	r0, 8001d24 <EE_Format+0x4c>
 8001d00:	480b      	ldr	r0, [pc, #44]	; (8001d30 <EE_Format+0x58>)
 8001d02:	9004      	str	r0, [sp, #16]
 8001d04:	f7ff ff98 	bl	8001c38 <EE_VerifyPageFullyErased>
 8001d08:	b960      	cbnz	r0, 8001d24 <EE_Format+0x4c>
 8001d0a:	a901      	add	r1, sp, #4
 8001d0c:	a802      	add	r0, sp, #8
 8001d0e:	f001 ff89 	bl	8003c24 <HAL_FLASHEx_Erase>
 8001d12:	4604      	mov	r4, r0
 8001d14:	e006      	b.n	8001d24 <EE_Format+0x4c>
 8001d16:	a901      	add	r1, sp, #4
 8001d18:	a802      	add	r0, sp, #8
 8001d1a:	f001 ff83 	bl	8003c24 <HAL_FLASHEx_Erase>
 8001d1e:	4604      	mov	r4, r0
 8001d20:	2800      	cmp	r0, #0
 8001d22:	d0e5      	beq.n	8001cf0 <EE_Format+0x18>
 8001d24:	4620      	mov	r0, r4
 8001d26:	b006      	add	sp, #24
 8001d28:	bd10      	pop	{r4, pc}
 8001d2a:	bf00      	nop
 8001d2c:	0800f800 	.word	0x0800f800
 8001d30:	0800fc00 	.word	0x0800fc00

08001d34 <EE_ReadVariable>:
 8001d34:	4b10      	ldr	r3, [pc, #64]	; (8001d78 <EE_ReadVariable+0x44>)
 8001d36:	b510      	push	{r4, lr}
 8001d38:	881a      	ldrh	r2, [r3, #0]
 8001d3a:	f503 6380 	add.w	r3, r3, #1024	; 0x400
 8001d3e:	881b      	ldrh	r3, [r3, #0]
 8001d40:	b292      	uxth	r2, r2
 8001d42:	b29b      	uxth	r3, r3
 8001d44:	b10a      	cbz	r2, 8001d4a <EE_ReadVariable+0x16>
 8001d46:	b9ab      	cbnz	r3, 8001d74 <EE_ReadVariable+0x40>
 8001d48:	2201      	movs	r2, #1
 8001d4a:	4b0c      	ldr	r3, [pc, #48]	; (8001d7c <EE_ReadVariable+0x48>)
 8001d4c:	4c0c      	ldr	r4, [pc, #48]	; (8001d80 <EE_ReadVariable+0x4c>)
 8001d4e:	eb03 2382 	add.w	r3, r3, r2, lsl #10
 8001d52:	eb04 2282 	add.w	r2, r4, r2, lsl #10
 8001d56:	429a      	cmp	r2, r3
 8001d58:	d301      	bcc.n	8001d5e <EE_ReadVariable+0x2a>
 8001d5a:	2001      	movs	r0, #1
 8001d5c:	e007      	b.n	8001d6e <EE_ReadVariable+0x3a>
 8001d5e:	881c      	ldrh	r4, [r3, #0]
 8001d60:	b2a4      	uxth	r4, r4
 8001d62:	4284      	cmp	r4, r0
 8001d64:	d104      	bne.n	8001d70 <EE_ReadVariable+0x3c>
 8001d66:	2000      	movs	r0, #0
 8001d68:	f833 3c02 	ldrh.w	r3, [r3, #-2]
 8001d6c:	800b      	strh	r3, [r1, #0]
 8001d6e:	bd10      	pop	{r4, pc}
 8001d70:	3b04      	subs	r3, #4
 8001d72:	e7f0      	b.n	8001d56 <EE_ReadVariable+0x22>
 8001d74:	20ab      	movs	r0, #171	; 0xab
 8001d76:	e7fa      	b.n	8001d6e <EE_ReadVariable+0x3a>
 8001d78:	0800f800 	.word	0x0800f800
 8001d7c:	0800fbfe 	.word	0x0800fbfe
 8001d80:	0800f802 	.word	0x0800f802

08001d84 <EE_Init>:
 8001d84:	2300      	movs	r3, #0
 8001d86:	e92d 47f0 	stmdb	sp!, {r4, r5, r6, r7, r8, r9, sl, lr}
 8001d8a:	b086      	sub	sp, #24
 8001d8c:	e9cd 3301 	strd	r3, r3, [sp, #4]
 8001d90:	2301      	movs	r3, #1
 8001d92:	f64e 61ee 	movw	r1, #61166	; 0xeeee
 8001d96:	4e5d      	ldr	r6, [pc, #372]	; (8001f0c <EE_Init+0x188>)
 8001d98:	4d5d      	ldr	r5, [pc, #372]	; (8001f10 <EE_Init+0x18c>)
 8001d9a:	8834      	ldrh	r4, [r6, #0]
 8001d9c:	e9cd 6304 	strd	r6, r3, [sp, #16]
 8001da0:	b2a4      	uxth	r4, r4
 8001da2:	882b      	ldrh	r3, [r5, #0]
 8001da4:	428c      	cmp	r4, r1
 8001da6:	b29b      	uxth	r3, r3
 8001da8:	d02a      	beq.n	8001e00 <EE_Init+0x7c>
 8001daa:	f64f 72ff 	movw	r2, #65535	; 0xffff
 8001dae:	4294      	cmp	r4, r2
 8001db0:	d005      	beq.n	8001dbe <EE_Init+0x3a>
 8001db2:	b90c      	cbnz	r4, 8001db8 <EE_Init+0x34>
 8001db4:	2b00      	cmp	r3, #0
 8001db6:	d16d      	bne.n	8001e94 <EE_Init+0x110>
 8001db8:	f7ff ff8e 	bl	8001cd8 <EE_Format>
 8001dbc:	e01d      	b.n	8001dfa <EE_Init+0x76>
 8001dbe:	b94b      	cbnz	r3, 8001dd4 <EE_Init+0x50>
 8001dc0:	4630      	mov	r0, r6
 8001dc2:	f7ff ff39 	bl	8001c38 <EE_VerifyPageFullyErased>
 8001dc6:	2800      	cmp	r0, #0
 8001dc8:	f000 809a 	beq.w	8001f00 <EE_Init+0x17c>
 8001dcc:	2000      	movs	r0, #0
 8001dce:	b006      	add	sp, #24
 8001dd0:	e8bd 87f0 	ldmia.w	sp!, {r4, r5, r6, r7, r8, r9, sl, pc}
 8001dd4:	428b      	cmp	r3, r1
 8001dd6:	d1ef      	bne.n	8001db8 <EE_Init+0x34>
 8001dd8:	4630      	mov	r0, r6
 8001dda:	f7ff ff2d 	bl	8001c38 <EE_VerifyPageFullyErased>
 8001dde:	b930      	cbnz	r0, 8001dee <EE_Init+0x6a>
 8001de0:	a901      	add	r1, sp, #4
 8001de2:	a802      	add	r0, sp, #8
 8001de4:	f001 ff1e 	bl	8003c24 <HAL_FLASHEx_Erase>
 8001de8:	b108      	cbz	r0, 8001dee <EE_Init+0x6a>
 8001dea:	b280      	uxth	r0, r0
 8001dec:	e7ef      	b.n	8001dce <EE_Init+0x4a>
 8001dee:	2200      	movs	r2, #0
 8001df0:	2300      	movs	r3, #0
 8001df2:	4947      	ldr	r1, [pc, #284]	; (8001f10 <EE_Init+0x18c>)
 8001df4:	2001      	movs	r0, #1
 8001df6:	f001 feb1 	bl	8003b5c <HAL_FLASH_Program>
 8001dfa:	2800      	cmp	r0, #0
 8001dfc:	d0e6      	beq.n	8001dcc <EE_Init+0x48>
 8001dfe:	e7f4      	b.n	8001dea <EE_Init+0x66>
 8001e00:	2b00      	cmp	r3, #0
 8001e02:	d03f      	beq.n	8001e84 <EE_Init+0x100>
 8001e04:	f64f 72ff 	movw	r2, #65535	; 0xffff
 8001e08:	4293      	cmp	r3, r2
 8001e0a:	d1d5      	bne.n	8001db8 <EE_Init+0x34>
 8001e0c:	4628      	mov	r0, r5
 8001e0e:	9504      	str	r5, [sp, #16]
 8001e10:	f7ff ff12 	bl	8001c38 <EE_VerifyPageFullyErased>
 8001e14:	b928      	cbnz	r0, 8001e22 <EE_Init+0x9e>
 8001e16:	a901      	add	r1, sp, #4
 8001e18:	a802      	add	r0, sp, #8
 8001e1a:	f001 ff03 	bl	8003c24 <HAL_FLASHEx_Erase>
 8001e1e:	2800      	cmp	r0, #0
 8001e20:	d1e3      	bne.n	8001dea <EE_Init+0x66>
 8001e22:	2200      	movs	r2, #0
 8001e24:	2300      	movs	r3, #0
 8001e26:	4939      	ldr	r1, [pc, #228]	; (8001f0c <EE_Init+0x188>)
 8001e28:	e7e4      	b.n	8001df4 <EE_Init+0x70>
 8001e2a:	f8d9 a000 	ldr.w	sl, [r9]
 8001e2e:	b2a5      	uxth	r5, r4
 8001e30:	88f3      	ldrh	r3, [r6, #6]
 8001e32:	f83a 0015 	ldrh.w	r0, [sl, r5, lsl #1]
 8001e36:	b29b      	uxth	r3, r3
 8001e38:	4283      	cmp	r3, r0
 8001e3a:	bf08      	it	eq
 8001e3c:	b227      	sxtheq	r7, r4
 8001e3e:	42bd      	cmp	r5, r7
 8001e40:	d113      	bne.n	8001e6a <EE_Init+0xe6>
 8001e42:	3401      	adds	r4, #1
 8001e44:	f8b8 2000 	ldrh.w	r2, [r8]
 8001e48:	b2a3      	uxth	r3, r4
 8001e4a:	429a      	cmp	r2, r3
 8001e4c:	d8ed      	bhi.n	8001e2a <EE_Init+0xa6>
 8001e4e:	2200      	movs	r2, #0
 8001e50:	2300      	movs	r3, #0
 8001e52:	2001      	movs	r0, #1
 8001e54:	492d      	ldr	r1, [pc, #180]	; (8001f0c <EE_Init+0x188>)
 8001e56:	f001 fe81 	bl	8003b5c <HAL_FLASH_Program>
 8001e5a:	2800      	cmp	r0, #0
 8001e5c:	d1c5      	bne.n	8001dea <EE_Init+0x66>
 8001e5e:	9002      	str	r0, [sp, #8]
 8001e60:	482b      	ldr	r0, [pc, #172]	; (8001f10 <EE_Init+0x18c>)
 8001e62:	2301      	movs	r3, #1
 8001e64:	9004      	str	r0, [sp, #16]
 8001e66:	9305      	str	r3, [sp, #20]
 8001e68:	e7ab      	b.n	8001dc2 <EE_Init+0x3e>
 8001e6a:	492a      	ldr	r1, [pc, #168]	; (8001f14 <EE_Init+0x190>)
 8001e6c:	f7ff ff62 	bl	8001d34 <EE_ReadVariable>
 8001e70:	2801      	cmp	r0, #1
 8001e72:	d0e6      	beq.n	8001e42 <EE_Init+0xbe>
 8001e74:	8809      	ldrh	r1, [r1, #0]
 8001e76:	f83a 0015 	ldrh.w	r0, [sl, r5, lsl #1]
 8001e7a:	f7ff feef 	bl	8001c5c <EE_VerifyPageFullWriteVariable>
 8001e7e:	2800      	cmp	r0, #0
 8001e80:	d0df      	beq.n	8001e42 <EE_Init+0xbe>
 8001e82:	e7a4      	b.n	8001dce <EE_Init+0x4a>
 8001e84:	461c      	mov	r4, r3
 8001e86:	f04f 37ff 	mov.w	r7, #4294967295
 8001e8a:	f8df 808c 	ldr.w	r8, [pc, #140]	; 8001f18 <EE_Init+0x194>
 8001e8e:	f8df 908c 	ldr.w	r9, [pc, #140]	; 8001f1c <EE_Init+0x198>
 8001e92:	e7d7      	b.n	8001e44 <EE_Init+0xc0>
 8001e94:	4293      	cmp	r3, r2
 8001e96:	d12c      	bne.n	8001ef2 <EE_Init+0x16e>
 8001e98:	4628      	mov	r0, r5
 8001e9a:	9504      	str	r5, [sp, #16]
 8001e9c:	e791      	b.n	8001dc2 <EE_Init+0x3e>
 8001e9e:	f8d9 a000 	ldr.w	sl, [r9]
 8001ea2:	b2a6      	uxth	r6, r4
 8001ea4:	88eb      	ldrh	r3, [r5, #6]
 8001ea6:	f83a 0016 	ldrh.w	r0, [sl, r6, lsl #1]
 8001eaa:	b29b      	uxth	r3, r3
 8001eac:	4283      	cmp	r3, r0
 8001eae:	bf08      	it	eq
 8001eb0:	b227      	sxtheq	r7, r4
 8001eb2:	42be      	cmp	r6, r7
 8001eb4:	d110      	bne.n	8001ed8 <EE_Init+0x154>
 8001eb6:	3401      	adds	r4, #1
 8001eb8:	f8b8 2000 	ldrh.w	r2, [r8]
 8001ebc:	b2a3      	uxth	r3, r4
 8001ebe:	429a      	cmp	r2, r3
 8001ec0:	d8ed      	bhi.n	8001e9e <EE_Init+0x11a>
 8001ec2:	2200      	movs	r2, #0
 8001ec4:	2300      	movs	r3, #0
 8001ec6:	2001      	movs	r0, #1
 8001ec8:	4911      	ldr	r1, [pc, #68]	; (8001f10 <EE_Init+0x18c>)
 8001eca:	f001 fe47 	bl	8003b5c <HAL_FLASH_Program>
 8001ece:	2800      	cmp	r0, #0
 8001ed0:	d18b      	bne.n	8001dea <EE_Init+0x66>
 8001ed2:	9002      	str	r0, [sp, #8]
 8001ed4:	480d      	ldr	r0, [pc, #52]	; (8001f0c <EE_Init+0x188>)
 8001ed6:	e7c4      	b.n	8001e62 <EE_Init+0xde>
 8001ed8:	490e      	ldr	r1, [pc, #56]	; (8001f14 <EE_Init+0x190>)
 8001eda:	f7ff ff2b 	bl	8001d34 <EE_ReadVariable>
 8001ede:	2801      	cmp	r0, #1
 8001ee0:	d0e9      	beq.n	8001eb6 <EE_Init+0x132>
 8001ee2:	8809      	ldrh	r1, [r1, #0]
 8001ee4:	f83a 0016 	ldrh.w	r0, [sl, r6, lsl #1]
 8001ee8:	f7ff feb8 	bl	8001c5c <EE_VerifyPageFullWriteVariable>
 8001eec:	2800      	cmp	r0, #0
 8001eee:	d0e2      	beq.n	8001eb6 <EE_Init+0x132>
 8001ef0:	e76d      	b.n	8001dce <EE_Init+0x4a>
 8001ef2:	f04f 37ff 	mov.w	r7, #4294967295
 8001ef6:	f8df 8020 	ldr.w	r8, [pc, #32]	; 8001f18 <EE_Init+0x194>
 8001efa:	f8df 9020 	ldr.w	r9, [pc, #32]	; 8001f1c <EE_Init+0x198>
 8001efe:	e7db      	b.n	8001eb8 <EE_Init+0x134>
 8001f00:	a901      	add	r1, sp, #4
 8001f02:	a802      	add	r0, sp, #8
 8001f04:	f001 fe8e 	bl	8003c24 <HAL_FLASHEx_Erase>
 8001f08:	e777      	b.n	8001dfa <EE_Init+0x76>
 8001f0a:	bf00      	nop
 8001f0c:	0800f800 	.word	0x0800f800
 8001f10:	0800fc00 	.word	0x0800fc00
 8001f14:	200004ec 	.word	0x200004ec
 8001f18:	200004e4 	.word	0x200004e4
 8001f1c:	200004e8 	.word	0x200004e8

08001f20 <EE_WriteVariable>:
 8001f20:	e92d 4ff0 	stmdb	sp!, {r4, r5, r6, r7, r8, r9, sl, fp, lr}
 8001f24:	4606      	mov	r6, r0
 8001f26:	4688      	mov	r8, r1
 8001f28:	b089      	sub	sp, #36	; 0x24
 8001f2a:	f001 fdd1 	bl	8003ad0 <HAL_FLASH_Unlock>
 8001f2e:	4641      	mov	r1, r8
 8001f30:	4630      	mov	r0, r6
 8001f32:	f7ff fe93 	bl	8001c5c <EE_VerifyPageFullWriteVariable>
 8001f36:	2880      	cmp	r0, #128	; 0x80
 8001f38:	4604      	mov	r4, r0
 8001f3a:	d13c      	bne.n	8001fb6 <EE_WriteVariable+0x96>
 8001f3c:	2300      	movs	r3, #0
 8001f3e:	9303      	str	r3, [sp, #12]
 8001f40:	4b2f      	ldr	r3, [pc, #188]	; (8002000 <EE_WriteVariable+0xe0>)
 8001f42:	4d30      	ldr	r5, [pc, #192]	; (8002004 <EE_WriteVariable+0xe4>)
 8001f44:	8819      	ldrh	r1, [r3, #0]
 8001f46:	882a      	ldrh	r2, [r5, #0]
 8001f48:	b289      	uxth	r1, r1
 8001f4a:	b292      	uxth	r2, r2
 8001f4c:	b169      	cbz	r1, 8001f6a <EE_WriteVariable+0x4a>
 8001f4e:	2a00      	cmp	r2, #0
 8001f50:	d153      	bne.n	8001ffa <EE_WriteVariable+0xda>
 8001f52:	462f      	mov	r7, r5
 8001f54:	461d      	mov	r5, r3
 8001f56:	f64e 62ee 	movw	r2, #61166	; 0xeeee
 8001f5a:	2300      	movs	r3, #0
 8001f5c:	4629      	mov	r1, r5
 8001f5e:	2001      	movs	r0, #1
 8001f60:	f001 fdfc 	bl	8003b5c <HAL_FLASH_Program>
 8001f64:	b118      	cbz	r0, 8001f6e <EE_WriteVariable+0x4e>
 8001f66:	b284      	uxth	r4, r0
 8001f68:	e025      	b.n	8001fb6 <EE_WriteVariable+0x96>
 8001f6a:	461f      	mov	r7, r3
 8001f6c:	e7f3      	b.n	8001f56 <EE_WriteVariable+0x36>
 8001f6e:	4641      	mov	r1, r8
 8001f70:	4630      	mov	r0, r6
 8001f72:	f7ff fe73 	bl	8001c5c <EE_VerifyPageFullWriteVariable>
 8001f76:	4604      	mov	r4, r0
 8001f78:	b9e8      	cbnz	r0, 8001fb6 <EE_WriteVariable+0x96>
 8001f7a:	4683      	mov	fp, r0
 8001f7c:	f8df 9088 	ldr.w	r9, [pc, #136]	; 8002008 <EE_WriteVariable+0xe8>
 8001f80:	f8df a088 	ldr.w	sl, [pc, #136]	; 800200c <EE_WriteVariable+0xec>
 8001f84:	4b22      	ldr	r3, [pc, #136]	; (8002010 <EE_WriteVariable+0xf0>)
 8001f86:	881a      	ldrh	r2, [r3, #0]
 8001f88:	fa1f f38b 	uxth.w	r3, fp
 8001f8c:	429a      	cmp	r2, r3
 8001f8e:	d818      	bhi.n	8001fc2 <EE_WriteVariable+0xa2>
 8001f90:	2300      	movs	r3, #0
 8001f92:	2601      	movs	r6, #1
 8001f94:	a903      	add	r1, sp, #12
 8001f96:	a804      	add	r0, sp, #16
 8001f98:	9304      	str	r3, [sp, #16]
 8001f9a:	9706      	str	r7, [sp, #24]
 8001f9c:	9607      	str	r6, [sp, #28]
 8001f9e:	f001 fe41 	bl	8003c24 <HAL_FLASHEx_Erase>
 8001fa2:	2800      	cmp	r0, #0
 8001fa4:	d1df      	bne.n	8001f66 <EE_WriteVariable+0x46>
 8001fa6:	2200      	movs	r2, #0
 8001fa8:	2300      	movs	r3, #0
 8001faa:	4629      	mov	r1, r5
 8001fac:	4630      	mov	r0, r6
 8001fae:	f001 fdd5 	bl	8003b5c <HAL_FLASH_Program>
 8001fb2:	2800      	cmp	r0, #0
 8001fb4:	d1d7      	bne.n	8001f66 <EE_WriteVariable+0x46>
 8001fb6:	f001 fd9d 	bl	8003af4 <HAL_FLASH_Lock>
 8001fba:	4620      	mov	r0, r4
 8001fbc:	b009      	add	sp, #36	; 0x24
 8001fbe:	e8bd 8ff0 	ldmia.w	sp!, {r4, r5, r6, r7, r8, r9, sl, fp, pc}
 8001fc2:	f8d9 3000 	ldr.w	r3, [r9]
 8001fc6:	fa1f f88b 	uxth.w	r8, fp
 8001fca:	f833 0018 	ldrh.w	r0, [r3, r8, lsl #1]
 8001fce:	4286      	cmp	r6, r0
 8001fd0:	d102      	bne.n	8001fd8 <EE_WriteVariable+0xb8>
 8001fd2:	f10b 0b01 	add.w	fp, fp, #1
 8001fd6:	e7d5      	b.n	8001f84 <EE_WriteVariable+0x64>
 8001fd8:	490c      	ldr	r1, [pc, #48]	; (800200c <EE_WriteVariable+0xec>)
 8001fda:	9301      	str	r3, [sp, #4]
 8001fdc:	f7ff feaa 	bl	8001d34 <EE_ReadVariable>
 8001fe0:	2801      	cmp	r0, #1
 8001fe2:	d0f6      	beq.n	8001fd2 <EE_WriteVariable+0xb2>
 8001fe4:	9b01      	ldr	r3, [sp, #4]
 8001fe6:	f8ba 1000 	ldrh.w	r1, [sl]
 8001fea:	f833 0018 	ldrh.w	r0, [r3, r8, lsl #1]
 8001fee:	f7ff fe35 	bl	8001c5c <EE_VerifyPageFullWriteVariable>
 8001ff2:	2800      	cmp	r0, #0
 8001ff4:	d0ed      	beq.n	8001fd2 <EE_WriteVariable+0xb2>
 8001ff6:	4604      	mov	r4, r0
 8001ff8:	e7dd      	b.n	8001fb6 <EE_WriteVariable+0x96>
 8001ffa:	24ab      	movs	r4, #171	; 0xab
 8001ffc:	e7db      	b.n	8001fb6 <EE_WriteVariable+0x96>
 8001ffe:	bf00      	nop
 8002000:	0800f800 	.word	0x0800f800
 8002004:	0800fc00 	.word	0x0800fc00
 8002008:	200004e8 	.word	0x200004e8
 800200c:	200004ec 	.word	0x200004ec
 8002010:	200004e4 	.word	0x200004e4

08002014 <CO_fifo_init>:
 8002014:	b138      	cbz	r0, 8002026 <CO_fifo_init+0x12>
 8002016:	b131      	cbz	r1, 8002026 <CO_fifo_init+0x12>
 8002018:	2a01      	cmp	r2, #1
 800201a:	bf82      	ittt	hi
 800201c:	2300      	movhi	r3, #0
 800201e:	e9c0 1200 	strdhi	r1, r2, [r0]
 8002022:	e9c0 3302 	strdhi	r3, r3, [r0, #8]
 8002026:	4770      	bx	lr

08002028 <CO_fifo_write>:
 8002028:	b5f0      	push	{r4, r5, r6, r7, lr}
 800202a:	b140      	cbz	r0, 800203e <CO_fifo_write+0x16>
 800202c:	b311      	cbz	r1, 8002074 <CO_fifo_write+0x4c>
 800202e:	6883      	ldr	r3, [r0, #8]
 8002030:	6804      	ldr	r4, [r0, #0]
 8002032:	2700      	movs	r7, #0
 8002034:	441c      	add	r4, r3
 8002036:	4613      	mov	r3, r2
 8002038:	1e4d      	subs	r5, r1, #1
 800203a:	b90b      	cbnz	r3, 8002040 <CO_fifo_write+0x18>
 800203c:	1ad0      	subs	r0, r2, r3
 800203e:	bdf0      	pop	{r4, r5, r6, r7, pc}
 8002040:	6881      	ldr	r1, [r0, #8]
 8002042:	68c6      	ldr	r6, [r0, #12]
 8002044:	3101      	adds	r1, #1
 8002046:	428e      	cmp	r6, r1
 8002048:	d0f8      	beq.n	800203c <CO_fifo_write+0x14>
 800204a:	f8d0 c004 	ldr.w	ip, [r0, #4]
 800204e:	458c      	cmp	ip, r1
 8002050:	d101      	bne.n	8002056 <CO_fifo_write+0x2e>
 8002052:	2e00      	cmp	r6, #0
 8002054:	d0f2      	beq.n	800203c <CO_fifo_write+0x14>
 8002056:	f815 6f01 	ldrb.w	r6, [r5, #1]!
 800205a:	3b01      	subs	r3, #1
 800205c:	7026      	strb	r6, [r4, #0]
 800205e:	6846      	ldr	r6, [r0, #4]
 8002060:	428e      	cmp	r6, r1
 8002062:	bf15      	itete	ne
 8002064:	6881      	ldrne	r1, [r0, #8]
 8002066:	6804      	ldreq	r4, [r0, #0]
 8002068:	3101      	addne	r1, #1
 800206a:	6087      	streq	r7, [r0, #8]
 800206c:	bf1c      	itt	ne
 800206e:	6081      	strne	r1, [r0, #8]
 8002070:	3401      	addne	r4, #1
 8002072:	e7e2      	b.n	800203a <CO_fifo_write+0x12>
 8002074:	4608      	mov	r0, r1
 8002076:	e7e2      	b.n	800203e <CO_fifo_write+0x16>

08002078 <CO_fifo_read>:
 8002078:	b5f0      	push	{r4, r5, r6, r7, lr}
 800207a:	4604      	mov	r4, r0
 800207c:	4608      	mov	r0, r1
 800207e:	b10b      	cbz	r3, 8002084 <CO_fifo_read+0xc>
 8002080:	2100      	movs	r1, #0
 8002082:	7019      	strb	r1, [r3, #0]
 8002084:	b1f4      	cbz	r4, 80020c4 <CO_fifo_read+0x4c>
 8002086:	b148      	cbz	r0, 800209c <CO_fifo_read+0x24>
 8002088:	e9d4 3102 	ldrd	r3, r1, [r4, #8]
 800208c:	4299      	cmp	r1, r3
 800208e:	d019      	beq.n	80020c4 <CO_fifo_read+0x4c>
 8002090:	6823      	ldr	r3, [r4, #0]
 8002092:	2600      	movs	r6, #0
 8002094:	440b      	add	r3, r1
 8002096:	4611      	mov	r1, r2
 8002098:	b909      	cbnz	r1, 800209e <CO_fifo_read+0x26>
 800209a:	1a50      	subs	r0, r2, r1
 800209c:	bdf0      	pop	{r4, r5, r6, r7, pc}
 800209e:	e9d4 5702 	ldrd	r5, r7, [r4, #8]
 80020a2:	42af      	cmp	r7, r5
 80020a4:	f893 c000 	ldrb.w	ip, [r3]
 80020a8:	d0f7      	beq.n	800209a <CO_fifo_read+0x22>
 80020aa:	f800 cb01 	strb.w	ip, [r0], #1
 80020ae:	68e5      	ldr	r5, [r4, #12]
 80020b0:	6867      	ldr	r7, [r4, #4]
 80020b2:	3501      	adds	r5, #1
 80020b4:	42bd      	cmp	r5, r7
 80020b6:	60e5      	str	r5, [r4, #12]
 80020b8:	bf06      	itte	eq
 80020ba:	6823      	ldreq	r3, [r4, #0]
 80020bc:	60e6      	streq	r6, [r4, #12]
 80020be:	3301      	addne	r3, #1
 80020c0:	3901      	subs	r1, #1
 80020c2:	e7e9      	b.n	8002098 <CO_fifo_read+0x20>
 80020c4:	2000      	movs	r0, #0
 80020c6:	e7e9      	b.n	800209c <CO_fifo_read+0x24>

080020c8 <prv_send_can_message>:
 80020c8:	b537      	push	{r0, r1, r2, r4, r5, lr}
 80020ca:	4d0f      	ldr	r5, [pc, #60]	; (8002108 <prv_send_can_message+0x40>)
 80020cc:	4604      	mov	r4, r0
 80020ce:	6828      	ldr	r0, [r5, #0]
 80020d0:	f001 f999 	bl	8003406 <HAL_CAN_GetTxMailboxesFreeLevel>
 80020d4:	2300      	movs	r3, #0
 80020d6:	b1a8      	cbz	r0, 8002104 <prv_send_can_message+0x3c>
 80020d8:	4622      	mov	r2, r4
 80020da:	490c      	ldr	r1, [pc, #48]	; (800210c <prv_send_can_message+0x44>)
 80020dc:	e9c1 3301 	strd	r3, r3, [r1, #4]
 80020e0:	7923      	ldrb	r3, [r4, #4]
 80020e2:	610b      	str	r3, [r1, #16]
 80020e4:	f852 3b05 	ldr.w	r3, [r2], #5
 80020e8:	f3c3 000a 	ubfx	r0, r3, #0, #11
 80020ec:	0b9b      	lsrs	r3, r3, #14
 80020ee:	f003 0302 	and.w	r3, r3, #2
 80020f2:	6008      	str	r0, [r1, #0]
 80020f4:	60cb      	str	r3, [r1, #12]
 80020f6:	6828      	ldr	r0, [r5, #0]
 80020f8:	ab01      	add	r3, sp, #4
 80020fa:	f001 f938 	bl	800336e <HAL_CAN_AddTxMessage>
 80020fe:	fab0 f080 	clz	r0, r0
 8002102:	0940      	lsrs	r0, r0, #5
 8002104:	b003      	add	sp, #12
 8002106:	bd30      	pop	{r4, r5, pc}
 8002108:	2000061c 	.word	0x2000061c
 800210c:	200006a8 	.word	0x200006a8

08002110 <prv_read_can_received_msg.constprop.0>:
 8002110:	b51f      	push	{r0, r1, r2, r3, r4, lr}
 8002112:	4c11      	ldr	r4, [pc, #68]	; (8002158 <prv_read_can_received_msg.constprop.0+0x48>)
 8002114:	f10d 0305 	add.w	r3, sp, #5
 8002118:	4622      	mov	r2, r4
 800211a:	f001 f988 	bl	800342e <HAL_CAN_GetRxMessage>
 800211e:	4603      	mov	r3, r0
 8002120:	b9c0      	cbnz	r0, 8002154 <prv_read_can_received_msg.constprop.0+0x44>
 8002122:	4a0e      	ldr	r2, [pc, #56]	; (800215c <prv_read_can_received_msg.constprop.0+0x4c>)
 8002124:	7a91      	ldrb	r1, [r2, #10]
 8002126:	6822      	ldr	r2, [r4, #0]
 8002128:	428a      	cmp	r2, r1
 800212a:	d10e      	bne.n	800214a <prv_read_can_received_msg.constprop.0+0x3a>
 800212c:	68e1      	ldr	r1, [r4, #12]
 800212e:	1e88      	subs	r0, r1, #2
 8002130:	4241      	negs	r1, r0
 8002132:	4141      	adcs	r1, r0
 8002134:	ea42 32c1 	orr.w	r2, r2, r1, lsl #15
 8002138:	9200      	str	r2, [sp, #0]
 800213a:	6922      	ldr	r2, [r4, #16]
 800213c:	4669      	mov	r1, sp
 800213e:	f88d 2004 	strb.w	r2, [sp, #4]
 8002142:	4807      	ldr	r0, [pc, #28]	; (8002160 <prv_read_can_received_msg.constprop.0+0x50>)
 8002144:	2210      	movs	r2, #16
 8002146:	f7ff ff6f 	bl	8002028 <CO_fifo_write>
 800214a:	f44f 5100 	mov.w	r1, #8192	; 0x2000
 800214e:	4805      	ldr	r0, [pc, #20]	; (8002164 <prv_read_can_received_msg.constprop.0+0x54>)
 8002150:	f001 fea1 	bl	8003e96 <HAL_GPIO_TogglePin>
 8002154:	b004      	add	sp, #16
 8002156:	bd10      	pop	{r4, pc}
 8002158:	2000068c 	.word	0x2000068c
 800215c:	20000004 	.word	0x20000004
 8002160:	2000062c 	.word	0x2000062c
 8002164:	40011000 	.word	0x40011000

08002168 <CANsetNormalMode>:
 8002168:	b508      	push	{r3, lr}
 800216a:	b130      	cbz	r0, 800217a <CANsetNormalMode+0x12>
 800216c:	f001 f8d1 	bl	8003312 <HAL_CAN_Start>
 8002170:	b918      	cbnz	r0, 800217a <CANsetNormalMode+0x12>
 8002172:	2201      	movs	r2, #1
 8002174:	4b01      	ldr	r3, [pc, #4]	; (800217c <CANsetNormalMode+0x14>)
 8002176:	f883 206c 	strb.w	r2, [r3, #108]	; 0x6c
 800217a:	bd08      	pop	{r3, pc}
 800217c:	2000061c 	.word	0x2000061c

08002180 <CANmodule_init>:
 8002180:	b570      	push	{r4, r5, r6, lr}
 8002182:	2400      	movs	r4, #0
 8002184:	4d20      	ldr	r5, [pc, #128]	; (8002208 <CANmodule_init+0x88>)
 8002186:	b08a      	sub	sp, #40	; 0x28
 8002188:	4606      	mov	r6, r0
 800218a:	f44f 7296 	mov.w	r2, #300	; 0x12c
 800218e:	491f      	ldr	r1, [pc, #124]	; (800220c <CANmodule_init+0x8c>)
 8002190:	6028      	str	r0, [r5, #0]
 8002192:	f105 0010 	add.w	r0, r5, #16
 8002196:	606c      	str	r4, [r5, #4]
 8002198:	f885 406c 	strb.w	r4, [r5, #108]	; 0x6c
 800219c:	f7ff ff3a 	bl	8002014 <CO_fifo_init>
 80021a0:	2301      	movs	r3, #1
 80021a2:	2204      	movs	r2, #4
 80021a4:	f885 4035 	strb.w	r4, [r5, #53]	; 0x35
 80021a8:	f885 306d 	strb.w	r3, [r5, #109]	; 0x6d
 80021ac:	f885 4045 	strb.w	r4, [r5, #69]	; 0x45
 80021b0:	f885 406e 	strb.w	r4, [r5, #110]	; 0x6e
 80021b4:	f885 4055 	strb.w	r4, [r5, #85]	; 0x55
 80021b8:	f885 4065 	strb.w	r4, [r5, #101]	; 0x65
 80021bc:	4914      	ldr	r1, [pc, #80]	; (8002210 <CANmodule_init+0x90>)
 80021be:	84aa      	strh	r2, [r5, #36]	; 0x24
 80021c0:	6832      	ldr	r2, [r6, #0]
 80021c2:	9307      	str	r3, [sp, #28]
 80021c4:	428a      	cmp	r2, r1
 80021c6:	bf14      	ite	ne
 80021c8:	220e      	movne	r2, #14
 80021ca:	4622      	moveq	r2, r4
 80021cc:	9308      	str	r3, [sp, #32]
 80021ce:	230e      	movs	r3, #14
 80021d0:	4669      	mov	r1, sp
 80021d2:	4630      	mov	r0, r6
 80021d4:	e9cd 2405 	strd	r2, r4, [sp, #20]
 80021d8:	e9cd 4400 	strd	r4, r4, [sp]
 80021dc:	e9cd 4402 	strd	r4, r4, [sp, #8]
 80021e0:	81ac      	strh	r4, [r5, #12]
 80021e2:	60ac      	str	r4, [r5, #8]
 80021e4:	9404      	str	r4, [sp, #16]
 80021e6:	9309      	str	r3, [sp, #36]	; 0x24
 80021e8:	f001 f823 	bl	8003232 <HAL_CAN_ConfigFilter>
 80021ec:	b948      	cbnz	r0, 8002202 <CANmodule_init+0x82>
 80021ee:	2113      	movs	r1, #19
 80021f0:	4630      	mov	r0, r6
 80021f2:	f001 f99a 	bl	800352a <HAL_CAN_ActivateNotification>
 80021f6:	1b00      	subs	r0, r0, r4
 80021f8:	bf18      	it	ne
 80021fa:	2001      	movne	r0, #1
 80021fc:	4240      	negs	r0, r0
 80021fe:	b00a      	add	sp, #40	; 0x28
 8002200:	bd70      	pop	{r4, r5, r6, pc}
 8002202:	f04f 30ff 	mov.w	r0, #4294967295
 8002206:	e7fa      	b.n	80021fe <CANmodule_init+0x7e>
 8002208:	2000061c 	.word	0x2000061c
 800220c:	200004ee 	.word	0x200004ee
 8002210:	40006400 	.word	0x40006400

08002214 <CANsend>:
 8002214:	b570      	push	{r4, r5, r6, lr}
 8002216:	7b43      	ldrb	r3, [r0, #13]
 8002218:	4605      	mov	r5, r0
 800221a:	4c11      	ldr	r4, [pc, #68]	; (8002260 <CANsend+0x4c>)
 800221c:	f003 06ff 	and.w	r6, r3, #255	; 0xff
 8002220:	b143      	cbz	r3, 8002234 <CANsend+0x20>
 8002222:	f894 306d 	ldrb.w	r3, [r4, #109]	; 0x6d
 8002226:	b91b      	cbnz	r3, 8002230 <CANsend+0x1c>
 8002228:	6863      	ldr	r3, [r4, #4]
 800222a:	f043 0308 	orr.w	r3, r3, #8
 800222e:	6063      	str	r3, [r4, #4]
 8002230:	f06f 0608 	mvn.w	r6, #8
 8002234:	f3ef 8310 	mrs	r3, PRIMASK
 8002238:	66a3      	str	r3, [r4, #104]	; 0x68
 800223a:	b672      	cpsid	i
 800223c:	4628      	mov	r0, r5
 800223e:	f7ff ff43 	bl	80020c8 <prv_send_can_message>
 8002242:	b138      	cbz	r0, 8002254 <CANsend+0x40>
 8002244:	7bab      	ldrb	r3, [r5, #14]
 8002246:	f884 306e 	strb.w	r3, [r4, #110]	; 0x6e
 800224a:	6ea3      	ldr	r3, [r4, #104]	; 0x68
 800224c:	f383 8810 	msr	PRIMASK, r3
 8002250:	4630      	mov	r0, r6
 8002252:	bd70      	pop	{r4, r5, r6, pc}
 8002254:	2301      	movs	r3, #1
 8002256:	736b      	strb	r3, [r5, #13]
 8002258:	89a3      	ldrh	r3, [r4, #12]
 800225a:	3301      	adds	r3, #1
 800225c:	81a3      	strh	r3, [r4, #12]
 800225e:	e7f4      	b.n	800224a <CANsend+0x36>
 8002260:	2000061c 	.word	0x2000061c

08002264 <CANclearPendingSync>:
 8002264:	b5f0      	push	{r4, r5, r6, r7, lr}
 8002266:	f3ef 8210 	mrs	r2, PRIMASK
 800226a:	4b14      	ldr	r3, [pc, #80]	; (80022bc <CANclearPendingSync+0x58>)
 800226c:	669a      	str	r2, [r3, #104]	; 0x68
 800226e:	b672      	cpsid	i
 8002270:	f893 206e 	ldrb.w	r2, [r3, #110]	; 0x6e
 8002274:	b11a      	cbz	r2, 800227e <CANclearPendingSync+0x1a>
 8002276:	2200      	movs	r2, #0
 8002278:	f883 206e 	strb.w	r2, [r3, #110]	; 0x6e
 800227c:	2201      	movs	r2, #1
 800227e:	8999      	ldrh	r1, [r3, #12]
 8002280:	b129      	cbz	r1, 800228e <CANclearPendingSync+0x2a>
 8002282:	2500      	movs	r5, #0
 8002284:	462e      	mov	r6, r5
 8002286:	8c9c      	ldrh	r4, [r3, #36]	; 0x24
 8002288:	b954      	cbnz	r4, 80022a0 <CANclearPendingSync+0x3c>
 800228a:	b105      	cbz	r5, 800228e <CANclearPendingSync+0x2a>
 800228c:	8199      	strh	r1, [r3, #12]
 800228e:	6e99      	ldr	r1, [r3, #104]	; 0x68
 8002290:	f381 8810 	msr	PRIMASK, r1
 8002294:	b11a      	cbz	r2, 800229e <CANclearPendingSync+0x3a>
 8002296:	685a      	ldr	r2, [r3, #4]
 8002298:	f042 0280 	orr.w	r2, r2, #128	; 0x80
 800229c:	605a      	str	r2, [r3, #4]
 800229e:	bdf0      	pop	{r4, r5, r6, r7, pc}
 80022a0:	1ce0      	adds	r0, r4, #3
 80022a2:	eb03 1000 	add.w	r0, r3, r0, lsl #4
 80022a6:	7947      	ldrb	r7, [r0, #5]
 80022a8:	b137      	cbz	r7, 80022b8 <CANclearPendingSync+0x54>
 80022aa:	7987      	ldrb	r7, [r0, #6]
 80022ac:	b127      	cbz	r7, 80022b8 <CANclearPendingSync+0x54>
 80022ae:	2501      	movs	r5, #1
 80022b0:	2202      	movs	r2, #2
 80022b2:	3901      	subs	r1, #1
 80022b4:	7146      	strb	r6, [r0, #5]
 80022b6:	b289      	uxth	r1, r1
 80022b8:	3c01      	subs	r4, #1
 80022ba:	e7e5      	b.n	8002288 <CANclearPendingSync+0x24>
 80022bc:	2000061c 	.word	0x2000061c

080022c0 <CANmodule_process>:
 80022c0:	4a10      	ldr	r2, [pc, #64]	; (8002304 <CANmodule_process+0x44>)
 80022c2:	6813      	ldr	r3, [r2, #0]
 80022c4:	681b      	ldr	r3, [r3, #0]
 80022c6:	6999      	ldr	r1, [r3, #24]
 80022c8:	6893      	ldr	r3, [r2, #8]
 80022ca:	f001 0007 	and.w	r0, r1, #7
 80022ce:	4283      	cmp	r3, r0
 80022d0:	d006      	beq.n	80022e0 <CANmodule_process+0x20>
 80022d2:	6090      	str	r0, [r2, #8]
 80022d4:	0748      	lsls	r0, r1, #29
 80022d6:	8893      	ldrh	r3, [r2, #4]
 80022d8:	d503      	bpl.n	80022e2 <CANmodule_process+0x22>
 80022da:	f043 0304 	orr.w	r3, r3, #4
 80022de:	6053      	str	r3, [r2, #4]
 80022e0:	4770      	bx	lr
 80022e2:	f423 7341 	bic.w	r3, r3, #772	; 0x304
 80022e6:	f023 0303 	bic.w	r3, r3, #3
 80022ea:	07c8      	lsls	r0, r1, #31
 80022ec:	bf44      	itt	mi
 80022ee:	f443 7380 	orrmi.w	r3, r3, #256	; 0x100
 80022f2:	f043 0301 	orrmi.w	r3, r3, #1
 80022f6:	0789      	lsls	r1, r1, #30
 80022f8:	bf44      	itt	mi
 80022fa:	f443 7300 	orrmi.w	r3, r3, #512	; 0x200
 80022fe:	f043 0302 	orrmi.w	r3, r3, #2
 8002302:	e7ec      	b.n	80022de <CANmodule_process+0x1e>
 8002304:	2000061c 	.word	0x2000061c

08002308 <HAL_CAN_RxFifo0MsgPendingCallback>:
 8002308:	4b03      	ldr	r3, [pc, #12]	; (8002318 <HAL_CAN_RxFifo0MsgPendingCallback+0x10>)
 800230a:	f893 306c 	ldrb.w	r3, [r3, #108]	; 0x6c
 800230e:	b113      	cbz	r3, 8002316 <HAL_CAN_RxFifo0MsgPendingCallback+0xe>
 8002310:	2100      	movs	r1, #0
 8002312:	f7ff befd 	b.w	8002110 <prv_read_can_received_msg.constprop.0>
 8002316:	4770      	bx	lr
 8002318:	2000061c 	.word	0x2000061c

0800231c <HAL_CAN_RxFifo1MsgPendingCallback>:
 800231c:	4b03      	ldr	r3, [pc, #12]	; (800232c <HAL_CAN_RxFifo1MsgPendingCallback+0x10>)
 800231e:	f893 306c 	ldrb.w	r3, [r3, #108]	; 0x6c
 8002322:	b113      	cbz	r3, 800232a <HAL_CAN_RxFifo1MsgPendingCallback+0xe>
 8002324:	2101      	movs	r1, #1
 8002326:	f7ff bef3 	b.w	8002110 <prv_read_can_received_msg.constprop.0>
 800232a:	4770      	bx	lr
 800232c:	2000061c 	.word	0x2000061c

08002330 <CANinterrupt_TX>:
 8002330:	b5f8      	push	{r3, r4, r5, r6, r7, lr}
 8002332:	2700      	movs	r7, #0
 8002334:	4c12      	ldr	r4, [pc, #72]	; (8002380 <CANinterrupt_TX+0x50>)
 8002336:	89a3      	ldrh	r3, [r4, #12]
 8002338:	f884 706d 	strb.w	r7, [r4, #109]	; 0x6d
 800233c:	f884 706e 	strb.w	r7, [r4, #110]	; 0x6e
 8002340:	b15b      	cbz	r3, 800235a <CANinterrupt_TX+0x2a>
 8002342:	f3ef 8310 	mrs	r3, PRIMASK
 8002346:	66a3      	str	r3, [r4, #104]	; 0x68
 8002348:	b672      	cpsid	i
 800234a:	8ca5      	ldrh	r5, [r4, #36]	; 0x24
 800234c:	f104 0628 	add.w	r6, r4, #40	; 0x28
 8002350:	b925      	cbnz	r5, 800235c <CANinterrupt_TX+0x2c>
 8002352:	81a5      	strh	r5, [r4, #12]
 8002354:	6ea3      	ldr	r3, [r4, #104]	; 0x68
 8002356:	f383 8810 	msr	PRIMASK, r3
 800235a:	bdf8      	pop	{r3, r4, r5, r6, r7, pc}
 800235c:	7b73      	ldrb	r3, [r6, #13]
 800235e:	b153      	cbz	r3, 8002376 <CANinterrupt_TX+0x46>
 8002360:	4630      	mov	r0, r6
 8002362:	f7ff feb1 	bl	80020c8 <prv_send_can_message>
 8002366:	b130      	cbz	r0, 8002376 <CANinterrupt_TX+0x46>
 8002368:	7377      	strb	r7, [r6, #13]
 800236a:	89a3      	ldrh	r3, [r4, #12]
 800236c:	3b01      	subs	r3, #1
 800236e:	81a3      	strh	r3, [r4, #12]
 8002370:	7bb3      	ldrb	r3, [r6, #14]
 8002372:	f884 306e 	strb.w	r3, [r4, #110]	; 0x6e
 8002376:	3d01      	subs	r5, #1
 8002378:	b2ad      	uxth	r5, r5
 800237a:	3610      	adds	r6, #16
 800237c:	e7e8      	b.n	8002350 <CANinterrupt_TX+0x20>
 800237e:	bf00      	nop
 8002380:	2000061c 	.word	0x2000061c

08002384 <HAL_CAN_TxMailbox0CompleteCallback>:
 8002384:	2101      	movs	r1, #1
 8002386:	f7ff bfd3 	b.w	8002330 <CANinterrupt_TX>

0800238a <HAL_CAN_TxMailbox1CompleteCallback>:
 800238a:	f7ff bffb 	b.w	8002384 <HAL_CAN_TxMailbox0CompleteCallback>

0800238e <HAL_CAN_TxMailbox2CompleteCallback>:
 800238e:	f7ff bff9 	b.w	8002384 <HAL_CAN_TxMailbox0CompleteCallback>
	...

08002394 <CANreadMsg>:
 8002394:	4a0b      	ldr	r2, [pc, #44]	; (80023c4 <CANreadMsg+0x30>)
 8002396:	4601      	mov	r1, r0
 8002398:	b508      	push	{r3, lr}
 800239a:	e9d2 3006 	ldrd	r3, r0, [r2, #24]
 800239e:	1a1b      	subs	r3, r3, r0
 80023a0:	bf44      	itt	mi
 80023a2:	6952      	ldrmi	r2, [r2, #20]
 80023a4:	189b      	addmi	r3, r3, r2
 80023a6:	2b0f      	cmp	r3, #15
 80023a8:	d909      	bls.n	80023be <CANreadMsg+0x2a>
 80023aa:	2300      	movs	r3, #0
 80023ac:	2210      	movs	r2, #16
 80023ae:	4806      	ldr	r0, [pc, #24]	; (80023c8 <CANreadMsg+0x34>)
 80023b0:	f7ff fe62 	bl	8002078 <CO_fifo_read>
 80023b4:	280f      	cmp	r0, #15
 80023b6:	bf94      	ite	ls
 80023b8:	2000      	movls	r0, #0
 80023ba:	2001      	movhi	r0, #1
 80023bc:	bd08      	pop	{r3, pc}
 80023be:	2000      	movs	r0, #0
 80023c0:	e7fc      	b.n	80023bc <CANreadMsg+0x28>
 80023c2:	bf00      	nop
 80023c4:	2000061c 	.word	0x2000061c
 80023c8:	2000062c 	.word	0x2000062c

080023cc <Proc_init>:
 80023cc:	b510      	push	{r4, lr}
 80023ce:	4c06      	ldr	r4, [pc, #24]	; (80023e8 <Proc_init+0x1c>)
 80023d0:	21fa      	movs	r1, #250	; 0xfa
 80023d2:	4620      	mov	r0, r4
 80023d4:	f7ff fed4 	bl	8002180 <CANmodule_init>
 80023d8:	4620      	mov	r0, r4
 80023da:	f7ff fec5 	bl	8002168 <CANsetNormalMode>
 80023de:	2200      	movs	r2, #0
 80023e0:	4b02      	ldr	r3, [pc, #8]	; (80023ec <Proc_init+0x20>)
 80023e2:	701a      	strb	r2, [r3, #0]
 80023e4:	bd10      	pop	{r4, pc}
 80023e6:	bf00      	nop
 80023e8:	20000308 	.word	0x20000308
 80023ec:	200006e1 	.word	0x200006e1

080023f0 <Proc_report_strength>:
 80023f0:	2301      	movs	r3, #1
 80023f2:	4808      	ldr	r0, [pc, #32]	; (8002414 <Proc_report_strength+0x24>)
 80023f4:	6283      	str	r3, [r0, #40]	; 0x28
 80023f6:	2306      	movs	r3, #6
 80023f8:	f880 302c 	strb.w	r3, [r0, #44]	; 0x2c
 80023fc:	4b06      	ldr	r3, [pc, #24]	; (8002418 <Proc_report_strength+0x28>)
 80023fe:	3028      	adds	r0, #40	; 0x28
 8002400:	7a9b      	ldrb	r3, [r3, #10]
 8002402:	7143      	strb	r3, [r0, #5]
 8002404:	2340      	movs	r3, #64	; 0x40
 8002406:	7183      	strb	r3, [r0, #6]
 8002408:	4b04      	ldr	r3, [pc, #16]	; (800241c <Proc_report_strength+0x2c>)
 800240a:	681b      	ldr	r3, [r3, #0]
 800240c:	f8c0 3007 	str.w	r3, [r0, #7]
 8002410:	f7ff bf00 	b.w	8002214 <CANsend>
 8002414:	2000061c 	.word	0x2000061c
 8002418:	20000004 	.word	0x20000004
 800241c:	20000704 	.word	0x20000704

08002420 <Proc_report_touched>:
 8002420:	2201      	movs	r2, #1
 8002422:	4b0e      	ldr	r3, [pc, #56]	; (800245c <Proc_report_touched+0x3c>)
 8002424:	629a      	str	r2, [r3, #40]	; 0x28
 8002426:	2206      	movs	r2, #6
 8002428:	f883 202c 	strb.w	r2, [r3, #44]	; 0x2c
 800242c:	4a0c      	ldr	r2, [pc, #48]	; (8002460 <Proc_report_touched+0x40>)
 800242e:	f883 002f 	strb.w	r0, [r3, #47]	; 0x2f
 8002432:	7a92      	ldrb	r2, [r2, #10]
 8002434:	f103 0028 	add.w	r0, r3, #40	; 0x28
 8002438:	f883 202d 	strb.w	r2, [r3, #45]	; 0x2d
 800243c:	2241      	movs	r2, #65	; 0x41
 800243e:	f883 202e 	strb.w	r2, [r3, #46]	; 0x2e
 8002442:	4a08      	ldr	r2, [pc, #32]	; (8002464 <Proc_report_touched+0x44>)
 8002444:	7811      	ldrb	r1, [r2, #0]
 8002446:	f883 1030 	strb.w	r1, [r3, #48]	; 0x30
 800244a:	7851      	ldrb	r1, [r2, #1]
 800244c:	7892      	ldrb	r2, [r2, #2]
 800244e:	f883 1031 	strb.w	r1, [r3, #49]	; 0x31
 8002452:	f883 2032 	strb.w	r2, [r3, #50]	; 0x32
 8002456:	f7ff bedd 	b.w	8002214 <CANsend>
 800245a:	bf00      	nop
 800245c:	2000061c 	.word	0x2000061c
 8002460:	20000004 	.word	0x20000004
 8002464:	200006e2 	.word	0x200006e2

08002468 <Proc_report_stationAng>:
 8002468:	2301      	movs	r3, #1
 800246a:	b570      	push	{r4, r5, r6, lr}
 800246c:	4c2f      	ldr	r4, [pc, #188]	; (800252c <Proc_report_stationAng+0xc4>)
 800246e:	2242      	movs	r2, #66	; 0x42
 8002470:	62a3      	str	r3, [r4, #40]	; 0x28
 8002472:	2306      	movs	r3, #6
 8002474:	f884 302c 	strb.w	r3, [r4, #44]	; 0x2c
 8002478:	4b2d      	ldr	r3, [pc, #180]	; (8002530 <Proc_report_stationAng+0xc8>)
 800247a:	4e2e      	ldr	r6, [pc, #184]	; (8002534 <Proc_report_stationAng+0xcc>)
 800247c:	7a9b      	ldrb	r3, [r3, #10]
 800247e:	f884 202e 	strb.w	r2, [r4, #46]	; 0x2e
 8002482:	2b96      	cmp	r3, #150	; 0x96
 8002484:	f884 302d 	strb.w	r3, [r4, #45]	; 0x2d
 8002488:	d001      	beq.n	800248e <Proc_report_stationAng+0x26>
 800248a:	2ba0      	cmp	r3, #160	; 0xa0
 800248c:	d11e      	bne.n	80024cc <Proc_report_stationAng+0x64>
 800248e:	2304      	movs	r3, #4
 8002490:	4929      	ldr	r1, [pc, #164]	; (8002538 <Proc_report_stationAng+0xd0>)
 8002492:	68b0      	ldr	r0, [r6, #8]
 8002494:	f884 302c 	strb.w	r3, [r4, #44]	; 0x2c
 8002498:	f7fe fc04 	bl	8000ca4 <__aeabi_fmul>
 800249c:	2100      	movs	r1, #0
 800249e:	4605      	mov	r5, r0
 80024a0:	f7fe fdb2 	bl	8001008 <__aeabi_fcmpge>
 80024a4:	f04f 517c 	mov.w	r1, #1056964608	; 0x3f000000
 80024a8:	b160      	cbz	r0, 80024c4 <Proc_report_stationAng+0x5c>
 80024aa:	4628      	mov	r0, r5
 80024ac:	f7fe faf2 	bl	8000a94 <__addsf3>
 80024b0:	f7fe fdbe 	bl	8001030 <__aeabi_f2iz>
 80024b4:	b200      	sxth	r0, r0
 80024b6:	f8a4 002f 	strh.w	r0, [r4, #47]	; 0x2f
 80024ba:	4820      	ldr	r0, [pc, #128]	; (800253c <Proc_report_stationAng+0xd4>)
 80024bc:	e8bd 4070 	ldmia.w	sp!, {r4, r5, r6, lr}
 80024c0:	f7ff bea8 	b.w	8002214 <CANsend>
 80024c4:	4628      	mov	r0, r5
 80024c6:	f7fe fae3 	bl	8000a90 <__aeabi_fsub>
 80024ca:	e7f1      	b.n	80024b0 <Proc_report_stationAng+0x48>
 80024cc:	491a      	ldr	r1, [pc, #104]	; (8002538 <Proc_report_stationAng+0xd0>)
 80024ce:	6870      	ldr	r0, [r6, #4]
 80024d0:	f7fe fbe8 	bl	8000ca4 <__aeabi_fmul>
 80024d4:	2100      	movs	r1, #0
 80024d6:	4605      	mov	r5, r0
 80024d8:	f7fe fd96 	bl	8001008 <__aeabi_fcmpge>
 80024dc:	f04f 517c 	mov.w	r1, #1056964608	; 0x3f000000
 80024e0:	b1e8      	cbz	r0, 800251e <Proc_report_stationAng+0xb6>
 80024e2:	4628      	mov	r0, r5
 80024e4:	f7fe fad6 	bl	8000a94 <__addsf3>
 80024e8:	f7fe fda2 	bl	8001030 <__aeabi_f2iz>
 80024ec:	b200      	sxth	r0, r0
 80024ee:	4912      	ldr	r1, [pc, #72]	; (8002538 <Proc_report_stationAng+0xd0>)
 80024f0:	f8a4 002f 	strh.w	r0, [r4, #47]	; 0x2f
 80024f4:	6830      	ldr	r0, [r6, #0]
 80024f6:	f7fe fbd5 	bl	8000ca4 <__aeabi_fmul>
 80024fa:	f7fe fd99 	bl	8001030 <__aeabi_f2iz>
 80024fe:	b205      	sxth	r5, r0
 8002500:	4628      	mov	r0, r5
 8002502:	f7fe fb7b 	bl	8000bfc <__aeabi_i2f>
 8002506:	2d00      	cmp	r5, #0
 8002508:	f04f 517c 	mov.w	r1, #1056964608	; 0x3f000000
 800250c:	db0b      	blt.n	8002526 <Proc_report_stationAng+0xbe>
 800250e:	f7fe fac1 	bl	8000a94 <__addsf3>
 8002512:	f7fe fd8d 	bl	8001030 <__aeabi_f2iz>
 8002516:	b200      	sxth	r0, r0
 8002518:	f8a4 0031 	strh.w	r0, [r4, #49]	; 0x31
 800251c:	e7cd      	b.n	80024ba <Proc_report_stationAng+0x52>
 800251e:	4628      	mov	r0, r5
 8002520:	f7fe fab6 	bl	8000a90 <__aeabi_fsub>
 8002524:	e7e0      	b.n	80024e8 <Proc_report_stationAng+0x80>
 8002526:	f7fe fab3 	bl	8000a90 <__aeabi_fsub>
 800252a:	e7f2      	b.n	8002512 <Proc_report_stationAng+0xaa>
 800252c:	2000061c 	.word	0x2000061c
 8002530:	20000004 	.word	0x20000004
 8002534:	20000714 	.word	0x20000714
 8002538:	42c80000 	.word	0x42c80000
 800253c:	20000644 	.word	0x20000644

08002540 <Proc_report_axisAng>:
 8002540:	2301      	movs	r3, #1
 8002542:	b570      	push	{r4, r5, r6, lr}
 8002544:	4c22      	ldr	r4, [pc, #136]	; (80025d0 <Proc_report_axisAng+0x90>)
 8002546:	2244      	movs	r2, #68	; 0x44
 8002548:	62a3      	str	r3, [r4, #40]	; 0x28
 800254a:	2306      	movs	r3, #6
 800254c:	f884 302c 	strb.w	r3, [r4, #44]	; 0x2c
 8002550:	4b20      	ldr	r3, [pc, #128]	; (80025d4 <Proc_report_axisAng+0x94>)
 8002552:	f884 202e 	strb.w	r2, [r4, #46]	; 0x2e
 8002556:	7a9b      	ldrb	r3, [r3, #10]
 8002558:	2b96      	cmp	r3, #150	; 0x96
 800255a:	f884 302d 	strb.w	r3, [r4, #45]	; 0x2d
 800255e:	d036      	beq.n	80025ce <Proc_report_axisAng+0x8e>
 8002560:	2ba0      	cmp	r3, #160	; 0xa0
 8002562:	d034      	beq.n	80025ce <Proc_report_axisAng+0x8e>
 8002564:	4e1c      	ldr	r6, [pc, #112]	; (80025d8 <Proc_report_axisAng+0x98>)
 8002566:	491d      	ldr	r1, [pc, #116]	; (80025dc <Proc_report_axisAng+0x9c>)
 8002568:	68f0      	ldr	r0, [r6, #12]
 800256a:	f7fe fb9b 	bl	8000ca4 <__aeabi_fmul>
 800256e:	2100      	movs	r1, #0
 8002570:	4605      	mov	r5, r0
 8002572:	f7fe fd49 	bl	8001008 <__aeabi_fcmpge>
 8002576:	f04f 517c 	mov.w	r1, #1056964608	; 0x3f000000
 800257a:	b308      	cbz	r0, 80025c0 <Proc_report_axisAng+0x80>
 800257c:	4628      	mov	r0, r5
 800257e:	f7fe fa89 	bl	8000a94 <__addsf3>
 8002582:	f7fe fd55 	bl	8001030 <__aeabi_f2iz>
 8002586:	b200      	sxth	r0, r0
 8002588:	4914      	ldr	r1, [pc, #80]	; (80025dc <Proc_report_axisAng+0x9c>)
 800258a:	f8a4 002f 	strh.w	r0, [r4, #47]	; 0x2f
 800258e:	6930      	ldr	r0, [r6, #16]
 8002590:	f7fe fb88 	bl	8000ca4 <__aeabi_fmul>
 8002594:	f7fe fd4c 	bl	8001030 <__aeabi_f2iz>
 8002598:	b205      	sxth	r5, r0
 800259a:	4628      	mov	r0, r5
 800259c:	f7fe fb2e 	bl	8000bfc <__aeabi_i2f>
 80025a0:	2d00      	cmp	r5, #0
 80025a2:	f04f 517c 	mov.w	r1, #1056964608	; 0x3f000000
 80025a6:	db0f      	blt.n	80025c8 <Proc_report_axisAng+0x88>
 80025a8:	f7fe fa74 	bl	8000a94 <__addsf3>
 80025ac:	f7fe fd40 	bl	8001030 <__aeabi_f2iz>
 80025b0:	b200      	sxth	r0, r0
 80025b2:	f8a4 0031 	strh.w	r0, [r4, #49]	; 0x31
 80025b6:	480a      	ldr	r0, [pc, #40]	; (80025e0 <Proc_report_axisAng+0xa0>)
 80025b8:	e8bd 4070 	ldmia.w	sp!, {r4, r5, r6, lr}
 80025bc:	f7ff be2a 	b.w	8002214 <CANsend>
 80025c0:	4628      	mov	r0, r5
 80025c2:	f7fe fa65 	bl	8000a90 <__aeabi_fsub>
 80025c6:	e7dc      	b.n	8002582 <Proc_report_axisAng+0x42>
 80025c8:	f7fe fa62 	bl	8000a90 <__aeabi_fsub>
 80025cc:	e7ee      	b.n	80025ac <Proc_report_axisAng+0x6c>
 80025ce:	bd70      	pop	{r4, r5, r6, pc}
 80025d0:	2000061c 	.word	0x2000061c
 80025d4:	20000004 	.word	0x20000004
 80025d8:	20000714 	.word	0x20000714
 80025dc:	42c80000 	.word	0x42c80000
 80025e0:	20000644 	.word	0x20000644

080025e4 <Proc_report_distance>:
 80025e4:	2301      	movs	r3, #1
 80025e6:	480a      	ldr	r0, [pc, #40]	; (8002610 <Proc_report_distance+0x2c>)
 80025e8:	6283      	str	r3, [r0, #40]	; 0x28
 80025ea:	2305      	movs	r3, #5
 80025ec:	f880 302c 	strb.w	r3, [r0, #44]	; 0x2c
 80025f0:	4b08      	ldr	r3, [pc, #32]	; (8002614 <Proc_report_distance+0x30>)
 80025f2:	3028      	adds	r0, #40	; 0x28
 80025f4:	7a9b      	ldrb	r3, [r3, #10]
 80025f6:	7143      	strb	r3, [r0, #5]
 80025f8:	2345      	movs	r3, #69	; 0x45
 80025fa:	7183      	strb	r3, [r0, #6]
 80025fc:	4b06      	ldr	r3, [pc, #24]	; (8002618 <Proc_report_distance+0x34>)
 80025fe:	881b      	ldrh	r3, [r3, #0]
 8002600:	f8a0 3007 	strh.w	r3, [r0, #7]
 8002604:	4b05      	ldr	r3, [pc, #20]	; (800261c <Proc_report_distance+0x38>)
 8002606:	781b      	ldrb	r3, [r3, #0]
 8002608:	7243      	strb	r3, [r0, #9]
 800260a:	f7ff be03 	b.w	8002214 <CANsend>
 800260e:	bf00      	nop
 8002610:	2000061c 	.word	0x2000061c
 8002614:	20000004 	.word	0x20000004
 8002618:	2000086a 	.word	0x2000086a
 800261c:	2000086c 	.word	0x2000086c

08002620 <Proc_handle>:
 8002620:	4b13      	ldr	r3, [pc, #76]	; (8002670 <Proc_handle+0x50>)
 8002622:	6802      	ldr	r2, [r0, #0]
 8002624:	7a9b      	ldrb	r3, [r3, #10]
 8002626:	429a      	cmp	r2, r3
 8002628:	d112      	bne.n	8002650 <Proc_handle+0x30>
 800262a:	7943      	ldrb	r3, [r0, #5]
 800262c:	2b10      	cmp	r3, #16
 800262e:	d010      	beq.n	8002652 <Proc_handle+0x32>
 8002630:	2b15      	cmp	r3, #21
 8002632:	d007      	beq.n	8002644 <Proc_handle+0x24>
 8002634:	2b01      	cmp	r3, #1
 8002636:	d10b      	bne.n	8002650 <Proc_handle+0x30>
 8002638:	7983      	ldrb	r3, [r0, #6]
 800263a:	2b01      	cmp	r3, #1
 800263c:	d108      	bne.n	8002650 <Proc_handle+0x30>
 800263e:	79c0      	ldrb	r0, [r0, #7]
 8002640:	f7ff bae4 	b.w	8001c0c <CONF_setID>
 8002644:	7982      	ldrb	r2, [r0, #6]
 8002646:	4b0b      	ldr	r3, [pc, #44]	; (8002674 <Proc_handle+0x54>)
 8002648:	2aff      	cmp	r2, #255	; 0xff
 800264a:	bf08      	it	eq
 800264c:	220d      	moveq	r2, #13
 800264e:	801a      	strh	r2, [r3, #0]
 8002650:	4770      	bx	lr
 8002652:	7982      	ldrb	r2, [r0, #6]
 8002654:	4b08      	ldr	r3, [pc, #32]	; (8002678 <Proc_handle+0x58>)
 8002656:	801a      	strh	r2, [r3, #0]
 8002658:	79c2      	ldrb	r2, [r0, #7]
 800265a:	4b08      	ldr	r3, [pc, #32]	; (800267c <Proc_handle+0x5c>)
 800265c:	801a      	strh	r2, [r3, #0]
 800265e:	7a02      	ldrb	r2, [r0, #8]
 8002660:	4b07      	ldr	r3, [pc, #28]	; (8002680 <Proc_handle+0x60>)
 8002662:	801a      	strh	r2, [r3, #0]
 8002664:	7a42      	ldrb	r2, [r0, #9]
 8002666:	4b07      	ldr	r3, [pc, #28]	; (8002684 <Proc_handle+0x64>)
 8002668:	801a      	strh	r2, [r3, #0]
 800266a:	7a82      	ldrb	r2, [r0, #10]
 800266c:	4b06      	ldr	r3, [pc, #24]	; (8002688 <Proc_handle+0x68>)
 800266e:	e7ee      	b.n	800264e <Proc_handle+0x2e>
 8002670:	20000004 	.word	0x20000004
 8002674:	2000009e 	.word	0x2000009e
 8002678:	200000a6 	.word	0x200000a6
 800267c:	200000a8 	.word	0x200000a8
 8002680:	200000a4 	.word	0x200000a4
 8002684:	200000a0 	.word	0x200000a0
 8002688:	200000a2 	.word	0x200000a2

0800268c <Proc_loop>:
 800268c:	b5f0      	push	{r4, r5, r6, r7, lr}
 800268e:	4b2a      	ldr	r3, [pc, #168]	; (8002738 <Proc_loop+0xac>)
 8002690:	4c2a      	ldr	r4, [pc, #168]	; (800273c <Proc_loop+0xb0>)
 8002692:	881a      	ldrh	r2, [r3, #0]
 8002694:	6823      	ldr	r3, [r4, #0]
 8002696:	b085      	sub	sp, #20
 8002698:	429a      	cmp	r2, r3
 800269a:	bf9c      	itt	ls
 800269c:	2300      	movls	r3, #0
 800269e:	6023      	strls	r3, [r4, #0]
 80026a0:	f7ff fe0e 	bl	80022c0 <CANmodule_process>
 80026a4:	f7ff fdde 	bl	8002264 <CANclearPendingSync>
 80026a8:	4668      	mov	r0, sp
 80026aa:	f7ff fe73 	bl	8002394 <CANreadMsg>
 80026ae:	b110      	cbz	r0, 80026b6 <Proc_loop+0x2a>
 80026b0:	4668      	mov	r0, sp
 80026b2:	f7ff ffb5 	bl	8002620 <Proc_handle>
 80026b6:	4b22      	ldr	r3, [pc, #136]	; (8002740 <Proc_loop+0xb4>)
 80026b8:	881b      	ldrh	r3, [r3, #0]
 80026ba:	b123      	cbz	r3, 80026c6 <Proc_loop+0x3a>
 80026bc:	6822      	ldr	r2, [r4, #0]
 80026be:	4293      	cmp	r3, r2
 80026c0:	d101      	bne.n	80026c6 <Proc_loop+0x3a>
 80026c2:	f7ff fe95 	bl	80023f0 <Proc_report_strength>
 80026c6:	f000 fbff 	bl	8002ec8 <HAL_GetTick>
 80026ca:	4b1e      	ldr	r3, [pc, #120]	; (8002744 <Proc_loop+0xb8>)
 80026cc:	4605      	mov	r5, r0
 80026ce:	881b      	ldrh	r3, [r3, #0]
 80026d0:	4e1d      	ldr	r6, [pc, #116]	; (8002748 <Proc_loop+0xbc>)
 80026d2:	b32b      	cbz	r3, 8002720 <Proc_loop+0x94>
 80026d4:	4f1d      	ldr	r7, [pc, #116]	; (800274c <Proc_loop+0xc0>)
 80026d6:	783b      	ldrb	r3, [r7, #0]
 80026d8:	b313      	cbz	r3, 8002720 <Proc_loop+0x94>
 80026da:	7838      	ldrb	r0, [r7, #0]
 80026dc:	f7ff fea0 	bl	8002420 <Proc_report_touched>
 80026e0:	2300      	movs	r3, #0
 80026e2:	703b      	strb	r3, [r7, #0]
 80026e4:	6035      	str	r5, [r6, #0]
 80026e6:	4b1a      	ldr	r3, [pc, #104]	; (8002750 <Proc_loop+0xc4>)
 80026e8:	881b      	ldrh	r3, [r3, #0]
 80026ea:	b123      	cbz	r3, 80026f6 <Proc_loop+0x6a>
 80026ec:	6822      	ldr	r2, [r4, #0]
 80026ee:	4293      	cmp	r3, r2
 80026f0:	d101      	bne.n	80026f6 <Proc_loop+0x6a>
 80026f2:	f7ff feb9 	bl	8002468 <Proc_report_stationAng>
 80026f6:	4b17      	ldr	r3, [pc, #92]	; (8002754 <Proc_loop+0xc8>)
 80026f8:	881b      	ldrh	r3, [r3, #0]
 80026fa:	b123      	cbz	r3, 8002706 <Proc_loop+0x7a>
 80026fc:	6822      	ldr	r2, [r4, #0]
 80026fe:	4293      	cmp	r3, r2
 8002700:	d101      	bne.n	8002706 <Proc_loop+0x7a>
 8002702:	f7ff ff1d 	bl	8002540 <Proc_report_axisAng>
 8002706:	4b14      	ldr	r3, [pc, #80]	; (8002758 <Proc_loop+0xcc>)
 8002708:	881b      	ldrh	r3, [r3, #0]
 800270a:	b123      	cbz	r3, 8002716 <Proc_loop+0x8a>
 800270c:	6822      	ldr	r2, [r4, #0]
 800270e:	4293      	cmp	r3, r2
 8002710:	d101      	bne.n	8002716 <Proc_loop+0x8a>
 8002712:	f7ff ff67 	bl	80025e4 <Proc_report_distance>
 8002716:	6823      	ldr	r3, [r4, #0]
 8002718:	3301      	adds	r3, #1
 800271a:	6023      	str	r3, [r4, #0]
 800271c:	b005      	add	sp, #20
 800271e:	bdf0      	pop	{r4, r5, r6, r7, pc}
 8002720:	6833      	ldr	r3, [r6, #0]
 8002722:	1aeb      	subs	r3, r5, r3
 8002724:	f5b3 7fc8 	cmp.w	r3, #400	; 0x190
 8002728:	d9dd      	bls.n	80026e6 <Proc_loop+0x5a>
 800272a:	f000 f863 	bl	80027f4 <GPIO_updateTouchedState>
 800272e:	2000      	movs	r0, #0
 8002730:	f7ff fe76 	bl	8002420 <Proc_report_touched>
 8002734:	e7d6      	b.n	80026e4 <Proc_loop+0x58>
 8002736:	bf00      	nop
 8002738:	2000009e 	.word	0x2000009e
 800273c:	200006c4 	.word	0x200006c4
 8002740:	200000a6 	.word	0x200000a6
 8002744:	200000a8 	.word	0x200000a8
 8002748:	200006c0 	.word	0x200006c0
 800274c:	200006e1 	.word	0x200006e1
 8002750:	200000a4 	.word	0x200000a4
 8002754:	200000a0 	.word	0x200000a0
 8002758:	200000a2 	.word	0x200000a2

0800275c <HAL_UART_RxCpltCallback>:
 800275c:	b538      	push	{r3, r4, r5, lr}
 800275e:	4c0e      	ldr	r4, [pc, #56]	; (8002798 <HAL_UART_RxCpltCallback+0x3c>)
 8002760:	6803      	ldr	r3, [r0, #0]
 8002762:	6822      	ldr	r2, [r4, #0]
 8002764:	6812      	ldr	r2, [r2, #0]
 8002766:	4293      	cmp	r3, r2
 8002768:	d10e      	bne.n	8002788 <HAL_UART_RxCpltCallback+0x2c>
 800276a:	2300      	movs	r3, #0
 800276c:	2201      	movs	r2, #1
 800276e:	490b      	ldr	r1, [pc, #44]	; (800279c <HAL_UART_RxCpltCallback+0x40>)
 8002770:	480b      	ldr	r0, [pc, #44]	; (80027a0 <HAL_UART_RxCpltCallback+0x44>)
 8002772:	f7ff fc59 	bl	8002028 <CO_fifo_write>
 8002776:	4d09      	ldr	r5, [pc, #36]	; (800279c <HAL_UART_RxCpltCallback+0x40>)
 8002778:	2201      	movs	r2, #1
 800277a:	4629      	mov	r1, r5
 800277c:	6820      	ldr	r0, [r4, #0]
 800277e:	f002 fd56 	bl	800522e <HAL_UART_Receive_IT>
 8002782:	2802      	cmp	r0, #2
 8002784:	d0f8      	beq.n	8002778 <HAL_UART_RxCpltCallback+0x1c>
 8002786:	bd38      	pop	{r3, r4, r5, pc}
 8002788:	4a06      	ldr	r2, [pc, #24]	; (80027a4 <HAL_UART_RxCpltCallback+0x48>)
 800278a:	4293      	cmp	r3, r2
 800278c:	d1fb      	bne.n	8002786 <HAL_UART_RxCpltCallback+0x2a>
 800278e:	e8bd 4038 	ldmia.w	sp!, {r3, r4, r5, lr}
 8002792:	f000 bb01 	b.w	8002d98 <TOF_RxCallback>
 8002796:	bf00      	nop
 8002798:	200006c8 	.word	0x200006c8
 800279c:	200006e0 	.word	0x200006e0
 80027a0:	200006cc 	.word	0x200006cc
 80027a4:	40004800 	.word	0x40004800

080027a8 <HAL_UART_ErrorCallback>:
 80027a8:	b513      	push	{r0, r1, r4, lr}
 80027aa:	4c10      	ldr	r4, [pc, #64]	; (80027ec <HAL_UART_ErrorCallback+0x44>)
 80027ac:	6802      	ldr	r2, [r0, #0]
 80027ae:	4603      	mov	r3, r0
 80027b0:	6820      	ldr	r0, [r4, #0]
 80027b2:	6801      	ldr	r1, [r0, #0]
 80027b4:	428a      	cmp	r2, r1
 80027b6:	d116      	bne.n	80027e6 <HAL_UART_ErrorCallback+0x3e>
 80027b8:	6c59      	ldr	r1, [r3, #68]	; 0x44
 80027ba:	0709      	lsls	r1, r1, #28
 80027bc:	d402      	bmi.n	80027c4 <HAL_UART_ErrorCallback+0x1c>
 80027be:	6c5b      	ldr	r3, [r3, #68]	; 0x44
 80027c0:	075b      	lsls	r3, r3, #29
 80027c2:	d506      	bpl.n	80027d2 <HAL_UART_ErrorCallback+0x2a>
 80027c4:	2300      	movs	r3, #0
 80027c6:	9301      	str	r3, [sp, #4]
 80027c8:	6813      	ldr	r3, [r2, #0]
 80027ca:	9301      	str	r3, [sp, #4]
 80027cc:	6853      	ldr	r3, [r2, #4]
 80027ce:	9301      	str	r3, [sp, #4]
 80027d0:	9b01      	ldr	r3, [sp, #4]
 80027d2:	f002 faf6 	bl	8004dc2 <HAL_UART_Abort>
 80027d6:	2201      	movs	r2, #1
 80027d8:	4905      	ldr	r1, [pc, #20]	; (80027f0 <HAL_UART_ErrorCallback+0x48>)
 80027da:	6820      	ldr	r0, [r4, #0]
 80027dc:	b002      	add	sp, #8
 80027de:	e8bd 4010 	ldmia.w	sp!, {r4, lr}
 80027e2:	f002 bd24 	b.w	800522e <HAL_UART_Receive_IT>
 80027e6:	b002      	add	sp, #8
 80027e8:	bd10      	pop	{r4, pc}
 80027ea:	bf00      	nop
 80027ec:	200006c8 	.word	0x200006c8
 80027f0:	200006e0 	.word	0x200006e0

080027f4 <GPIO_updateTouchedState>:
 80027f4:	b510      	push	{r4, lr}
 80027f6:	f44f 5180 	mov.w	r1, #4096	; 0x1000
 80027fa:	480f      	ldr	r0, [pc, #60]	; (8002838 <GPIO_updateTouchedState+0x44>)
 80027fc:	f001 fb40 	bl	8003e80 <HAL_GPIO_ReadPin>
 8002800:	2801      	cmp	r0, #1
 8002802:	bf0c      	ite	eq
 8002804:	2300      	moveq	r3, #0
 8002806:	2301      	movne	r3, #1
 8002808:	4c0c      	ldr	r4, [pc, #48]	; (800283c <GPIO_updateTouchedState+0x48>)
 800280a:	f44f 5100 	mov.w	r1, #8192	; 0x2000
 800280e:	480a      	ldr	r0, [pc, #40]	; (8002838 <GPIO_updateTouchedState+0x44>)
 8002810:	7023      	strb	r3, [r4, #0]
 8002812:	f001 fb35 	bl	8003e80 <HAL_GPIO_ReadPin>
 8002816:	2801      	cmp	r0, #1
 8002818:	bf0c      	ite	eq
 800281a:	2300      	moveq	r3, #0
 800281c:	2301      	movne	r3, #1
 800281e:	f44f 4180 	mov.w	r1, #16384	; 0x4000
 8002822:	4805      	ldr	r0, [pc, #20]	; (8002838 <GPIO_updateTouchedState+0x44>)
 8002824:	7063      	strb	r3, [r4, #1]
 8002826:	f001 fb2b 	bl	8003e80 <HAL_GPIO_ReadPin>
 800282a:	2801      	cmp	r0, #1
 800282c:	bf0c      	ite	eq
 800282e:	2300      	moveq	r3, #0
 8002830:	2301      	movne	r3, #1
 8002832:	70a3      	strb	r3, [r4, #2]
 8002834:	bd10      	pop	{r4, pc}
 8002836:	bf00      	nop
 8002838:	40010c00 	.word	0x40010c00
 800283c:	200006e2 	.word	0x200006e2

08002840 <HAL_GPIO_EXTI_Callback>:
 8002840:	f5b0 5f00 	cmp.w	r0, #8192	; 0x2000
 8002844:	d00a      	beq.n	800285c <HAL_GPIO_EXTI_Callback+0x1c>
 8002846:	f5b0 4f80 	cmp.w	r0, #16384	; 0x4000
 800284a:	d00a      	beq.n	8002862 <HAL_GPIO_EXTI_Callback+0x22>
 800284c:	f5b0 5f80 	cmp.w	r0, #4096	; 0x1000
 8002850:	d102      	bne.n	8002858 <HAL_GPIO_EXTI_Callback+0x18>
 8002852:	2203      	movs	r2, #3
 8002854:	4b04      	ldr	r3, [pc, #16]	; (8002868 <HAL_GPIO_EXTI_Callback+0x28>)
 8002856:	701a      	strb	r2, [r3, #0]
 8002858:	f7ff bfcc 	b.w	80027f4 <GPIO_updateTouchedState>
 800285c:	2202      	movs	r2, #2
 800285e:	4b02      	ldr	r3, [pc, #8]	; (8002868 <HAL_GPIO_EXTI_Callback+0x28>)
 8002860:	e7f9      	b.n	8002856 <HAL_GPIO_EXTI_Callback+0x16>
 8002862:	2201      	movs	r2, #1
 8002864:	4b00      	ldr	r3, [pc, #0]	; (8002868 <HAL_GPIO_EXTI_Callback+0x28>)
 8002866:	e7f6      	b.n	8002856 <HAL_GPIO_EXTI_Callback+0x16>
 8002868:	200006e1 	.word	0x200006e1

0800286c <hx711_delay_us>:
 800286c:	2200      	movs	r2, #0
 800286e:	4b03      	ldr	r3, [pc, #12]	; (800287c <hx711_delay_us+0x10>)
 8002870:	681b      	ldr	r3, [r3, #0]
 8002872:	625a      	str	r2, [r3, #36]	; 0x24
 8002874:	6a5a      	ldr	r2, [r3, #36]	; 0x24
 8002876:	4282      	cmp	r2, r0
 8002878:	d3fc      	bcc.n	8002874 <hx711_delay_us+0x8>
 800287a:	4770      	bx	lr
 800287c:	200003c4 	.word	0x200003c4

08002880 <hx711_init>:
 8002880:	e92d 43f0 	stmdb	sp!, {r4, r5, r6, r7, r8, r9, lr}
 8002884:	4604      	mov	r4, r0
 8002886:	f04f 0803 	mov.w	r8, #3
 800288a:	461e      	mov	r6, r3
 800288c:	2500      	movs	r5, #0
 800288e:	2701      	movs	r7, #1
 8002890:	b085      	sub	sp, #20
 8002892:	f8bd 9030 	ldrh.w	r9, [sp, #48]	; 0x30
 8002896:	6063      	str	r3, [r4, #4]
 8002898:	8122      	strh	r2, [r4, #8]
 800289a:	4608      	mov	r0, r1
 800289c:	6021      	str	r1, [r4, #0]
 800289e:	f8a4 900a 	strh.w	r9, [r4, #10]
 80028a2:	4669      	mov	r1, sp
 80028a4:	f884 8015 	strb.w	r8, [r4, #21]
 80028a8:	9200      	str	r2, [sp, #0]
 80028aa:	e9cd 7501 	strd	r7, r5, [sp, #4]
 80028ae:	f8cd 800c 	str.w	r8, [sp, #12]
 80028b2:	f001 fa0b 	bl	8003ccc <HAL_GPIO_Init>
 80028b6:	4669      	mov	r1, sp
 80028b8:	4630      	mov	r0, r6
 80028ba:	e9cd 5701 	strd	r5, r7, [sp, #4]
 80028be:	f8cd 800c 	str.w	r8, [sp, #12]
 80028c2:	f8cd 9000 	str.w	r9, [sp]
 80028c6:	f001 fa01 	bl	8003ccc <HAL_GPIO_Init>
 80028ca:	463a      	mov	r2, r7
 80028cc:	8921      	ldrh	r1, [r4, #8]
 80028ce:	6820      	ldr	r0, [r4, #0]
 80028d0:	f001 fadc 	bl	8003e8c <HAL_GPIO_WritePin>
 80028d4:	200a      	movs	r0, #10
 80028d6:	f000 fafd 	bl	8002ed4 <HAL_Delay>
 80028da:	462a      	mov	r2, r5
 80028dc:	8921      	ldrh	r1, [r4, #8]
 80028de:	6820      	ldr	r0, [r4, #0]
 80028e0:	f001 fad4 	bl	8003e8c <HAL_GPIO_WritePin>
 80028e4:	200a      	movs	r0, #10
 80028e6:	f000 faf5 	bl	8002ed4 <HAL_Delay>
 80028ea:	2205      	movs	r2, #5
 80028ec:	4b03      	ldr	r3, [pc, #12]	; (80028fc <hx711_init+0x7c>)
 80028ee:	601d      	str	r5, [r3, #0]
 80028f0:	4b03      	ldr	r3, [pc, #12]	; (8002900 <hx711_init+0x80>)
 80028f2:	601a      	str	r2, [r3, #0]
 80028f4:	b005      	add	sp, #20
 80028f6:	e8bd 83f0 	ldmia.w	sp!, {r4, r5, r6, r7, r8, r9, pc}
 80028fa:	bf00      	nop
 80028fc:	20000708 	.word	0x20000708
 8002900:	20000700 	.word	0x20000700

08002904 <hx711_value>:
 8002904:	b570      	push	{r4, r5, r6, lr}
 8002906:	4604      	mov	r4, r0
 8002908:	2518      	movs	r5, #24
 800290a:	2600      	movs	r6, #0
 800290c:	2201      	movs	r2, #1
 800290e:	8921      	ldrh	r1, [r4, #8]
 8002910:	6820      	ldr	r0, [r4, #0]
 8002912:	f001 fabb 	bl	8003e8c <HAL_GPIO_WritePin>
 8002916:	2001      	movs	r0, #1
 8002918:	f7ff ffa8 	bl	800286c <hx711_delay_us>
 800291c:	4086      	lsls	r6, r0
 800291e:	8961      	ldrh	r1, [r4, #10]
 8002920:	6860      	ldr	r0, [r4, #4]
 8002922:	f001 faad 	bl	8003e80 <HAL_GPIO_ReadPin>
 8002926:	2200      	movs	r2, #0
 8002928:	2801      	cmp	r0, #1
 800292a:	8921      	ldrh	r1, [r4, #8]
 800292c:	6820      	ldr	r0, [r4, #0]
 800292e:	bf08      	it	eq
 8002930:	3601      	addeq	r6, #1
 8002932:	3d01      	subs	r5, #1
 8002934:	f001 faaa 	bl	8003e8c <HAL_GPIO_WritePin>
 8002938:	2001      	movs	r0, #1
 800293a:	f7ff ff97 	bl	800286c <hx711_delay_us>
 800293e:	f015 05ff 	ands.w	r5, r5, #255	; 0xff
 8002942:	d1e3      	bne.n	800290c <hx711_value+0x8>
 8002944:	7d63      	ldrb	r3, [r4, #21]
 8002946:	42ab      	cmp	r3, r5
 8002948:	dc07      	bgt.n	800295a <hx711_value+0x56>
 800294a:	f416 0f00 	tst.w	r6, #8388608	; 0x800000
 800294e:	bf14      	ite	ne
 8002950:	f04f 407f 	movne.w	r0, #4278190080	; 0xff000000
 8002954:	2000      	moveq	r0, #0
 8002956:	4430      	add	r0, r6
 8002958:	bd70      	pop	{r4, r5, r6, pc}
 800295a:	2201      	movs	r2, #1
 800295c:	8921      	ldrh	r1, [r4, #8]
 800295e:	6820      	ldr	r0, [r4, #0]
 8002960:	f001 fa94 	bl	8003e8c <HAL_GPIO_WritePin>
 8002964:	2001      	movs	r0, #1
 8002966:	f7ff ff81 	bl	800286c <hx711_delay_us>
 800296a:	2200      	movs	r2, #0
 800296c:	6820      	ldr	r0, [r4, #0]
 800296e:	8921      	ldrh	r1, [r4, #8]
 8002970:	f001 fa8c 	bl	8003e8c <HAL_GPIO_WritePin>
 8002974:	2001      	movs	r0, #1
 8002976:	f7ff ff79 	bl	800286c <hx711_delay_us>
 800297a:	4405      	add	r5, r0
 800297c:	e7e2      	b.n	8002944 <hx711_value+0x40>

0800297e <hx711_is_ready>:
 800297e:	8941      	ldrh	r1, [r0, #10]
 8002980:	b508      	push	{r3, lr}
 8002982:	6840      	ldr	r0, [r0, #4]
 8002984:	f001 fa7c 	bl	8003e80 <HAL_GPIO_ReadPin>
 8002988:	fab0 f080 	clz	r0, r0
 800298c:	0940      	lsrs	r0, r0, #5
 800298e:	bd08      	pop	{r3, pc}

08002990 <hx711_proc>:
 8002990:	b570      	push	{r4, r5, r6, lr}
 8002992:	f000 fa99 	bl	8002ec8 <HAL_GetTick>
 8002996:	4604      	mov	r4, r0
 8002998:	4811      	ldr	r0, [pc, #68]	; (80029e0 <hx711_proc+0x50>)
 800299a:	f7ff fff0 	bl	800297e <hx711_is_ready>
 800299e:	4e11      	ldr	r6, [pc, #68]	; (80029e4 <hx711_proc+0x54>)
 80029a0:	b1e0      	cbz	r0, 80029dc <hx711_proc+0x4c>
 80029a2:	6833      	ldr	r3, [r6, #0]
 80029a4:	4d10      	ldr	r5, [pc, #64]	; (80029e8 <hx711_proc+0x58>)
 80029a6:	1ae3      	subs	r3, r4, r3
 80029a8:	2b05      	cmp	r3, #5
 80029aa:	d909      	bls.n	80029c0 <hx711_proc+0x30>
 80029ac:	480c      	ldr	r0, [pc, #48]	; (80029e0 <hx711_proc+0x50>)
 80029ae:	f7ff ffa9 	bl	8002904 <hx711_value>
 80029b2:	4a0e      	ldr	r2, [pc, #56]	; (80029ec <hx711_proc+0x5c>)
 80029b4:	6813      	ldr	r3, [r2, #0]
 80029b6:	4403      	add	r3, r0
 80029b8:	6013      	str	r3, [r2, #0]
 80029ba:	682b      	ldr	r3, [r5, #0]
 80029bc:	3301      	adds	r3, #1
 80029be:	602b      	str	r3, [r5, #0]
 80029c0:	4b0b      	ldr	r3, [pc, #44]	; (80029f0 <hx711_proc+0x60>)
 80029c2:	6829      	ldr	r1, [r5, #0]
 80029c4:	681b      	ldr	r3, [r3, #0]
 80029c6:	4299      	cmp	r1, r3
 80029c8:	d308      	bcc.n	80029dc <hx711_proc+0x4c>
 80029ca:	4a08      	ldr	r2, [pc, #32]	; (80029ec <hx711_proc+0x5c>)
 80029cc:	6813      	ldr	r3, [r2, #0]
 80029ce:	fbb3 f3f1 	udiv	r3, r3, r1
 80029d2:	4908      	ldr	r1, [pc, #32]	; (80029f4 <hx711_proc+0x64>)
 80029d4:	600b      	str	r3, [r1, #0]
 80029d6:	2300      	movs	r3, #0
 80029d8:	602b      	str	r3, [r5, #0]
 80029da:	6013      	str	r3, [r2, #0]
 80029dc:	6034      	str	r4, [r6, #0]
 80029de:	bd70      	pop	{r4, r5, r6, pc}
 80029e0:	200006e8 	.word	0x200006e8
 80029e4:	2000070c 	.word	0x2000070c
 80029e8:	20000710 	.word	0x20000710
 80029ec:	20000708 	.word	0x20000708
 80029f0:	20000700 	.word	0x20000700
 80029f4:	20000704 	.word	0x20000704

080029f8 <modbus_crc16>:
 80029f8:	4602      	mov	r2, r0
 80029fa:	b530      	push	{r4, r5, lr}
 80029fc:	4401      	add	r1, r0
 80029fe:	f24a 0501 	movw	r5, #40961	; 0xa001
 8002a02:	f64f 70ff 	movw	r0, #65535	; 0xffff
 8002a06:	428a      	cmp	r2, r1
 8002a08:	d100      	bne.n	8002a0c <modbus_crc16+0x14>
 8002a0a:	bd30      	pop	{r4, r5, pc}
 8002a0c:	2408      	movs	r4, #8
 8002a0e:	f812 3b01 	ldrb.w	r3, [r2], #1
 8002a12:	4058      	eors	r0, r3
 8002a14:	f000 0301 	and.w	r3, r0, #1
 8002a18:	0840      	lsrs	r0, r0, #1
 8002a1a:	b113      	cbz	r3, 8002a22 <modbus_crc16+0x2a>
 8002a1c:	ea80 0305 	eor.w	r3, r0, r5
 8002a20:	b298      	uxth	r0, r3
 8002a22:	1e63      	subs	r3, r4, #1
 8002a24:	f013 04ff 	ands.w	r4, r3, #255	; 0xff
 8002a28:	d1f4      	bne.n	8002a14 <modbus_crc16+0x1c>
 8002a2a:	e7ec      	b.n	8002a06 <modbus_crc16+0xe>

08002a2c <Modbus_init>:
 8002a2c:	b570      	push	{r4, r5, r6, lr}
 8002a2e:	2664      	movs	r6, #100	; 0x64
 8002a30:	4b25      	ldr	r3, [pc, #148]	; (8002ac8 <Modbus_init+0x9c>)
 8002a32:	25c4      	movs	r5, #196	; 0xc4
 8002a34:	71de      	strb	r6, [r3, #7]
 8002a36:	2602      	movs	r6, #2
 8002a38:	719d      	strb	r5, [r3, #6]
 8002a3a:	721e      	strb	r6, [r3, #8]
 8002a3c:	739d      	strb	r5, [r3, #14]
 8002a3e:	759d      	strb	r5, [r3, #22]
 8002a40:	2657      	movs	r6, #87	; 0x57
 8002a42:	2531      	movs	r5, #49	; 0x31
 8002a44:	73de      	strb	r6, [r3, #15]
 8002a46:	75dd      	strb	r5, [r3, #23]
 8002a48:	2201      	movs	r2, #1
 8002a4a:	2604      	movs	r6, #4
 8002a4c:	2505      	movs	r5, #5
 8002a4e:	2100      	movs	r1, #0
 8002a50:	2480      	movs	r4, #128	; 0x80
 8002a52:	2006      	movs	r0, #6
 8002a54:	701a      	strb	r2, [r3, #0]
 8002a56:	741e      	strb	r6, [r3, #16]
 8002a58:	2203      	movs	r2, #3
 8002a5a:	761d      	strb	r5, [r3, #24]
 8002a5c:	26e0      	movs	r6, #224	; 0xe0
 8002a5e:	25c5      	movs	r5, #197	; 0xc5
 8002a60:	7119      	strb	r1, [r3, #4]
 8002a62:	7319      	strb	r1, [r3, #12]
 8002a64:	7519      	strb	r1, [r3, #20]
 8002a66:	7719      	strb	r1, [r3, #28]
 8002a68:	705a      	strb	r2, [r3, #1]
 8002a6a:	709a      	strb	r2, [r3, #2]
 8002a6c:	70dc      	strb	r4, [r3, #3]
 8002a6e:	7158      	strb	r0, [r3, #5]
 8002a70:	725a      	strb	r2, [r3, #9]
 8002a72:	729a      	strb	r2, [r3, #10]
 8002a74:	72dc      	strb	r4, [r3, #11]
 8002a76:	7358      	strb	r0, [r3, #13]
 8002a78:	745a      	strb	r2, [r3, #17]
 8002a7a:	749a      	strb	r2, [r3, #18]
 8002a7c:	74dc      	strb	r4, [r3, #19]
 8002a7e:	7558      	strb	r0, [r3, #21]
 8002a80:	765a      	strb	r2, [r3, #25]
 8002a82:	769a      	strb	r2, [r3, #26]
 8002a84:	76dc      	strb	r4, [r3, #27]
 8002a86:	7758      	strb	r0, [r3, #29]
 8002a88:	779d      	strb	r5, [r3, #30]
 8002a8a:	77de      	strb	r6, [r3, #31]
 8002a8c:	f883 2020 	strb.w	r2, [r3, #32]
 8002a90:	f883 2021 	strb.w	r2, [r3, #33]	; 0x21
 8002a94:	f883 2022 	strb.w	r2, [r3, #34]	; 0x22
 8002a98:	2286      	movs	r2, #134	; 0x86
 8002a9a:	f883 4023 	strb.w	r4, [r3, #35]	; 0x23
 8002a9e:	f883 1024 	strb.w	r1, [r3, #36]	; 0x24
 8002aa2:	f883 0025 	strb.w	r0, [r3, #37]	; 0x25
 8002aa6:	f883 5026 	strb.w	r5, [r3, #38]	; 0x26
 8002aaa:	f883 2027 	strb.w	r2, [r3, #39]	; 0x27
 8002aae:	4b07      	ldr	r3, [pc, #28]	; (8002acc <Modbus_init+0xa0>)
 8002ab0:	4807      	ldr	r0, [pc, #28]	; (8002ad0 <Modbus_init+0xa4>)
 8002ab2:	8019      	strh	r1, [r3, #0]
 8002ab4:	f001 fd96 	bl	80045e4 <HAL_TIM_Base_Start_IT>
 8002ab8:	e8bd 4070 	ldmia.w	sp!, {r4, r5, r6, lr}
 8002abc:	f44f 7280 	mov.w	r2, #256	; 0x100
 8002ac0:	4904      	ldr	r1, [pc, #16]	; (8002ad4 <Modbus_init+0xa8>)
 8002ac2:	4805      	ldr	r0, [pc, #20]	; (8002ad8 <Modbus_init+0xac>)
 8002ac4:	f002 bbc4 	b.w	8005250 <HAL_UARTEx_ReceiveToIdle_IT>
 8002ac8:	20000840 	.word	0x20000840
 8002acc:	2000083e 	.word	0x2000083e
 8002ad0:	2000037c 	.word	0x2000037c
 8002ad4:	2000073d 	.word	0x2000073d
 8002ad8:	20000454 	.word	0x20000454

08002adc <HAL_TIM_PeriodElapsedCallback>:
 8002adc:	6803      	ldr	r3, [r0, #0]
 8002ade:	b510      	push	{r4, lr}
 8002ae0:	f1b3 4f80 	cmp.w	r3, #1073741824	; 0x40000000
 8002ae4:	d111      	bne.n	8002b0a <HAL_TIM_PeriodElapsedCallback+0x2e>
 8002ae6:	4c09      	ldr	r4, [pc, #36]	; (8002b0c <HAL_TIM_PeriodElapsedCallback+0x30>)
 8002ae8:	4909      	ldr	r1, [pc, #36]	; (8002b10 <HAL_TIM_PeriodElapsedCallback+0x34>)
 8002aea:	7820      	ldrb	r0, [r4, #0]
 8002aec:	f04f 33ff 	mov.w	r3, #4294967295
 8002af0:	eb01 01c0 	add.w	r1, r1, r0, lsl #3
 8002af4:	2208      	movs	r2, #8
 8002af6:	4807      	ldr	r0, [pc, #28]	; (8002b14 <HAL_TIM_PeriodElapsedCallback+0x38>)
 8002af8:	f002 f915 	bl	8004d26 <HAL_UART_Transmit>
 8002afc:	7823      	ldrb	r3, [r4, #0]
 8002afe:	3301      	adds	r3, #1
 8002b00:	b2db      	uxtb	r3, r3
 8002b02:	2b04      	cmp	r3, #4
 8002b04:	bf88      	it	hi
 8002b06:	2300      	movhi	r3, #0
 8002b08:	7023      	strb	r3, [r4, #0]
 8002b0a:	bd10      	pop	{r4, pc}
 8002b0c:	20000868 	.word	0x20000868
 8002b10:	20000840 	.word	0x20000840
 8002b14:	20000454 	.word	0x20000454

08002b18 <HAL_UARTEx_RxEventCallback>:
 8002b18:	6802      	ldr	r2, [r0, #0]
 8002b1a:	4b07      	ldr	r3, [pc, #28]	; (8002b38 <HAL_UARTEx_RxEventCallback+0x20>)
 8002b1c:	429a      	cmp	r2, r3
 8002b1e:	d10a      	bne.n	8002b36 <HAL_UARTEx_RxEventCallback+0x1e>
 8002b20:	2201      	movs	r2, #1
 8002b22:	4b06      	ldr	r3, [pc, #24]	; (8002b3c <HAL_UARTEx_RxEventCallback+0x24>)
 8002b24:	4806      	ldr	r0, [pc, #24]	; (8002b40 <HAL_UARTEx_RxEventCallback+0x28>)
 8002b26:	8019      	strh	r1, [r3, #0]
 8002b28:	4b06      	ldr	r3, [pc, #24]	; (8002b44 <HAL_UARTEx_RxEventCallback+0x2c>)
 8002b2a:	4907      	ldr	r1, [pc, #28]	; (8002b48 <HAL_UARTEx_RxEventCallback+0x30>)
 8002b2c:	701a      	strb	r2, [r3, #0]
 8002b2e:	f44f 7280 	mov.w	r2, #256	; 0x100
 8002b32:	f002 bb8d 	b.w	8005250 <HAL_UARTEx_ReceiveToIdle_IT>
 8002b36:	4770      	bx	lr
 8002b38:	40004400 	.word	0x40004400
 8002b3c:	2000083e 	.word	0x2000083e
 8002b40:	20000454 	.word	0x20000454
 8002b44:	2000073c 	.word	0x2000073c
 8002b48:	2000073d 	.word	0x2000073d

08002b4c <Process_Modbus_Frame>:
 8002b4c:	2906      	cmp	r1, #6
 8002b4e:	b570      	push	{r4, r5, r6, lr}
 8002b50:	4605      	mov	r5, r0
 8002b52:	460c      	mov	r4, r1
 8002b54:	d939      	bls.n	8002bca <Process_Modbus_Frame+0x7e>
 8002b56:	7806      	ldrb	r6, [r0, #0]
 8002b58:	3e01      	subs	r6, #1
 8002b5a:	b2f3      	uxtb	r3, r6
 8002b5c:	2b04      	cmp	r3, #4
 8002b5e:	d834      	bhi.n	8002bca <Process_Modbus_Frame+0x7e>
 8002b60:	3902      	subs	r1, #2
 8002b62:	b289      	uxth	r1, r1
 8002b64:	f7ff ff48 	bl	80029f8 <modbus_crc16>
 8002b68:	442c      	add	r4, r5
 8002b6a:	f814 2c01 	ldrb.w	r2, [r4, #-1]
 8002b6e:	f814 3c02 	ldrb.w	r3, [r4, #-2]
 8002b72:	ea43 2302 	orr.w	r3, r3, r2, lsl #8
 8002b76:	4283      	cmp	r3, r0
 8002b78:	d127      	bne.n	8002bca <Process_Modbus_Frame+0x7e>
 8002b7a:	786b      	ldrb	r3, [r5, #1]
 8002b7c:	2b03      	cmp	r3, #3
 8002b7e:	d124      	bne.n	8002bca <Process_Modbus_Frame+0x7e>
 8002b80:	78ab      	ldrb	r3, [r5, #2]
 8002b82:	2b0c      	cmp	r3, #12
 8002b84:	d121      	bne.n	8002bca <Process_Modbus_Frame+0x7e>
 8002b86:	f8b5 000b 	ldrh.w	r0, [r5, #11]
 8002b8a:	ba40      	rev16	r0, r0
 8002b8c:	b284      	uxth	r4, r0
 8002b8e:	b9e4      	cbnz	r4, 8002bca <Process_Modbus_Frame+0x7e>
 8002b90:	f8d5 0003 	ldr.w	r0, [r5, #3]
 8002b94:	ba00      	rev	r0, r0
 8002b96:	f3c0 0014 	ubfx	r0, r0, #0, #21
 8002b9a:	f7fe f82b 	bl	8000bf4 <__aeabi_ui2f>
 8002b9e:	490c      	ldr	r1, [pc, #48]	; (8002bd0 <Process_Modbus_Frame+0x84>)
 8002ba0:	f7fe f934 	bl	8000e0c <__aeabi_fdiv>
 8002ba4:	490b      	ldr	r1, [pc, #44]	; (8002bd4 <Process_Modbus_Frame+0x88>)
 8002ba6:	f7fd ff73 	bl	8000a90 <__aeabi_fsub>
 8002baa:	4b0b      	ldr	r3, [pc, #44]	; (8002bd8 <Process_Modbus_Frame+0x8c>)
 8002bac:	f843 0026 	str.w	r0, [r3, r6, lsl #2]
 8002bb0:	f8b5 000d 	ldrh.w	r0, [r5, #13]
 8002bb4:	bac0      	revsh	r0, r0
 8002bb6:	f7fe f821 	bl	8000bfc <__aeabi_i2f>
 8002bba:	4908      	ldr	r1, [pc, #32]	; (8002bdc <Process_Modbus_Frame+0x90>)
 8002bbc:	f7fe f872 	bl	8000ca4 <__aeabi_fmul>
 8002bc0:	4b07      	ldr	r3, [pc, #28]	; (8002be0 <Process_Modbus_Frame+0x94>)
 8002bc2:	f843 0026 	str.w	r0, [r3, r6, lsl #2]
 8002bc6:	4620      	mov	r0, r4
 8002bc8:	bd70      	pop	{r4, r5, r6, pc}
 8002bca:	f04f 30ff 	mov.w	r0, #4294967295
 8002bce:	e7fb      	b.n	8002bc8 <Process_Modbus_Frame+0x7c>
 8002bd0:	45b60b61 	.word	0x45b60b61
 8002bd4:	43340000 	.word	0x43340000
 8002bd8:	20000714 	.word	0x20000714
 8002bdc:	3e927bb3 	.word	0x3e927bb3
 8002be0:	20000728 	.word	0x20000728

08002be4 <Modbus_proc>:
 8002be4:	b538      	push	{r3, r4, r5, lr}
 8002be6:	4b08      	ldr	r3, [pc, #32]	; (8002c08 <Modbus_proc+0x24>)
 8002be8:	781a      	ldrb	r2, [r3, #0]
 8002bea:	b15a      	cbz	r2, 8002c04 <Modbus_proc+0x20>
 8002bec:	2500      	movs	r5, #0
 8002bee:	4c07      	ldr	r4, [pc, #28]	; (8002c0c <Modbus_proc+0x28>)
 8002bf0:	701d      	strb	r5, [r3, #0]
 8002bf2:	8823      	ldrh	r3, [r4, #0]
 8002bf4:	b29b      	uxth	r3, r3
 8002bf6:	b12b      	cbz	r3, 8002c04 <Modbus_proc+0x20>
 8002bf8:	8821      	ldrh	r1, [r4, #0]
 8002bfa:	4805      	ldr	r0, [pc, #20]	; (8002c10 <Modbus_proc+0x2c>)
 8002bfc:	b289      	uxth	r1, r1
 8002bfe:	f7ff ffa5 	bl	8002b4c <Process_Modbus_Frame>
 8002c02:	8025      	strh	r5, [r4, #0]
 8002c04:	bd38      	pop	{r3, r4, r5, pc}
 8002c06:	bf00      	nop
 8002c08:	2000073c 	.word	0x2000073c
 8002c0c:	2000083e 	.word	0x2000083e
 8002c10:	2000073d 	.word	0x2000073d

08002c14 <TOF_resetUart>:
 8002c14:	b530      	push	{r4, r5, lr}
 8002c16:	2400      	movs	r4, #0
 8002c18:	4a14      	ldr	r2, [pc, #80]	; (8002c6c <TOF_resetUart+0x58>)
 8002c1a:	4d15      	ldr	r5, [pc, #84]	; (8002c70 <TOF_resetUart+0x5c>)
 8002c1c:	6813      	ldr	r3, [r2, #0]
 8002c1e:	b085      	sub	sp, #20
 8002c20:	3301      	adds	r3, #1
 8002c22:	6013      	str	r3, [r2, #0]
 8002c24:	682b      	ldr	r3, [r5, #0]
 8002c26:	9401      	str	r4, [sp, #4]
 8002c28:	681a      	ldr	r2, [r3, #0]
 8002c2a:	4628      	mov	r0, r5
 8002c2c:	9201      	str	r2, [sp, #4]
 8002c2e:	685a      	ldr	r2, [r3, #4]
 8002c30:	9201      	str	r2, [sp, #4]
 8002c32:	9a01      	ldr	r2, [sp, #4]
 8002c34:	9402      	str	r4, [sp, #8]
 8002c36:	681a      	ldr	r2, [r3, #0]
 8002c38:	9202      	str	r2, [sp, #8]
 8002c3a:	685a      	ldr	r2, [r3, #4]
 8002c3c:	9202      	str	r2, [sp, #8]
 8002c3e:	9a02      	ldr	r2, [sp, #8]
 8002c40:	9403      	str	r4, [sp, #12]
 8002c42:	681a      	ldr	r2, [r3, #0]
 8002c44:	9203      	str	r2, [sp, #12]
 8002c46:	685b      	ldr	r3, [r3, #4]
 8002c48:	9303      	str	r3, [sp, #12]
 8002c4a:	9b03      	ldr	r3, [sp, #12]
 8002c4c:	f002 f8b9 	bl	8004dc2 <HAL_UART_Abort>
 8002c50:	4b08      	ldr	r3, [pc, #32]	; (8002c74 <TOF_resetUart+0x60>)
 8002c52:	2201      	movs	r2, #1
 8002c54:	4908      	ldr	r1, [pc, #32]	; (8002c78 <TOF_resetUart+0x64>)
 8002c56:	4628      	mov	r0, r5
 8002c58:	701c      	strb	r4, [r3, #0]
 8002c5a:	f002 fae8 	bl	800522e <HAL_UART_Receive_IT>
 8002c5e:	f000 f933 	bl	8002ec8 <HAL_GetTick>
 8002c62:	4b06      	ldr	r3, [pc, #24]	; (8002c7c <TOF_resetUart+0x68>)
 8002c64:	6018      	str	r0, [r3, #0]
 8002c66:	b005      	add	sp, #20
 8002c68:	bd30      	pop	{r4, r5, pc}
 8002c6a:	bf00      	nop
 8002c6c:	20000870 	.word	0x20000870
 8002c70:	2000049c 	.word	0x2000049c
 8002c74:	200008a5 	.word	0x200008a5
 8002c78:	200008a4 	.word	0x200008a4
 8002c7c:	20000880 	.word	0x20000880

08002c80 <TOF_init>:
 8002c80:	b510      	push	{r4, lr}
 8002c82:	2400      	movs	r4, #0
 8002c84:	4b0a      	ldr	r3, [pc, #40]	; (8002cb0 <TOF_init+0x30>)
 8002c86:	801c      	strh	r4, [r3, #0]
 8002c88:	4b0a      	ldr	r3, [pc, #40]	; (8002cb4 <TOF_init+0x34>)
 8002c8a:	701c      	strb	r4, [r3, #0]
 8002c8c:	4b0a      	ldr	r3, [pc, #40]	; (8002cb8 <TOF_init+0x38>)
 8002c8e:	701c      	strb	r4, [r3, #0]
 8002c90:	f000 f91a 	bl	8002ec8 <HAL_GetTick>
 8002c94:	4b09      	ldr	r3, [pc, #36]	; (8002cbc <TOF_init+0x3c>)
 8002c96:	2201      	movs	r2, #1
 8002c98:	6018      	str	r0, [r3, #0]
 8002c9a:	4b09      	ldr	r3, [pc, #36]	; (8002cc0 <TOF_init+0x40>)
 8002c9c:	4909      	ldr	r1, [pc, #36]	; (8002cc4 <TOF_init+0x44>)
 8002c9e:	801c      	strh	r4, [r3, #0]
 8002ca0:	4b09      	ldr	r3, [pc, #36]	; (8002cc8 <TOF_init+0x48>)
 8002ca2:	480a      	ldr	r0, [pc, #40]	; (8002ccc <TOF_init+0x4c>)
 8002ca4:	701c      	strb	r4, [r3, #0]
 8002ca6:	e8bd 4010 	ldmia.w	sp!, {r4, lr}
 8002caa:	f002 bac0 	b.w	800522e <HAL_UART_Receive_IT>
 8002cae:	bf00      	nop
 8002cb0:	200008a6 	.word	0x200008a6
 8002cb4:	2000087c 	.word	0x2000087c
 8002cb8:	200008a5 	.word	0x200008a5
 8002cbc:	20000880 	.word	0x20000880
 8002cc0:	2000086a 	.word	0x2000086a
 8002cc4:	200008a4 	.word	0x200008a4
 8002cc8:	2000086c 	.word	0x2000086c
 8002ccc:	2000049c 	.word	0x2000049c

08002cd0 <TOF_proc>:
 8002cd0:	b5f8      	push	{r3, r4, r5, r6, r7, lr}
 8002cd2:	f000 f8f9 	bl	8002ec8 <HAL_GetTick>
 8002cd6:	4d28      	ldr	r5, [pc, #160]	; (8002d78 <TOF_proc+0xa8>)
 8002cd8:	4604      	mov	r4, r0
 8002cda:	682b      	ldr	r3, [r5, #0]
 8002cdc:	1ac3      	subs	r3, r0, r3
 8002cde:	f5b3 7f7a 	cmp.w	r3, #1000	; 0x3e8
 8002ce2:	d901      	bls.n	8002ce8 <TOF_proc+0x18>
 8002ce4:	f7ff ff96 	bl	8002c14 <TOF_resetUart>
 8002ce8:	4a24      	ldr	r2, [pc, #144]	; (8002d7c <TOF_proc+0xac>)
 8002cea:	4b25      	ldr	r3, [pc, #148]	; (8002d80 <TOF_proc+0xb0>)
 8002cec:	7811      	ldrb	r1, [r2, #0]
 8002cee:	b151      	cbz	r1, 8002d06 <TOF_proc+0x36>
 8002cf0:	6829      	ldr	r1, [r5, #0]
 8002cf2:	1a64      	subs	r4, r4, r1
 8002cf4:	2c05      	cmp	r4, #5
 8002cf6:	d906      	bls.n	8002d06 <TOF_proc+0x36>
 8002cf8:	7811      	ldrb	r1, [r2, #0]
 8002cfa:	4822      	ldr	r0, [pc, #136]	; (8002d84 <TOF_proc+0xb4>)
 8002cfc:	8001      	strh	r1, [r0, #0]
 8002cfe:	2101      	movs	r1, #1
 8002d00:	7019      	strb	r1, [r3, #0]
 8002d02:	2100      	movs	r1, #0
 8002d04:	7011      	strb	r1, [r2, #0]
 8002d06:	781a      	ldrb	r2, [r3, #0]
 8002d08:	b362      	cbz	r2, 8002d64 <TOF_proc+0x94>
 8002d0a:	2700      	movs	r7, #0
 8002d0c:	4a1e      	ldr	r2, [pc, #120]	; (8002d88 <TOF_proc+0xb8>)
 8002d0e:	701f      	strb	r7, [r3, #0]
 8002d10:	6813      	ldr	r3, [r2, #0]
 8002d12:	4d1c      	ldr	r5, [pc, #112]	; (8002d84 <TOF_proc+0xb4>)
 8002d14:	3301      	adds	r3, #1
 8002d16:	6013      	str	r3, [r2, #0]
 8002d18:	882b      	ldrh	r3, [r5, #0]
 8002d1a:	b29b      	uxth	r3, r3
 8002d1c:	b313      	cbz	r3, 8002d64 <TOF_proc+0x94>
 8002d1e:	8829      	ldrh	r1, [r5, #0]
 8002d20:	b289      	uxth	r1, r1
 8002d22:	2906      	cmp	r1, #6
 8002d24:	d91c      	bls.n	8002d60 <TOF_proc+0x90>
 8002d26:	4c19      	ldr	r4, [pc, #100]	; (8002d8c <TOF_proc+0xbc>)
 8002d28:	7823      	ldrb	r3, [r4, #0]
 8002d2a:	2b06      	cmp	r3, #6
 8002d2c:	d118      	bne.n	8002d60 <TOF_proc+0x90>
 8002d2e:	7863      	ldrb	r3, [r4, #1]
 8002d30:	2b03      	cmp	r3, #3
 8002d32:	d115      	bne.n	8002d60 <TOF_proc+0x90>
 8002d34:	78a3      	ldrb	r3, [r4, #2]
 8002d36:	2b02      	cmp	r3, #2
 8002d38:	d112      	bne.n	8002d60 <TOF_proc+0x90>
 8002d3a:	1863      	adds	r3, r4, r1
 8002d3c:	f813 2c01 	ldrb.w	r2, [r3, #-1]
 8002d40:	f813 6c02 	ldrb.w	r6, [r3, #-2]
 8002d44:	3902      	subs	r1, #2
 8002d46:	4620      	mov	r0, r4
 8002d48:	b289      	uxth	r1, r1
 8002d4a:	ea46 2602 	orr.w	r6, r6, r2, lsl #8
 8002d4e:	f7ff fe53 	bl	80029f8 <modbus_crc16>
 8002d52:	4286      	cmp	r6, r0
 8002d54:	d104      	bne.n	8002d60 <TOF_proc+0x90>
 8002d56:	78e3      	ldrb	r3, [r4, #3]
 8002d58:	4a0d      	ldr	r2, [pc, #52]	; (8002d90 <TOF_proc+0xc0>)
 8002d5a:	2bff      	cmp	r3, #255	; 0xff
 8002d5c:	d103      	bne.n	8002d66 <TOF_proc+0x96>
 8002d5e:	7017      	strb	r7, [r2, #0]
 8002d60:	2300      	movs	r3, #0
 8002d62:	802b      	strh	r3, [r5, #0]
 8002d64:	bdf8      	pop	{r3, r4, r5, r6, r7, pc}
 8002d66:	f8b4 3003 	ldrh.w	r3, [r4, #3]
 8002d6a:	490a      	ldr	r1, [pc, #40]	; (8002d94 <TOF_proc+0xc4>)
 8002d6c:	ba5b      	rev16	r3, r3
 8002d6e:	800b      	strh	r3, [r1, #0]
 8002d70:	2301      	movs	r3, #1
 8002d72:	7013      	strb	r3, [r2, #0]
 8002d74:	e7f4      	b.n	8002d60 <TOF_proc+0x90>
 8002d76:	bf00      	nop
 8002d78:	20000880 	.word	0x20000880
 8002d7c:	200008a5 	.word	0x200008a5
 8002d80:	2000087c 	.word	0x2000087c
 8002d84:	200008a6 	.word	0x200008a6
 8002d88:	20000874 	.word	0x20000874
 8002d8c:	20000884 	.word	0x20000884
 8002d90:	2000086c 	.word	0x2000086c
 8002d94:	2000086a 	.word	0x2000086a

08002d98 <TOF_RxCallback>:
 8002d98:	4a11      	ldr	r2, [pc, #68]	; (8002de0 <TOF_RxCallback+0x48>)
 8002d9a:	b508      	push	{r3, lr}
 8002d9c:	6813      	ldr	r3, [r2, #0]
 8002d9e:	3301      	adds	r3, #1
 8002da0:	6013      	str	r3, [r2, #0]
 8002da2:	f000 f891 	bl	8002ec8 <HAL_GetTick>
 8002da6:	4b0f      	ldr	r3, [pc, #60]	; (8002de4 <TOF_RxCallback+0x4c>)
 8002da8:	6018      	str	r0, [r3, #0]
 8002daa:	4b0f      	ldr	r3, [pc, #60]	; (8002de8 <TOF_RxCallback+0x50>)
 8002dac:	781a      	ldrb	r2, [r3, #0]
 8002dae:	2a1f      	cmp	r2, #31
 8002db0:	d811      	bhi.n	8002dd6 <TOF_RxCallback+0x3e>
 8002db2:	7819      	ldrb	r1, [r3, #0]
 8002db4:	1c4a      	adds	r2, r1, #1
 8002db6:	b2d2      	uxtb	r2, r2
 8002db8:	701a      	strb	r2, [r3, #0]
 8002dba:	4b0c      	ldr	r3, [pc, #48]	; (8002dec <TOF_RxCallback+0x54>)
 8002dbc:	781a      	ldrb	r2, [r3, #0]
 8002dbe:	4b0c      	ldr	r3, [pc, #48]	; (8002df0 <TOF_RxCallback+0x58>)
 8002dc0:	545a      	strb	r2, [r3, r1]
 8002dc2:	2201      	movs	r2, #1
 8002dc4:	4909      	ldr	r1, [pc, #36]	; (8002dec <TOF_RxCallback+0x54>)
 8002dc6:	480b      	ldr	r0, [pc, #44]	; (8002df4 <TOF_RxCallback+0x5c>)
 8002dc8:	f002 fa31 	bl	800522e <HAL_UART_Receive_IT>
 8002dcc:	b130      	cbz	r0, 8002ddc <TOF_RxCallback+0x44>
 8002dce:	e8bd 4008 	ldmia.w	sp!, {r3, lr}
 8002dd2:	f7ff bf1f 	b.w	8002c14 <TOF_resetUart>
 8002dd6:	2200      	movs	r2, #0
 8002dd8:	701a      	strb	r2, [r3, #0]
 8002dda:	e7f2      	b.n	8002dc2 <TOF_RxCallback+0x2a>
 8002ddc:	bd08      	pop	{r3, pc}
 8002dde:	bf00      	nop
 8002de0:	20000878 	.word	0x20000878
 8002de4:	20000880 	.word	0x20000880
 8002de8:	200008a5 	.word	0x200008a5
 8002dec:	200008a4 	.word	0x200008a4
 8002df0:	20000884 	.word	0x20000884
 8002df4:	2000049c 	.word	0x2000049c

08002df8 <Reset_Handler>:
 8002df8:	f7fe fbee 	bl	80015d8 <SystemInit>
 8002dfc:	480b      	ldr	r0, [pc, #44]	; (8002e2c <LoopFillZerobss+0xe>)
 8002dfe:	490c      	ldr	r1, [pc, #48]	; (8002e30 <LoopFillZerobss+0x12>)
 8002e00:	4a0c      	ldr	r2, [pc, #48]	; (8002e34 <LoopFillZerobss+0x16>)
 8002e02:	2300      	movs	r3, #0
 8002e04:	e002      	b.n	8002e0c <LoopCopyDataInit>

08002e06 <CopyDataInit>:
 8002e06:	58d4      	ldr	r4, [r2, r3]
 8002e08:	50c4      	str	r4, [r0, r3]
 8002e0a:	3304      	adds	r3, #4

08002e0c <LoopCopyDataInit>:
 8002e0c:	18c4      	adds	r4, r0, r3
 8002e0e:	428c      	cmp	r4, r1
 8002e10:	d3f9      	bcc.n	8002e06 <CopyDataInit>
 8002e12:	4a09      	ldr	r2, [pc, #36]	; (8002e38 <LoopFillZerobss+0x1a>)
 8002e14:	4c09      	ldr	r4, [pc, #36]	; (8002e3c <LoopFillZerobss+0x1e>)
 8002e16:	2300      	movs	r3, #0
 8002e18:	e001      	b.n	8002e1e <LoopFillZerobss>

08002e1a <FillZerobss>:
 8002e1a:	6013      	str	r3, [r2, #0]
 8002e1c:	3204      	adds	r2, #4

08002e1e <LoopFillZerobss>:
 8002e1e:	42a2      	cmp	r2, r4
 8002e20:	d3fb      	bcc.n	8002e1a <FillZerobss>
 8002e22:	f002 ffed 	bl	8005e00 <__libc_init_array>
 8002e26:	f7fe facd 	bl	80013c4 <main>
 8002e2a:	4770      	bx	lr
 8002e2c:	20000000 	.word	0x20000000
 8002e30:	20000278 	.word	0x20000278
 8002e34:	08007f94 	.word	0x08007f94
 8002e38:	20000278 	.word	0x20000278
 8002e3c:	20000a1c 	.word	0x20000a1c

08002e40 <ADC1_2_IRQHandler>:
 8002e40:	e7fe      	b.n	8002e40 <ADC1_2_IRQHandler>
	...

08002e44 <HAL_InitTick>:
 8002e44:	b538      	push	{r3, r4, r5, lr}
 8002e46:	4b0e      	ldr	r3, [pc, #56]	; (8002e80 <HAL_InitTick+0x3c>)
 8002e48:	4605      	mov	r5, r0
 8002e4a:	781a      	ldrb	r2, [r3, #0]
 8002e4c:	f44f 737a 	mov.w	r3, #1000	; 0x3e8
 8002e50:	fbb3 f3f2 	udiv	r3, r3, r2
 8002e54:	4a0b      	ldr	r2, [pc, #44]	; (8002e84 <HAL_InitTick+0x40>)
 8002e56:	6810      	ldr	r0, [r2, #0]
 8002e58:	fbb0 f0f3 	udiv	r0, r0, r3
 8002e5c:	f000 fccc 	bl	80037f8 <HAL_SYSTICK_Config>
 8002e60:	4604      	mov	r4, r0
 8002e62:	b958      	cbnz	r0, 8002e7c <HAL_InitTick+0x38>
 8002e64:	2d0f      	cmp	r5, #15
 8002e66:	d809      	bhi.n	8002e7c <HAL_InitTick+0x38>
 8002e68:	4602      	mov	r2, r0
 8002e6a:	4629      	mov	r1, r5
 8002e6c:	f04f 30ff 	mov.w	r0, #4294967295
 8002e70:	f000 fc84 	bl	800377c <HAL_NVIC_SetPriority>
 8002e74:	4620      	mov	r0, r4
 8002e76:	4b04      	ldr	r3, [pc, #16]	; (8002e88 <HAL_InitTick+0x44>)
 8002e78:	601d      	str	r5, [r3, #0]
 8002e7a:	bd38      	pop	{r3, r4, r5, pc}
 8002e7c:	2001      	movs	r0, #1
 8002e7e:	e7fc      	b.n	8002e7a <HAL_InitTick+0x36>
 8002e80:	200000aa 	.word	0x200000aa
 8002e84:	20000000 	.word	0x20000000
 8002e88:	200000ac 	.word	0x200000ac

08002e8c <HAL_Init>:
 8002e8c:	4a07      	ldr	r2, [pc, #28]	; (8002eac <HAL_Init+0x20>)
 8002e8e:	b508      	push	{r3, lr}
 8002e90:	6813      	ldr	r3, [r2, #0]
 8002e92:	2003      	movs	r0, #3
 8002e94:	f043 0310 	orr.w	r3, r3, #16
 8002e98:	6013      	str	r3, [r2, #0]
 8002e9a:	f000 fc5d 	bl	8003758 <HAL_NVIC_SetPriorityGrouping>
 8002e9e:	200f      	movs	r0, #15
 8002ea0:	f7ff ffd0 	bl	8002e44 <HAL_InitTick>
 8002ea4:	f7fe fad6 	bl	8001454 <HAL_MspInit>
 8002ea8:	2000      	movs	r0, #0
 8002eaa:	bd08      	pop	{r3, pc}
 8002eac:	40022000 	.word	0x40022000

08002eb0 <HAL_IncTick>:
 8002eb0:	4a03      	ldr	r2, [pc, #12]	; (8002ec0 <HAL_IncTick+0x10>)
 8002eb2:	4b04      	ldr	r3, [pc, #16]	; (8002ec4 <HAL_IncTick+0x14>)
 8002eb4:	6811      	ldr	r1, [r2, #0]
 8002eb6:	781b      	ldrb	r3, [r3, #0]
 8002eb8:	440b      	add	r3, r1
 8002eba:	6013      	str	r3, [r2, #0]
 8002ebc:	4770      	bx	lr
 8002ebe:	bf00      	nop
 8002ec0:	200008a8 	.word	0x200008a8
 8002ec4:	200000aa 	.word	0x200000aa

08002ec8 <HAL_GetTick>:
 8002ec8:	4b01      	ldr	r3, [pc, #4]	; (8002ed0 <HAL_GetTick+0x8>)
 8002eca:	6818      	ldr	r0, [r3, #0]
 8002ecc:	4770      	bx	lr
 8002ece:	bf00      	nop
 8002ed0:	200008a8 	.word	0x200008a8

08002ed4 <HAL_Delay>:
 8002ed4:	b538      	push	{r3, r4, r5, lr}
 8002ed6:	4604      	mov	r4, r0
 8002ed8:	f7ff fff6 	bl	8002ec8 <HAL_GetTick>
 8002edc:	4605      	mov	r5, r0
 8002ede:	1c63      	adds	r3, r4, #1
 8002ee0:	bf1e      	ittt	ne
 8002ee2:	4b04      	ldrne	r3, [pc, #16]	; (8002ef4 <HAL_Delay+0x20>)
 8002ee4:	781b      	ldrbne	r3, [r3, #0]
 8002ee6:	18e4      	addne	r4, r4, r3
 8002ee8:	f7ff ffee 	bl	8002ec8 <HAL_GetTick>
 8002eec:	1b43      	subs	r3, r0, r5
 8002eee:	42a3      	cmp	r3, r4
 8002ef0:	d3fa      	bcc.n	8002ee8 <HAL_Delay+0x14>
 8002ef2:	bd38      	pop	{r3, r4, r5, pc}
 8002ef4:	200000aa 	.word	0x200000aa

08002ef8 <HAL_ADC_ConfigChannel>:
 8002ef8:	2300      	movs	r3, #0
 8002efa:	b573      	push	{r0, r1, r4, r5, r6, lr}
 8002efc:	9301      	str	r3, [sp, #4]
 8002efe:	f890 3024 	ldrb.w	r3, [r0, #36]	; 0x24
 8002f02:	4604      	mov	r4, r0
 8002f04:	2b01      	cmp	r3, #1
 8002f06:	d06c      	beq.n	8002fe2 <HAL_ADC_ConfigChannel+0xea>
 8002f08:	2301      	movs	r3, #1
 8002f0a:	f880 3024 	strb.w	r3, [r0, #36]	; 0x24
 8002f0e:	684d      	ldr	r5, [r1, #4]
 8002f10:	6802      	ldr	r2, [r0, #0]
 8002f12:	2d06      	cmp	r5, #6
 8002f14:	6808      	ldr	r0, [r1, #0]
 8002f16:	eb05 0385 	add.w	r3, r5, r5, lsl #2
 8002f1a:	d822      	bhi.n	8002f62 <HAL_ADC_ConfigChannel+0x6a>
 8002f1c:	261f      	movs	r6, #31
 8002f1e:	6b55      	ldr	r5, [r2, #52]	; 0x34
 8002f20:	3b05      	subs	r3, #5
 8002f22:	409e      	lsls	r6, r3
 8002f24:	ea25 0506 	bic.w	r5, r5, r6
 8002f28:	fa00 f303 	lsl.w	r3, r0, r3
 8002f2c:	432b      	orrs	r3, r5
 8002f2e:	6353      	str	r3, [r2, #52]	; 0x34
 8002f30:	2809      	cmp	r0, #9
 8002f32:	688b      	ldr	r3, [r1, #8]
 8002f34:	eb00 0540 	add.w	r5, r0, r0, lsl #1
 8002f38:	f04f 0107 	mov.w	r1, #7
 8002f3c:	d929      	bls.n	8002f92 <HAL_ADC_ConfigChannel+0x9a>
 8002f3e:	68d6      	ldr	r6, [r2, #12]
 8002f40:	3d1e      	subs	r5, #30
 8002f42:	40a9      	lsls	r1, r5
 8002f44:	ea26 0101 	bic.w	r1, r6, r1
 8002f48:	40ab      	lsls	r3, r5
 8002f4a:	430b      	orrs	r3, r1
 8002f4c:	60d3      	str	r3, [r2, #12]
 8002f4e:	f1a0 0310 	sub.w	r3, r0, #16
 8002f52:	2b01      	cmp	r3, #1
 8002f54:	d925      	bls.n	8002fa2 <HAL_ADC_ConfigChannel+0xaa>
 8002f56:	2000      	movs	r0, #0
 8002f58:	2300      	movs	r3, #0
 8002f5a:	f884 3024 	strb.w	r3, [r4, #36]	; 0x24
 8002f5e:	b002      	add	sp, #8
 8002f60:	bd70      	pop	{r4, r5, r6, pc}
 8002f62:	2d0c      	cmp	r5, #12
 8002f64:	f04f 051f 	mov.w	r5, #31
 8002f68:	d809      	bhi.n	8002f7e <HAL_ADC_ConfigChannel+0x86>
 8002f6a:	6b16      	ldr	r6, [r2, #48]	; 0x30
 8002f6c:	3b23      	subs	r3, #35	; 0x23
 8002f6e:	409d      	lsls	r5, r3
 8002f70:	ea26 0505 	bic.w	r5, r6, r5
 8002f74:	fa00 f303 	lsl.w	r3, r0, r3
 8002f78:	432b      	orrs	r3, r5
 8002f7a:	6313      	str	r3, [r2, #48]	; 0x30
 8002f7c:	e7d8      	b.n	8002f30 <HAL_ADC_ConfigChannel+0x38>
 8002f7e:	6ad6      	ldr	r6, [r2, #44]	; 0x2c
 8002f80:	3b41      	subs	r3, #65	; 0x41
 8002f82:	409d      	lsls	r5, r3
 8002f84:	ea26 0505 	bic.w	r5, r6, r5
 8002f88:	fa00 f303 	lsl.w	r3, r0, r3
 8002f8c:	432b      	orrs	r3, r5
 8002f8e:	62d3      	str	r3, [r2, #44]	; 0x2c
 8002f90:	e7ce      	b.n	8002f30 <HAL_ADC_ConfigChannel+0x38>
 8002f92:	6910      	ldr	r0, [r2, #16]
 8002f94:	40a9      	lsls	r1, r5
 8002f96:	ea20 0101 	bic.w	r1, r0, r1
 8002f9a:	40ab      	lsls	r3, r5
 8002f9c:	430b      	orrs	r3, r1
 8002f9e:	6113      	str	r3, [r2, #16]
 8002fa0:	e7d9      	b.n	8002f56 <HAL_ADC_ConfigChannel+0x5e>
 8002fa2:	4b11      	ldr	r3, [pc, #68]	; (8002fe8 <HAL_ADC_ConfigChannel+0xf0>)
 8002fa4:	429a      	cmp	r2, r3
 8002fa6:	d116      	bne.n	8002fd6 <HAL_ADC_ConfigChannel+0xde>
 8002fa8:	6893      	ldr	r3, [r2, #8]
 8002faa:	021b      	lsls	r3, r3, #8
 8002fac:	d4d3      	bmi.n	8002f56 <HAL_ADC_ConfigChannel+0x5e>
 8002fae:	6893      	ldr	r3, [r2, #8]
 8002fb0:	2810      	cmp	r0, #16
 8002fb2:	f443 0300 	orr.w	r3, r3, #8388608	; 0x800000
 8002fb6:	6093      	str	r3, [r2, #8]
 8002fb8:	d1cd      	bne.n	8002f56 <HAL_ADC_ConfigChannel+0x5e>
 8002fba:	4b0c      	ldr	r3, [pc, #48]	; (8002fec <HAL_ADC_ConfigChannel+0xf4>)
 8002fbc:	4a0c      	ldr	r2, [pc, #48]	; (8002ff0 <HAL_ADC_ConfigChannel+0xf8>)
 8002fbe:	681b      	ldr	r3, [r3, #0]
 8002fc0:	fbb3 f3f2 	udiv	r3, r3, r2
 8002fc4:	220a      	movs	r2, #10
 8002fc6:	4353      	muls	r3, r2
 8002fc8:	9301      	str	r3, [sp, #4]
 8002fca:	9b01      	ldr	r3, [sp, #4]
 8002fcc:	2b00      	cmp	r3, #0
 8002fce:	d0c2      	beq.n	8002f56 <HAL_ADC_ConfigChannel+0x5e>
 8002fd0:	9b01      	ldr	r3, [sp, #4]
 8002fd2:	3b01      	subs	r3, #1
 8002fd4:	e7f8      	b.n	8002fc8 <HAL_ADC_ConfigChannel+0xd0>
 8002fd6:	6aa3      	ldr	r3, [r4, #40]	; 0x28
 8002fd8:	2001      	movs	r0, #1
 8002fda:	f043 0320 	orr.w	r3, r3, #32
 8002fde:	62a3      	str	r3, [r4, #40]	; 0x28
 8002fe0:	e7ba      	b.n	8002f58 <HAL_ADC_ConfigChannel+0x60>
 8002fe2:	2002      	movs	r0, #2
 8002fe4:	e7bb      	b.n	8002f5e <HAL_ADC_ConfigChannel+0x66>
 8002fe6:	bf00      	nop
 8002fe8:	40012400 	.word	0x40012400
 8002fec:	20000000 	.word	0x20000000
 8002ff0:	000f4240 	.word	0x000f4240

08002ff4 <ADC_ConversionStop_Disable>:
 8002ff4:	b538      	push	{r3, r4, r5, lr}
 8002ff6:	6803      	ldr	r3, [r0, #0]
 8002ff8:	4604      	mov	r4, r0
 8002ffa:	689a      	ldr	r2, [r3, #8]
 8002ffc:	07d1      	lsls	r1, r2, #31
 8002ffe:	d401      	bmi.n	8003004 <ADC_ConversionStop_Disable+0x10>
 8003000:	2000      	movs	r0, #0
 8003002:	bd38      	pop	{r3, r4, r5, pc}
 8003004:	689a      	ldr	r2, [r3, #8]
 8003006:	f022 0201 	bic.w	r2, r2, #1
 800300a:	609a      	str	r2, [r3, #8]
 800300c:	f7ff ff5c 	bl	8002ec8 <HAL_GetTick>
 8003010:	4605      	mov	r5, r0
 8003012:	6823      	ldr	r3, [r4, #0]
 8003014:	689b      	ldr	r3, [r3, #8]
 8003016:	07db      	lsls	r3, r3, #31
 8003018:	d5f2      	bpl.n	8003000 <ADC_ConversionStop_Disable+0xc>
 800301a:	f7ff ff55 	bl	8002ec8 <HAL_GetTick>
 800301e:	1b40      	subs	r0, r0, r5
 8003020:	2802      	cmp	r0, #2
 8003022:	d9f6      	bls.n	8003012 <ADC_ConversionStop_Disable+0x1e>
 8003024:	6823      	ldr	r3, [r4, #0]
 8003026:	689b      	ldr	r3, [r3, #8]
 8003028:	07da      	lsls	r2, r3, #31
 800302a:	d5f2      	bpl.n	8003012 <ADC_ConversionStop_Disable+0x1e>
 800302c:	6aa3      	ldr	r3, [r4, #40]	; 0x28
 800302e:	2001      	movs	r0, #1
 8003030:	f043 0310 	orr.w	r3, r3, #16
 8003034:	62a3      	str	r3, [r4, #40]	; 0x28
 8003036:	6ae3      	ldr	r3, [r4, #44]	; 0x2c
 8003038:	f043 0301 	orr.w	r3, r3, #1
 800303c:	62e3      	str	r3, [r4, #44]	; 0x2c
 800303e:	e7e0      	b.n	8003002 <ADC_ConversionStop_Disable+0xe>

08003040 <HAL_ADC_Init>:
 8003040:	b5f8      	push	{r3, r4, r5, r6, r7, lr}
 8003042:	4604      	mov	r4, r0
 8003044:	2800      	cmp	r0, #0
 8003046:	d06d      	beq.n	8003124 <HAL_ADC_Init+0xe4>
 8003048:	6a83      	ldr	r3, [r0, #40]	; 0x28
 800304a:	b923      	cbnz	r3, 8003056 <HAL_ADC_Init+0x16>
 800304c:	62c3      	str	r3, [r0, #44]	; 0x2c
 800304e:	f880 3024 	strb.w	r3, [r0, #36]	; 0x24
 8003052:	f7fe f83b 	bl	80010cc <HAL_ADC_MspInit>
 8003056:	4620      	mov	r0, r4
 8003058:	f7ff ffcc 	bl	8002ff4 <ADC_ConversionStop_Disable>
 800305c:	6aa3      	ldr	r3, [r4, #40]	; 0x28
 800305e:	f013 0310 	ands.w	r3, r3, #16
 8003062:	d161      	bne.n	8003128 <HAL_ADC_Init+0xe8>
 8003064:	2800      	cmp	r0, #0
 8003066:	d15f      	bne.n	8003128 <HAL_ADC_Init+0xe8>
 8003068:	6aa2      	ldr	r2, [r4, #40]	; 0x28
 800306a:	6861      	ldr	r1, [r4, #4]
 800306c:	f422 5288 	bic.w	r2, r2, #4352	; 0x1100
 8003070:	f022 0202 	bic.w	r2, r2, #2
 8003074:	f042 0202 	orr.w	r2, r2, #2
 8003078:	69e5      	ldr	r5, [r4, #28]
 800307a:	68a6      	ldr	r6, [r4, #8]
 800307c:	62a2      	str	r2, [r4, #40]	; 0x28
 800307e:	7b22      	ldrb	r2, [r4, #12]
 8003080:	4329      	orrs	r1, r5
 8003082:	f5b6 7f80 	cmp.w	r6, #256	; 0x100
 8003086:	ea41 0142 	orr.w	r1, r1, r2, lsl #1
 800308a:	d036      	beq.n	80030fa <HAL_ADC_Init+0xba>
 800308c:	1e77      	subs	r7, r6, #1
 800308e:	427d      	negs	r5, r7
 8003090:	417d      	adcs	r5, r7
 8003092:	022d      	lsls	r5, r5, #8
 8003094:	7d27      	ldrb	r7, [r4, #20]
 8003096:	2f01      	cmp	r7, #1
 8003098:	d106      	bne.n	80030a8 <HAL_ADC_Init+0x68>
 800309a:	bb82      	cbnz	r2, 80030fe <HAL_ADC_Init+0xbe>
 800309c:	69a2      	ldr	r2, [r4, #24]
 800309e:	3a01      	subs	r2, #1
 80030a0:	ea45 3242 	orr.w	r2, r5, r2, lsl #13
 80030a4:	f442 6500 	orr.w	r5, r2, #2048	; 0x800
 80030a8:	6822      	ldr	r2, [r4, #0]
 80030aa:	f5b6 7f80 	cmp.w	r6, #256	; 0x100
 80030ae:	6857      	ldr	r7, [r2, #4]
 80030b0:	f427 4769 	bic.w	r7, r7, #59648	; 0xe900
 80030b4:	ea45 0507 	orr.w	r5, r5, r7
 80030b8:	6055      	str	r5, [r2, #4]
 80030ba:	6897      	ldr	r7, [r2, #8]
 80030bc:	4d1d      	ldr	r5, [pc, #116]	; (8003134 <HAL_ADC_Init+0xf4>)
 80030be:	ea05 0507 	and.w	r5, r5, r7
 80030c2:	ea45 0501 	orr.w	r5, r5, r1
 80030c6:	6095      	str	r5, [r2, #8]
 80030c8:	d001      	beq.n	80030ce <HAL_ADC_Init+0x8e>
 80030ca:	2e01      	cmp	r6, #1
 80030cc:	d102      	bne.n	80030d4 <HAL_ADC_Init+0x94>
 80030ce:	6923      	ldr	r3, [r4, #16]
 80030d0:	3b01      	subs	r3, #1
 80030d2:	051b      	lsls	r3, r3, #20
 80030d4:	6ad5      	ldr	r5, [r2, #44]	; 0x2c
 80030d6:	f425 0570 	bic.w	r5, r5, #15728640	; 0xf00000
 80030da:	432b      	orrs	r3, r5
 80030dc:	62d3      	str	r3, [r2, #44]	; 0x2c
 80030de:	6892      	ldr	r2, [r2, #8]
 80030e0:	4b15      	ldr	r3, [pc, #84]	; (8003138 <HAL_ADC_Init+0xf8>)
 80030e2:	4013      	ands	r3, r2
 80030e4:	4299      	cmp	r1, r3
 80030e6:	d113      	bne.n	8003110 <HAL_ADC_Init+0xd0>
 80030e8:	2300      	movs	r3, #0
 80030ea:	62e3      	str	r3, [r4, #44]	; 0x2c
 80030ec:	6aa3      	ldr	r3, [r4, #40]	; 0x28
 80030ee:	f023 0303 	bic.w	r3, r3, #3
 80030f2:	f043 0301 	orr.w	r3, r3, #1
 80030f6:	62a3      	str	r3, [r4, #40]	; 0x28
 80030f8:	bdf8      	pop	{r3, r4, r5, r6, r7, pc}
 80030fa:	4635      	mov	r5, r6
 80030fc:	e7ca      	b.n	8003094 <HAL_ADC_Init+0x54>
 80030fe:	6aa2      	ldr	r2, [r4, #40]	; 0x28
 8003100:	f042 0220 	orr.w	r2, r2, #32
 8003104:	62a2      	str	r2, [r4, #40]	; 0x28
 8003106:	6ae2      	ldr	r2, [r4, #44]	; 0x2c
 8003108:	f042 0201 	orr.w	r2, r2, #1
 800310c:	62e2      	str	r2, [r4, #44]	; 0x2c
 800310e:	e7cb      	b.n	80030a8 <HAL_ADC_Init+0x68>
 8003110:	6aa3      	ldr	r3, [r4, #40]	; 0x28
 8003112:	f023 0312 	bic.w	r3, r3, #18
 8003116:	f043 0310 	orr.w	r3, r3, #16
 800311a:	62a3      	str	r3, [r4, #40]	; 0x28
 800311c:	6ae3      	ldr	r3, [r4, #44]	; 0x2c
 800311e:	f043 0301 	orr.w	r3, r3, #1
 8003122:	62e3      	str	r3, [r4, #44]	; 0x2c
 8003124:	2001      	movs	r0, #1
 8003126:	e7e7      	b.n	80030f8 <HAL_ADC_Init+0xb8>
 8003128:	6aa3      	ldr	r3, [r4, #40]	; 0x28
 800312a:	f043 0310 	orr.w	r3, r3, #16
 800312e:	62a3      	str	r3, [r4, #40]	; 0x28
 8003130:	e7f8      	b.n	8003124 <HAL_ADC_Init+0xe4>
 8003132:	bf00      	nop
 8003134:	ffe1f7fd 	.word	0xffe1f7fd
 8003138:	ff1f0efe 	.word	0xff1f0efe

0800313c <HAL_CAN_Init>:
 800313c:	b538      	push	{r3, r4, r5, lr}
 800313e:	4604      	mov	r4, r0
 8003140:	2800      	cmp	r0, #0
 8003142:	d06e      	beq.n	8003222 <HAL_CAN_Init+0xe6>
 8003144:	f890 3020 	ldrb.w	r3, [r0, #32]
 8003148:	b90b      	cbnz	r3, 800314e <HAL_CAN_Init+0x12>
 800314a:	f7fe f82d 	bl	80011a8 <HAL_CAN_MspInit>
 800314e:	6822      	ldr	r2, [r4, #0]
 8003150:	6813      	ldr	r3, [r2, #0]
 8003152:	f043 0301 	orr.w	r3, r3, #1
 8003156:	6013      	str	r3, [r2, #0]
 8003158:	f7ff feb6 	bl	8002ec8 <HAL_GetTick>
 800315c:	4605      	mov	r5, r0
 800315e:	6823      	ldr	r3, [r4, #0]
 8003160:	685a      	ldr	r2, [r3, #4]
 8003162:	07d1      	lsls	r1, r2, #31
 8003164:	d551      	bpl.n	800320a <HAL_CAN_Init+0xce>
 8003166:	681a      	ldr	r2, [r3, #0]
 8003168:	f022 0202 	bic.w	r2, r2, #2
 800316c:	601a      	str	r2, [r3, #0]
 800316e:	f7ff feab 	bl	8002ec8 <HAL_GetTick>
 8003172:	4605      	mov	r5, r0
 8003174:	6823      	ldr	r3, [r4, #0]
 8003176:	685a      	ldr	r2, [r3, #4]
 8003178:	0792      	lsls	r2, r2, #30
 800317a:	d454      	bmi.n	8003226 <HAL_CAN_Init+0xea>
 800317c:	7e22      	ldrb	r2, [r4, #24]
 800317e:	2000      	movs	r0, #0
 8003180:	2a01      	cmp	r2, #1
 8003182:	681a      	ldr	r2, [r3, #0]
 8003184:	bf0c      	ite	eq
 8003186:	f042 0280 	orreq.w	r2, r2, #128	; 0x80
 800318a:	f022 0280 	bicne.w	r2, r2, #128	; 0x80
 800318e:	601a      	str	r2, [r3, #0]
 8003190:	7e62      	ldrb	r2, [r4, #25]
 8003192:	2a01      	cmp	r2, #1
 8003194:	681a      	ldr	r2, [r3, #0]
 8003196:	bf0c      	ite	eq
 8003198:	f042 0240 	orreq.w	r2, r2, #64	; 0x40
 800319c:	f022 0240 	bicne.w	r2, r2, #64	; 0x40
 80031a0:	601a      	str	r2, [r3, #0]
 80031a2:	7ea2      	ldrb	r2, [r4, #26]
 80031a4:	2a01      	cmp	r2, #1
 80031a6:	681a      	ldr	r2, [r3, #0]
 80031a8:	bf0c      	ite	eq
 80031aa:	f042 0220 	orreq.w	r2, r2, #32
 80031ae:	f022 0220 	bicne.w	r2, r2, #32
 80031b2:	601a      	str	r2, [r3, #0]
 80031b4:	7ee2      	ldrb	r2, [r4, #27]
 80031b6:	2a01      	cmp	r2, #1
 80031b8:	681a      	ldr	r2, [r3, #0]
 80031ba:	bf0c      	ite	eq
 80031bc:	f022 0210 	biceq.w	r2, r2, #16
 80031c0:	f042 0210 	orrne.w	r2, r2, #16
 80031c4:	601a      	str	r2, [r3, #0]
 80031c6:	7f22      	ldrb	r2, [r4, #28]
 80031c8:	2a01      	cmp	r2, #1
 80031ca:	681a      	ldr	r2, [r3, #0]
 80031cc:	bf0c      	ite	eq
 80031ce:	f042 0208 	orreq.w	r2, r2, #8
 80031d2:	f022 0208 	bicne.w	r2, r2, #8
 80031d6:	601a      	str	r2, [r3, #0]
 80031d8:	7f62      	ldrb	r2, [r4, #29]
 80031da:	2a01      	cmp	r2, #1
 80031dc:	681a      	ldr	r2, [r3, #0]
 80031de:	bf0c      	ite	eq
 80031e0:	f042 0204 	orreq.w	r2, r2, #4
 80031e4:	f022 0204 	bicne.w	r2, r2, #4
 80031e8:	601a      	str	r2, [r3, #0]
 80031ea:	e9d4 2102 	ldrd	r2, r1, [r4, #8]
 80031ee:	430a      	orrs	r2, r1
 80031f0:	6921      	ldr	r1, [r4, #16]
 80031f2:	430a      	orrs	r2, r1
 80031f4:	6961      	ldr	r1, [r4, #20]
 80031f6:	430a      	orrs	r2, r1
 80031f8:	6861      	ldr	r1, [r4, #4]
 80031fa:	3901      	subs	r1, #1
 80031fc:	430a      	orrs	r2, r1
 80031fe:	61da      	str	r2, [r3, #28]
 8003200:	2301      	movs	r3, #1
 8003202:	6260      	str	r0, [r4, #36]	; 0x24
 8003204:	f884 3020 	strb.w	r3, [r4, #32]
 8003208:	bd38      	pop	{r3, r4, r5, pc}
 800320a:	f7ff fe5d 	bl	8002ec8 <HAL_GetTick>
 800320e:	1b40      	subs	r0, r0, r5
 8003210:	280a      	cmp	r0, #10
 8003212:	d9a4      	bls.n	800315e <HAL_CAN_Init+0x22>
 8003214:	6a63      	ldr	r3, [r4, #36]	; 0x24
 8003216:	f443 3300 	orr.w	r3, r3, #131072	; 0x20000
 800321a:	6263      	str	r3, [r4, #36]	; 0x24
 800321c:	2305      	movs	r3, #5
 800321e:	f884 3020 	strb.w	r3, [r4, #32]
 8003222:	2001      	movs	r0, #1
 8003224:	e7f0      	b.n	8003208 <HAL_CAN_Init+0xcc>
 8003226:	f7ff fe4f 	bl	8002ec8 <HAL_GetTick>
 800322a:	1b40      	subs	r0, r0, r5
 800322c:	280a      	cmp	r0, #10
 800322e:	d9a1      	bls.n	8003174 <HAL_CAN_Init+0x38>
 8003230:	e7f0      	b.n	8003214 <HAL_CAN_Init+0xd8>

08003232 <HAL_CAN_ConfigFilter>:
 8003232:	b570      	push	{r4, r5, r6, lr}
 8003234:	f890 2020 	ldrb.w	r2, [r0, #32]
 8003238:	6803      	ldr	r3, [r0, #0]
 800323a:	3a01      	subs	r2, #1
 800323c:	2a01      	cmp	r2, #1
 800323e:	d862      	bhi.n	8003306 <HAL_CAN_ConfigFilter+0xd4>
 8003240:	2001      	movs	r0, #1
 8003242:	f8d3 2200 	ldr.w	r2, [r3, #512]	; 0x200
 8003246:	f042 0201 	orr.w	r2, r2, #1
 800324a:	f8c3 2200 	str.w	r2, [r3, #512]	; 0x200
 800324e:	694a      	ldr	r2, [r1, #20]
 8003250:	f8d3 521c 	ldr.w	r5, [r3, #540]	; 0x21c
 8003254:	f002 041f 	and.w	r4, r2, #31
 8003258:	40a0      	lsls	r0, r4
 800325a:	ea25 0500 	bic.w	r5, r5, r0
 800325e:	f8c3 521c 	str.w	r5, [r3, #540]	; 0x21c
 8003262:	69cd      	ldr	r5, [r1, #28]
 8003264:	43c4      	mvns	r4, r0
 8003266:	bb95      	cbnz	r5, 80032ce <HAL_CAN_ConfigFilter+0x9c>
 8003268:	f8d3 520c 	ldr.w	r5, [r3, #524]	; 0x20c
 800326c:	68ce      	ldr	r6, [r1, #12]
 800326e:	4025      	ands	r5, r4
 8003270:	f8c3 520c 	str.w	r5, [r3, #524]	; 0x20c
 8003274:	888d      	ldrh	r5, [r1, #4]
 8003276:	eb03 02c2 	add.w	r2, r3, r2, lsl #3
 800327a:	ea45 4506 	orr.w	r5, r5, r6, lsl #16
 800327e:	f8c2 5240 	str.w	r5, [r2, #576]	; 0x240
 8003282:	688e      	ldr	r6, [r1, #8]
 8003284:	880d      	ldrh	r5, [r1, #0]
 8003286:	ea45 4506 	orr.w	r5, r5, r6, lsl #16
 800328a:	f8c2 5244 	str.w	r5, [r2, #580]	; 0x244
 800328e:	698a      	ldr	r2, [r1, #24]
 8003290:	bb7a      	cbnz	r2, 80032f2 <HAL_CAN_ConfigFilter+0xc0>
 8003292:	f8d3 2204 	ldr.w	r2, [r3, #516]	; 0x204
 8003296:	4022      	ands	r2, r4
 8003298:	f8c3 2204 	str.w	r2, [r3, #516]	; 0x204
 800329c:	690a      	ldr	r2, [r1, #16]
 800329e:	bb62      	cbnz	r2, 80032fa <HAL_CAN_ConfigFilter+0xc8>
 80032a0:	f8d3 2214 	ldr.w	r2, [r3, #532]	; 0x214
 80032a4:	4014      	ands	r4, r2
 80032a6:	f8c3 4214 	str.w	r4, [r3, #532]	; 0x214
 80032aa:	6a0a      	ldr	r2, [r1, #32]
 80032ac:	2a01      	cmp	r2, #1
 80032ae:	bf04      	itt	eq
 80032b0:	f8d3 221c 	ldreq.w	r2, [r3, #540]	; 0x21c
 80032b4:	4302      	orreq	r2, r0
 80032b6:	f04f 0000 	mov.w	r0, #0
 80032ba:	bf08      	it	eq
 80032bc:	f8c3 221c 	streq.w	r2, [r3, #540]	; 0x21c
 80032c0:	f8d3 2200 	ldr.w	r2, [r3, #512]	; 0x200
 80032c4:	f022 0201 	bic.w	r2, r2, #1
 80032c8:	f8c3 2200 	str.w	r2, [r3, #512]	; 0x200
 80032cc:	bd70      	pop	{r4, r5, r6, pc}
 80032ce:	2d01      	cmp	r5, #1
 80032d0:	d1dd      	bne.n	800328e <HAL_CAN_ConfigFilter+0x5c>
 80032d2:	f8d3 520c 	ldr.w	r5, [r3, #524]	; 0x20c
 80032d6:	680e      	ldr	r6, [r1, #0]
 80032d8:	4305      	orrs	r5, r0
 80032da:	f8c3 520c 	str.w	r5, [r3, #524]	; 0x20c
 80032de:	888d      	ldrh	r5, [r1, #4]
 80032e0:	eb03 02c2 	add.w	r2, r3, r2, lsl #3
 80032e4:	ea45 4506 	orr.w	r5, r5, r6, lsl #16
 80032e8:	f8c2 5240 	str.w	r5, [r2, #576]	; 0x240
 80032ec:	688e      	ldr	r6, [r1, #8]
 80032ee:	898d      	ldrh	r5, [r1, #12]
 80032f0:	e7c9      	b.n	8003286 <HAL_CAN_ConfigFilter+0x54>
 80032f2:	f8d3 2204 	ldr.w	r2, [r3, #516]	; 0x204
 80032f6:	4302      	orrs	r2, r0
 80032f8:	e7ce      	b.n	8003298 <HAL_CAN_ConfigFilter+0x66>
 80032fa:	f8d3 2214 	ldr.w	r2, [r3, #532]	; 0x214
 80032fe:	4302      	orrs	r2, r0
 8003300:	f8c3 2214 	str.w	r2, [r3, #532]	; 0x214
 8003304:	e7d1      	b.n	80032aa <HAL_CAN_ConfigFilter+0x78>
 8003306:	6a43      	ldr	r3, [r0, #36]	; 0x24
 8003308:	f443 2380 	orr.w	r3, r3, #262144	; 0x40000
 800330c:	6243      	str	r3, [r0, #36]	; 0x24
 800330e:	2001      	movs	r0, #1
 8003310:	e7dc      	b.n	80032cc <HAL_CAN_ConfigFilter+0x9a>

08003312 <HAL_CAN_Start>:
 8003312:	b570      	push	{r4, r5, r6, lr}
 8003314:	f890 3020 	ldrb.w	r3, [r0, #32]
 8003318:	4604      	mov	r4, r0
 800331a:	2b01      	cmp	r3, #1
 800331c:	b2dd      	uxtb	r5, r3
 800331e:	d120      	bne.n	8003362 <HAL_CAN_Start+0x50>
 8003320:	2302      	movs	r3, #2
 8003322:	6802      	ldr	r2, [r0, #0]
 8003324:	f880 3020 	strb.w	r3, [r0, #32]
 8003328:	6813      	ldr	r3, [r2, #0]
 800332a:	f023 0301 	bic.w	r3, r3, #1
 800332e:	6013      	str	r3, [r2, #0]
 8003330:	f7ff fdca 	bl	8002ec8 <HAL_GetTick>
 8003334:	4606      	mov	r6, r0
 8003336:	6823      	ldr	r3, [r4, #0]
 8003338:	685b      	ldr	r3, [r3, #4]
 800333a:	f013 0301 	ands.w	r3, r3, #1
 800333e:	d102      	bne.n	8003346 <HAL_CAN_Start+0x34>
 8003340:	461d      	mov	r5, r3
 8003342:	6263      	str	r3, [r4, #36]	; 0x24
 8003344:	e00b      	b.n	800335e <HAL_CAN_Start+0x4c>
 8003346:	f7ff fdbf 	bl	8002ec8 <HAL_GetTick>
 800334a:	1b80      	subs	r0, r0, r6
 800334c:	280a      	cmp	r0, #10
 800334e:	d9f2      	bls.n	8003336 <HAL_CAN_Start+0x24>
 8003350:	6a63      	ldr	r3, [r4, #36]	; 0x24
 8003352:	f443 3300 	orr.w	r3, r3, #131072	; 0x20000
 8003356:	6263      	str	r3, [r4, #36]	; 0x24
 8003358:	2305      	movs	r3, #5
 800335a:	f884 3020 	strb.w	r3, [r4, #32]
 800335e:	4628      	mov	r0, r5
 8003360:	bd70      	pop	{r4, r5, r6, pc}
 8003362:	6a43      	ldr	r3, [r0, #36]	; 0x24
 8003364:	2501      	movs	r5, #1
 8003366:	f443 2300 	orr.w	r3, r3, #524288	; 0x80000
 800336a:	6243      	str	r3, [r0, #36]	; 0x24
 800336c:	e7f7      	b.n	800335e <HAL_CAN_Start+0x4c>

0800336e <HAL_CAN_AddTxMessage>:
 800336e:	b5f0      	push	{r4, r5, r6, r7, lr}
 8003370:	4605      	mov	r5, r0
 8003372:	f890 0020 	ldrb.w	r0, [r0, #32]
 8003376:	682e      	ldr	r6, [r5, #0]
 8003378:	3801      	subs	r0, #1
 800337a:	2801      	cmp	r0, #1
 800337c:	68b4      	ldr	r4, [r6, #8]
 800337e:	d83c      	bhi.n	80033fa <HAL_CAN_AddTxMessage+0x8c>
 8003380:	f014 5fe0 	tst.w	r4, #469762048	; 0x1c000000
 8003384:	f04f 0001 	mov.w	r0, #1
 8003388:	d032      	beq.n	80033f0 <HAL_CAN_AddTxMessage+0x82>
 800338a:	f3c4 6401 	ubfx	r4, r4, #24, #2
 800338e:	40a0      	lsls	r0, r4
 8003390:	6018      	str	r0, [r3, #0]
 8003392:	e9d1 0702 	ldrd	r0, r7, [r1, #8]
 8003396:	f104 0318 	add.w	r3, r4, #24
 800339a:	bb10      	cbnz	r0, 80033e2 <HAL_CAN_AddTxMessage+0x74>
 800339c:	6808      	ldr	r0, [r1, #0]
 800339e:	011b      	lsls	r3, r3, #4
 80033a0:	ea47 5740 	orr.w	r7, r7, r0, lsl #21
 80033a4:	50f7      	str	r7, [r6, r3]
 80033a6:	0120      	lsls	r0, r4, #4
 80033a8:	eb06 1304 	add.w	r3, r6, r4, lsl #4
 80033ac:	4406      	add	r6, r0
 80033ae:	2000      	movs	r0, #0
 80033b0:	690d      	ldr	r5, [r1, #16]
 80033b2:	f8c3 5184 	str.w	r5, [r3, #388]	; 0x184
 80033b6:	7d09      	ldrb	r1, [r1, #20]
 80033b8:	2901      	cmp	r1, #1
 80033ba:	bf02      	ittt	eq
 80033bc:	f8d3 1184 	ldreq.w	r1, [r3, #388]	; 0x184
 80033c0:	f441 7180 	orreq.w	r1, r1, #256	; 0x100
 80033c4:	f8c3 1184 	streq.w	r1, [r3, #388]	; 0x184
 80033c8:	6851      	ldr	r1, [r2, #4]
 80033ca:	f8c6 118c 	str.w	r1, [r6, #396]	; 0x18c
 80033ce:	6812      	ldr	r2, [r2, #0]
 80033d0:	f8c6 2188 	str.w	r2, [r6, #392]	; 0x188
 80033d4:	f8d3 2180 	ldr.w	r2, [r3, #384]	; 0x180
 80033d8:	f042 0201 	orr.w	r2, r2, #1
 80033dc:	f8c3 2180 	str.w	r2, [r3, #384]	; 0x180
 80033e0:	bdf0      	pop	{r4, r5, r6, r7, pc}
 80033e2:	684d      	ldr	r5, [r1, #4]
 80033e4:	4338      	orrs	r0, r7
 80033e6:	ea40 00c5 	orr.w	r0, r0, r5, lsl #3
 80033ea:	011b      	lsls	r3, r3, #4
 80033ec:	50f0      	str	r0, [r6, r3]
 80033ee:	e7da      	b.n	80033a6 <HAL_CAN_AddTxMessage+0x38>
 80033f0:	6a6b      	ldr	r3, [r5, #36]	; 0x24
 80033f2:	f443 1300 	orr.w	r3, r3, #2097152	; 0x200000
 80033f6:	626b      	str	r3, [r5, #36]	; 0x24
 80033f8:	e7f2      	b.n	80033e0 <HAL_CAN_AddTxMessage+0x72>
 80033fa:	6a6b      	ldr	r3, [r5, #36]	; 0x24
 80033fc:	2001      	movs	r0, #1
 80033fe:	f443 2380 	orr.w	r3, r3, #262144	; 0x40000
 8003402:	626b      	str	r3, [r5, #36]	; 0x24
 8003404:	e7ec      	b.n	80033e0 <HAL_CAN_AddTxMessage+0x72>

08003406 <HAL_CAN_GetTxMailboxesFreeLevel>:
 8003406:	f890 3020 	ldrb.w	r3, [r0, #32]
 800340a:	3b01      	subs	r3, #1
 800340c:	2b01      	cmp	r3, #1
 800340e:	d80c      	bhi.n	800342a <HAL_CAN_GetTxMailboxesFreeLevel+0x24>
 8003410:	6803      	ldr	r3, [r0, #0]
 8003412:	6898      	ldr	r0, [r3, #8]
 8003414:	689a      	ldr	r2, [r3, #8]
 8003416:	689b      	ldr	r3, [r3, #8]
 8003418:	0112      	lsls	r2, r2, #4
 800341a:	f3c0 6080 	ubfx	r0, r0, #26, #1
 800341e:	bf48      	it	mi
 8003420:	3001      	addmi	r0, #1
 8003422:	00db      	lsls	r3, r3, #3
 8003424:	d502      	bpl.n	800342c <HAL_CAN_GetTxMailboxesFreeLevel+0x26>
 8003426:	3001      	adds	r0, #1
 8003428:	4770      	bx	lr
 800342a:	2000      	movs	r0, #0
 800342c:	4770      	bx	lr

0800342e <HAL_CAN_GetRxMessage>:
 800342e:	b5f0      	push	{r4, r5, r6, r7, lr}
 8003430:	4604      	mov	r4, r0
 8003432:	4608      	mov	r0, r1
 8003434:	f894 1020 	ldrb.w	r1, [r4, #32]
 8003438:	3901      	subs	r1, #1
 800343a:	2901      	cmp	r1, #1
 800343c:	d871      	bhi.n	8003522 <HAL_CAN_GetRxMessage+0xf4>
 800343e:	6826      	ldr	r6, [r4, #0]
 8003440:	b940      	cbnz	r0, 8003454 <HAL_CAN_GetRxMessage+0x26>
 8003442:	68f1      	ldr	r1, [r6, #12]
 8003444:	0789      	lsls	r1, r1, #30
 8003446:	d107      	bne.n	8003458 <HAL_CAN_GetRxMessage+0x2a>
 8003448:	6a63      	ldr	r3, [r4, #36]	; 0x24
 800344a:	f443 1300 	orr.w	r3, r3, #2097152	; 0x200000
 800344e:	2001      	movs	r0, #1
 8003450:	6263      	str	r3, [r4, #36]	; 0x24
 8003452:	e05a      	b.n	800350a <HAL_CAN_GetRxMessage+0xdc>
 8003454:	6931      	ldr	r1, [r6, #16]
 8003456:	e7f5      	b.n	8003444 <HAL_CAN_GetRxMessage+0x16>
 8003458:	eb06 1500 	add.w	r5, r6, r0, lsl #4
 800345c:	f8d5 71b0 	ldr.w	r7, [r5, #432]	; 0x1b0
 8003460:	0101      	lsls	r1, r0, #4
 8003462:	f007 0704 	and.w	r7, r7, #4
 8003466:	6097      	str	r7, [r2, #8]
 8003468:	2f00      	cmp	r7, #0
 800346a:	d14f      	bne.n	800350c <HAL_CAN_GetRxMessage+0xde>
 800346c:	f8d5 71b0 	ldr.w	r7, [r5, #432]	; 0x1b0
 8003470:	0d7f      	lsrs	r7, r7, #21
 8003472:	6017      	str	r7, [r2, #0]
 8003474:	f8d5 71b0 	ldr.w	r7, [r5, #432]	; 0x1b0
 8003478:	440e      	add	r6, r1
 800347a:	f007 0702 	and.w	r7, r7, #2
 800347e:	60d7      	str	r7, [r2, #12]
 8003480:	f8d5 71b4 	ldr.w	r7, [r5, #436]	; 0x1b4
 8003484:	073f      	lsls	r7, r7, #28
 8003486:	bf4e      	itee	mi
 8003488:	2708      	movmi	r7, #8
 800348a:	f8d5 71b4 	ldrpl.w	r7, [r5, #436]	; 0x1b4
 800348e:	f007 070f 	andpl.w	r7, r7, #15
 8003492:	6117      	str	r7, [r2, #16]
 8003494:	f8d5 71b4 	ldr.w	r7, [r5, #436]	; 0x1b4
 8003498:	f8d5 51b4 	ldr.w	r5, [r5, #436]	; 0x1b4
 800349c:	f3c7 2707 	ubfx	r7, r7, #8, #8
 80034a0:	0c2d      	lsrs	r5, r5, #16
 80034a2:	6197      	str	r7, [r2, #24]
 80034a4:	6155      	str	r5, [r2, #20]
 80034a6:	f8d6 21b8 	ldr.w	r2, [r6, #440]	; 0x1b8
 80034aa:	701a      	strb	r2, [r3, #0]
 80034ac:	6822      	ldr	r2, [r4, #0]
 80034ae:	440a      	add	r2, r1
 80034b0:	f8d2 21b8 	ldr.w	r2, [r2, #440]	; 0x1b8
 80034b4:	0a12      	lsrs	r2, r2, #8
 80034b6:	705a      	strb	r2, [r3, #1]
 80034b8:	6822      	ldr	r2, [r4, #0]
 80034ba:	440a      	add	r2, r1
 80034bc:	f8d2 21b8 	ldr.w	r2, [r2, #440]	; 0x1b8
 80034c0:	0c12      	lsrs	r2, r2, #16
 80034c2:	709a      	strb	r2, [r3, #2]
 80034c4:	6822      	ldr	r2, [r4, #0]
 80034c6:	440a      	add	r2, r1
 80034c8:	f8d2 21b8 	ldr.w	r2, [r2, #440]	; 0x1b8
 80034cc:	0e12      	lsrs	r2, r2, #24
 80034ce:	70da      	strb	r2, [r3, #3]
 80034d0:	6822      	ldr	r2, [r4, #0]
 80034d2:	440a      	add	r2, r1
 80034d4:	f8d2 21bc 	ldr.w	r2, [r2, #444]	; 0x1bc
 80034d8:	711a      	strb	r2, [r3, #4]
 80034da:	6822      	ldr	r2, [r4, #0]
 80034dc:	440a      	add	r2, r1
 80034de:	f8d2 21bc 	ldr.w	r2, [r2, #444]	; 0x1bc
 80034e2:	0a12      	lsrs	r2, r2, #8
 80034e4:	715a      	strb	r2, [r3, #5]
 80034e6:	6822      	ldr	r2, [r4, #0]
 80034e8:	440a      	add	r2, r1
 80034ea:	f8d2 21bc 	ldr.w	r2, [r2, #444]	; 0x1bc
 80034ee:	0c12      	lsrs	r2, r2, #16
 80034f0:	719a      	strb	r2, [r3, #6]
 80034f2:	6822      	ldr	r2, [r4, #0]
 80034f4:	440a      	add	r2, r1
 80034f6:	f8d2 21bc 	ldr.w	r2, [r2, #444]	; 0x1bc
 80034fa:	0e12      	lsrs	r2, r2, #24
 80034fc:	71da      	strb	r2, [r3, #7]
 80034fe:	6823      	ldr	r3, [r4, #0]
 8003500:	b948      	cbnz	r0, 8003516 <HAL_CAN_GetRxMessage+0xe8>
 8003502:	68da      	ldr	r2, [r3, #12]
 8003504:	f042 0220 	orr.w	r2, r2, #32
 8003508:	60da      	str	r2, [r3, #12]
 800350a:	bdf0      	pop	{r4, r5, r6, r7, pc}
 800350c:	f8d5 71b0 	ldr.w	r7, [r5, #432]	; 0x1b0
 8003510:	08ff      	lsrs	r7, r7, #3
 8003512:	6057      	str	r7, [r2, #4]
 8003514:	e7ae      	b.n	8003474 <HAL_CAN_GetRxMessage+0x46>
 8003516:	691a      	ldr	r2, [r3, #16]
 8003518:	2000      	movs	r0, #0
 800351a:	f042 0220 	orr.w	r2, r2, #32
 800351e:	611a      	str	r2, [r3, #16]
 8003520:	e7f3      	b.n	800350a <HAL_CAN_GetRxMessage+0xdc>
 8003522:	6a63      	ldr	r3, [r4, #36]	; 0x24
 8003524:	f443 2380 	orr.w	r3, r3, #262144	; 0x40000
 8003528:	e791      	b.n	800344e <HAL_CAN_GetRxMessage+0x20>

0800352a <HAL_CAN_ActivateNotification>:
 800352a:	f890 3020 	ldrb.w	r3, [r0, #32]
 800352e:	3b01      	subs	r3, #1
 8003530:	2b01      	cmp	r3, #1
 8003532:	d805      	bhi.n	8003540 <HAL_CAN_ActivateNotification+0x16>
 8003534:	6802      	ldr	r2, [r0, #0]
 8003536:	2000      	movs	r0, #0
 8003538:	6953      	ldr	r3, [r2, #20]
 800353a:	4319      	orrs	r1, r3
 800353c:	6151      	str	r1, [r2, #20]
 800353e:	4770      	bx	lr
 8003540:	6a43      	ldr	r3, [r0, #36]	; 0x24
 8003542:	f443 2380 	orr.w	r3, r3, #262144	; 0x40000
 8003546:	6243      	str	r3, [r0, #36]	; 0x24
 8003548:	2001      	movs	r0, #1
 800354a:	4770      	bx	lr

0800354c <HAL_CAN_TxMailbox0AbortCallback>:
 800354c:	4770      	bx	lr

0800354e <HAL_CAN_TxMailbox1AbortCallback>:
 800354e:	4770      	bx	lr

08003550 <HAL_CAN_TxMailbox2AbortCallback>:
 8003550:	4770      	bx	lr

08003552 <HAL_CAN_RxFifo0FullCallback>:
 8003552:	4770      	bx	lr

08003554 <HAL_CAN_RxFifo1FullCallback>:
 8003554:	4770      	bx	lr

08003556 <HAL_CAN_SleepCallback>:
 8003556:	4770      	bx	lr

08003558 <HAL_CAN_WakeUpFromRxMsgCallback>:
 8003558:	4770      	bx	lr

0800355a <HAL_CAN_ErrorCallback>:
 800355a:	4770      	bx	lr

0800355c <HAL_CAN_IRQHandler>:
 800355c:	e92d 4ff8 	stmdb	sp!, {r3, r4, r5, r6, r7, r8, r9, sl, fp, lr}
 8003560:	6803      	ldr	r3, [r0, #0]
 8003562:	4605      	mov	r5, r0
 8003564:	695e      	ldr	r6, [r3, #20]
 8003566:	f8d3 9004 	ldr.w	r9, [r3, #4]
 800356a:	f016 0401 	ands.w	r4, r6, #1
 800356e:	689f      	ldr	r7, [r3, #8]
 8003570:	f8d3 b00c 	ldr.w	fp, [r3, #12]
 8003574:	f8d3 a010 	ldr.w	sl, [r3, #16]
 8003578:	f8d3 8018 	ldr.w	r8, [r3, #24]
 800357c:	d022      	beq.n	80035c4 <HAL_CAN_IRQHandler+0x68>
 800357e:	f017 0401 	ands.w	r4, r7, #1
 8003582:	d007      	beq.n	8003594 <HAL_CAN_IRQHandler+0x38>
 8003584:	2201      	movs	r2, #1
 8003586:	07b9      	lsls	r1, r7, #30
 8003588:	609a      	str	r2, [r3, #8]
 800358a:	f140 80a5 	bpl.w	80036d8 <HAL_CAN_IRQHandler+0x17c>
 800358e:	f7fe fef9 	bl	8002384 <HAL_CAN_TxMailbox0CompleteCallback>
 8003592:	2400      	movs	r4, #0
 8003594:	05fb      	lsls	r3, r7, #23
 8003596:	d509      	bpl.n	80035ac <HAL_CAN_IRQHandler+0x50>
 8003598:	f44f 7280 	mov.w	r2, #256	; 0x100
 800359c:	682b      	ldr	r3, [r5, #0]
 800359e:	05b8      	lsls	r0, r7, #22
 80035a0:	609a      	str	r2, [r3, #8]
 80035a2:	f140 80a7 	bpl.w	80036f4 <HAL_CAN_IRQHandler+0x198>
 80035a6:	4628      	mov	r0, r5
 80035a8:	f7fe feef 	bl	800238a <HAL_CAN_TxMailbox1CompleteCallback>
 80035ac:	03fb      	lsls	r3, r7, #15
 80035ae:	d509      	bpl.n	80035c4 <HAL_CAN_IRQHandler+0x68>
 80035b0:	f44f 3280 	mov.w	r2, #65536	; 0x10000
 80035b4:	682b      	ldr	r3, [r5, #0]
 80035b6:	03b8      	lsls	r0, r7, #14
 80035b8:	609a      	str	r2, [r3, #8]
 80035ba:	f140 80a9 	bpl.w	8003710 <HAL_CAN_IRQHandler+0x1b4>
 80035be:	4628      	mov	r0, r5
 80035c0:	f7fe fee5 	bl	800238e <HAL_CAN_TxMailbox2CompleteCallback>
 80035c4:	0733      	lsls	r3, r6, #28
 80035c6:	d507      	bpl.n	80035d8 <HAL_CAN_IRQHandler+0x7c>
 80035c8:	f01b 0f10 	tst.w	fp, #16
 80035cc:	bf1f      	itttt	ne
 80035ce:	2210      	movne	r2, #16
 80035d0:	682b      	ldrne	r3, [r5, #0]
 80035d2:	f444 7400 	orrne.w	r4, r4, #512	; 0x200
 80035d6:	60da      	strne	r2, [r3, #12]
 80035d8:	0777      	lsls	r7, r6, #29
 80035da:	d508      	bpl.n	80035ee <HAL_CAN_IRQHandler+0x92>
 80035dc:	f01b 0f08 	tst.w	fp, #8
 80035e0:	d005      	beq.n	80035ee <HAL_CAN_IRQHandler+0x92>
 80035e2:	2208      	movs	r2, #8
 80035e4:	682b      	ldr	r3, [r5, #0]
 80035e6:	4628      	mov	r0, r5
 80035e8:	60da      	str	r2, [r3, #12]
 80035ea:	f7ff ffb2 	bl	8003552 <HAL_CAN_RxFifo0FullCallback>
 80035ee:	07b0      	lsls	r0, r6, #30
 80035f0:	d506      	bpl.n	8003600 <HAL_CAN_IRQHandler+0xa4>
 80035f2:	682b      	ldr	r3, [r5, #0]
 80035f4:	68db      	ldr	r3, [r3, #12]
 80035f6:	0799      	lsls	r1, r3, #30
 80035f8:	d002      	beq.n	8003600 <HAL_CAN_IRQHandler+0xa4>
 80035fa:	4628      	mov	r0, r5
 80035fc:	f7fe fe84 	bl	8002308 <HAL_CAN_RxFifo0MsgPendingCallback>
 8003600:	0672      	lsls	r2, r6, #25
 8003602:	d507      	bpl.n	8003614 <HAL_CAN_IRQHandler+0xb8>
 8003604:	f01a 0f10 	tst.w	sl, #16
 8003608:	bf1f      	itttt	ne
 800360a:	2210      	movne	r2, #16
 800360c:	682b      	ldrne	r3, [r5, #0]
 800360e:	f444 6480 	orrne.w	r4, r4, #1024	; 0x400
 8003612:	611a      	strne	r2, [r3, #16]
 8003614:	06b3      	lsls	r3, r6, #26
 8003616:	d508      	bpl.n	800362a <HAL_CAN_IRQHandler+0xce>
 8003618:	f01a 0f08 	tst.w	sl, #8
 800361c:	d005      	beq.n	800362a <HAL_CAN_IRQHandler+0xce>
 800361e:	2208      	movs	r2, #8
 8003620:	682b      	ldr	r3, [r5, #0]
 8003622:	4628      	mov	r0, r5
 8003624:	611a      	str	r2, [r3, #16]
 8003626:	f7ff ff95 	bl	8003554 <HAL_CAN_RxFifo1FullCallback>
 800362a:	06f7      	lsls	r7, r6, #27
 800362c:	d506      	bpl.n	800363c <HAL_CAN_IRQHandler+0xe0>
 800362e:	682b      	ldr	r3, [r5, #0]
 8003630:	691b      	ldr	r3, [r3, #16]
 8003632:	0798      	lsls	r0, r3, #30
 8003634:	d002      	beq.n	800363c <HAL_CAN_IRQHandler+0xe0>
 8003636:	4628      	mov	r0, r5
 8003638:	f7fe fe70 	bl	800231c <HAL_CAN_RxFifo1MsgPendingCallback>
 800363c:	03b1      	lsls	r1, r6, #14
 800363e:	d508      	bpl.n	8003652 <HAL_CAN_IRQHandler+0xf6>
 8003640:	f019 0f10 	tst.w	r9, #16
 8003644:	d005      	beq.n	8003652 <HAL_CAN_IRQHandler+0xf6>
 8003646:	2210      	movs	r2, #16
 8003648:	682b      	ldr	r3, [r5, #0]
 800364a:	4628      	mov	r0, r5
 800364c:	605a      	str	r2, [r3, #4]
 800364e:	f7ff ff82 	bl	8003556 <HAL_CAN_SleepCallback>
 8003652:	03f2      	lsls	r2, r6, #15
 8003654:	d508      	bpl.n	8003668 <HAL_CAN_IRQHandler+0x10c>
 8003656:	f019 0f08 	tst.w	r9, #8
 800365a:	d005      	beq.n	8003668 <HAL_CAN_IRQHandler+0x10c>
 800365c:	2208      	movs	r2, #8
 800365e:	682b      	ldr	r3, [r5, #0]
 8003660:	4628      	mov	r0, r5
 8003662:	605a      	str	r2, [r3, #4]
 8003664:	f7ff ff78 	bl	8003558 <HAL_CAN_WakeUpFromRxMsgCallback>
 8003668:	0433      	lsls	r3, r6, #16
 800366a:	d52c      	bpl.n	80036c6 <HAL_CAN_IRQHandler+0x16a>
 800366c:	f019 0f04 	tst.w	r9, #4
 8003670:	682a      	ldr	r2, [r5, #0]
 8003672:	d026      	beq.n	80036c2 <HAL_CAN_IRQHandler+0x166>
 8003674:	05f7      	lsls	r7, r6, #23
 8003676:	d504      	bpl.n	8003682 <HAL_CAN_IRQHandler+0x126>
 8003678:	f018 0f01 	tst.w	r8, #1
 800367c:	bf18      	it	ne
 800367e:	f044 0401 	orrne.w	r4, r4, #1
 8003682:	05b0      	lsls	r0, r6, #22
 8003684:	d504      	bpl.n	8003690 <HAL_CAN_IRQHandler+0x134>
 8003686:	f018 0f02 	tst.w	r8, #2
 800368a:	bf18      	it	ne
 800368c:	f044 0402 	orrne.w	r4, r4, #2
 8003690:	0571      	lsls	r1, r6, #21
 8003692:	d504      	bpl.n	800369e <HAL_CAN_IRQHandler+0x142>
 8003694:	f018 0f04 	tst.w	r8, #4
 8003698:	bf18      	it	ne
 800369a:	f044 0404 	orrne.w	r4, r4, #4
 800369e:	0533      	lsls	r3, r6, #20
 80036a0:	d50f      	bpl.n	80036c2 <HAL_CAN_IRQHandler+0x166>
 80036a2:	f018 0370 	ands.w	r3, r8, #112	; 0x70
 80036a6:	d00c      	beq.n	80036c2 <HAL_CAN_IRQHandler+0x166>
 80036a8:	2b40      	cmp	r3, #64	; 0x40
 80036aa:	d04f      	beq.n	800374c <HAL_CAN_IRQHandler+0x1f0>
 80036ac:	d83e      	bhi.n	800372c <HAL_CAN_IRQHandler+0x1d0>
 80036ae:	2b20      	cmp	r3, #32
 80036b0:	d046      	beq.n	8003740 <HAL_CAN_IRQHandler+0x1e4>
 80036b2:	2b30      	cmp	r3, #48	; 0x30
 80036b4:	d047      	beq.n	8003746 <HAL_CAN_IRQHandler+0x1ea>
 80036b6:	2b10      	cmp	r3, #16
 80036b8:	d03f      	beq.n	800373a <HAL_CAN_IRQHandler+0x1de>
 80036ba:	6993      	ldr	r3, [r2, #24]
 80036bc:	f023 0370 	bic.w	r3, r3, #112	; 0x70
 80036c0:	6193      	str	r3, [r2, #24]
 80036c2:	2304      	movs	r3, #4
 80036c4:	6053      	str	r3, [r2, #4]
 80036c6:	b12c      	cbz	r4, 80036d4 <HAL_CAN_IRQHandler+0x178>
 80036c8:	6a6b      	ldr	r3, [r5, #36]	; 0x24
 80036ca:	4628      	mov	r0, r5
 80036cc:	4323      	orrs	r3, r4
 80036ce:	626b      	str	r3, [r5, #36]	; 0x24
 80036d0:	f7ff ff43 	bl	800355a <HAL_CAN_ErrorCallback>
 80036d4:	e8bd 8ff8 	ldmia.w	sp!, {r3, r4, r5, r6, r7, r8, r9, sl, fp, pc}
 80036d8:	077a      	lsls	r2, r7, #29
 80036da:	d405      	bmi.n	80036e8 <HAL_CAN_IRQHandler+0x18c>
 80036dc:	f017 0408 	ands.w	r4, r7, #8
 80036e0:	d105      	bne.n	80036ee <HAL_CAN_IRQHandler+0x192>
 80036e2:	f7ff ff33 	bl	800354c <HAL_CAN_TxMailbox0AbortCallback>
 80036e6:	e755      	b.n	8003594 <HAL_CAN_IRQHandler+0x38>
 80036e8:	f44f 6400 	mov.w	r4, #2048	; 0x800
 80036ec:	e752      	b.n	8003594 <HAL_CAN_IRQHandler+0x38>
 80036ee:	f44f 5480 	mov.w	r4, #4096	; 0x1000
 80036f2:	e74f      	b.n	8003594 <HAL_CAN_IRQHandler+0x38>
 80036f4:	0579      	lsls	r1, r7, #21
 80036f6:	d502      	bpl.n	80036fe <HAL_CAN_IRQHandler+0x1a2>
 80036f8:	f444 5400 	orr.w	r4, r4, #8192	; 0x2000
 80036fc:	e756      	b.n	80035ac <HAL_CAN_IRQHandler+0x50>
 80036fe:	053a      	lsls	r2, r7, #20
 8003700:	d502      	bpl.n	8003708 <HAL_CAN_IRQHandler+0x1ac>
 8003702:	f444 4480 	orr.w	r4, r4, #16384	; 0x4000
 8003706:	e751      	b.n	80035ac <HAL_CAN_IRQHandler+0x50>
 8003708:	4628      	mov	r0, r5
 800370a:	f7ff ff20 	bl	800354e <HAL_CAN_TxMailbox1AbortCallback>
 800370e:	e74d      	b.n	80035ac <HAL_CAN_IRQHandler+0x50>
 8003710:	0379      	lsls	r1, r7, #13
 8003712:	d502      	bpl.n	800371a <HAL_CAN_IRQHandler+0x1be>
 8003714:	f444 4400 	orr.w	r4, r4, #32768	; 0x8000
 8003718:	e754      	b.n	80035c4 <HAL_CAN_IRQHandler+0x68>
 800371a:	033a      	lsls	r2, r7, #12
 800371c:	d502      	bpl.n	8003724 <HAL_CAN_IRQHandler+0x1c8>
 800371e:	f444 3480 	orr.w	r4, r4, #65536	; 0x10000
 8003722:	e74f      	b.n	80035c4 <HAL_CAN_IRQHandler+0x68>
 8003724:	4628      	mov	r0, r5
 8003726:	f7ff ff13 	bl	8003550 <HAL_CAN_TxMailbox2AbortCallback>
 800372a:	e74b      	b.n	80035c4 <HAL_CAN_IRQHandler+0x68>
 800372c:	2b50      	cmp	r3, #80	; 0x50
 800372e:	d010      	beq.n	8003752 <HAL_CAN_IRQHandler+0x1f6>
 8003730:	2b60      	cmp	r3, #96	; 0x60
 8003732:	d1c2      	bne.n	80036ba <HAL_CAN_IRQHandler+0x15e>
 8003734:	f444 7480 	orr.w	r4, r4, #256	; 0x100
 8003738:	e7bf      	b.n	80036ba <HAL_CAN_IRQHandler+0x15e>
 800373a:	f044 0408 	orr.w	r4, r4, #8
 800373e:	e7bc      	b.n	80036ba <HAL_CAN_IRQHandler+0x15e>
 8003740:	f044 0410 	orr.w	r4, r4, #16
 8003744:	e7b9      	b.n	80036ba <HAL_CAN_IRQHandler+0x15e>
 8003746:	f044 0420 	orr.w	r4, r4, #32
 800374a:	e7b6      	b.n	80036ba <HAL_CAN_IRQHandler+0x15e>
 800374c:	f044 0440 	orr.w	r4, r4, #64	; 0x40
 8003750:	e7b3      	b.n	80036ba <HAL_CAN_IRQHandler+0x15e>
 8003752:	f044 0480 	orr.w	r4, r4, #128	; 0x80
 8003756:	e7b0      	b.n	80036ba <HAL_CAN_IRQHandler+0x15e>

08003758 <HAL_NVIC_SetPriorityGrouping>:
 8003758:	4907      	ldr	r1, [pc, #28]	; (8003778 <HAL_NVIC_SetPriorityGrouping+0x20>)
 800375a:	0203      	lsls	r3, r0, #8
 800375c:	68ca      	ldr	r2, [r1, #12]
 800375e:	f403 63e0 	and.w	r3, r3, #1792	; 0x700
 8003762:	f422 62e0 	bic.w	r2, r2, #1792	; 0x700
 8003766:	0412      	lsls	r2, r2, #16
 8003768:	0c12      	lsrs	r2, r2, #16
 800376a:	4313      	orrs	r3, r2
 800376c:	f043 63bf 	orr.w	r3, r3, #100139008	; 0x5f80000
 8003770:	f443 3300 	orr.w	r3, r3, #131072	; 0x20000
 8003774:	60cb      	str	r3, [r1, #12]
 8003776:	4770      	bx	lr
 8003778:	e000ed00 	.word	0xe000ed00

0800377c <HAL_NVIC_SetPriority>:
 800377c:	4b15      	ldr	r3, [pc, #84]	; (80037d4 <HAL_NVIC_SetPriority+0x58>)
 800377e:	b530      	push	{r4, r5, lr}
 8003780:	68dc      	ldr	r4, [r3, #12]
 8003782:	f3c4 2402 	ubfx	r4, r4, #8, #3
 8003786:	f1c4 0307 	rsb	r3, r4, #7
 800378a:	1d25      	adds	r5, r4, #4
 800378c:	2b04      	cmp	r3, #4
 800378e:	bf28      	it	cs
 8003790:	2304      	movcs	r3, #4
 8003792:	2d06      	cmp	r5, #6
 8003794:	f04f 35ff 	mov.w	r5, #4294967295
 8003798:	bf94      	ite	ls
 800379a:	2400      	movls	r4, #0
 800379c:	3c03      	subhi	r4, #3
 800379e:	fa05 f303 	lsl.w	r3, r5, r3
 80037a2:	ea21 0303 	bic.w	r3, r1, r3
 80037a6:	40a5      	lsls	r5, r4
 80037a8:	ea22 0205 	bic.w	r2, r2, r5
 80037ac:	40a3      	lsls	r3, r4
 80037ae:	2800      	cmp	r0, #0
 80037b0:	ea43 0302 	orr.w	r3, r3, r2
 80037b4:	bfac      	ite	ge
 80037b6:	f100 4060 	addge.w	r0, r0, #3758096384	; 0xe0000000
 80037ba:	4a07      	ldrlt	r2, [pc, #28]	; (80037d8 <HAL_NVIC_SetPriority+0x5c>)
 80037bc:	ea4f 1303 	mov.w	r3, r3, lsl #4
 80037c0:	b2db      	uxtb	r3, r3
 80037c2:	bfab      	itete	ge
 80037c4:	f500 4061 	addge.w	r0, r0, #57600	; 0xe100
 80037c8:	f000 000f 	andlt.w	r0, r0, #15
 80037cc:	f880 3300 	strbge.w	r3, [r0, #768]	; 0x300
 80037d0:	5413      	strblt	r3, [r2, r0]
 80037d2:	bd30      	pop	{r4, r5, pc}
 80037d4:	e000ed00 	.word	0xe000ed00
 80037d8:	e000ed14 	.word	0xe000ed14

080037dc <HAL_NVIC_EnableIRQ>:
 80037dc:	2800      	cmp	r0, #0
 80037de:	db07      	blt.n	80037f0 <HAL_NVIC_EnableIRQ+0x14>
 80037e0:	2301      	movs	r3, #1
 80037e2:	0941      	lsrs	r1, r0, #5
 80037e4:	4a03      	ldr	r2, [pc, #12]	; (80037f4 <HAL_NVIC_EnableIRQ+0x18>)
 80037e6:	f000 001f 	and.w	r0, r0, #31
 80037ea:	4083      	lsls	r3, r0
 80037ec:	f842 3021 	str.w	r3, [r2, r1, lsl #2]
 80037f0:	4770      	bx	lr
 80037f2:	bf00      	nop
 80037f4:	e000e100 	.word	0xe000e100

080037f8 <HAL_SYSTICK_Config>:
 80037f8:	3801      	subs	r0, #1
 80037fa:	f1b0 7f80 	cmp.w	r0, #16777216	; 0x1000000
 80037fe:	d20b      	bcs.n	8003818 <HAL_SYSTICK_Config+0x20>
 8003800:	f04f 23e0 	mov.w	r3, #3758153728	; 0xe000e000
 8003804:	21f0      	movs	r1, #240	; 0xf0
 8003806:	4a05      	ldr	r2, [pc, #20]	; (800381c <HAL_SYSTICK_Config+0x24>)
 8003808:	6158      	str	r0, [r3, #20]
 800380a:	f882 1023 	strb.w	r1, [r2, #35]	; 0x23
 800380e:	2000      	movs	r0, #0
 8003810:	2207      	movs	r2, #7
 8003812:	6198      	str	r0, [r3, #24]
 8003814:	611a      	str	r2, [r3, #16]
 8003816:	4770      	bx	lr
 8003818:	2001      	movs	r0, #1
 800381a:	4770      	bx	lr
 800381c:	e000ed00 	.word	0xe000ed00

08003820 <HAL_DMA_Init>:
 8003820:	4603      	mov	r3, r0
 8003822:	b510      	push	{r4, lr}
 8003824:	b340      	cbz	r0, 8003878 <HAL_DMA_Init+0x58>
 8003826:	2114      	movs	r1, #20
 8003828:	6800      	ldr	r0, [r0, #0]
 800382a:	4a14      	ldr	r2, [pc, #80]	; (800387c <HAL_DMA_Init+0x5c>)
 800382c:	4402      	add	r2, r0
 800382e:	fbb2 f2f1 	udiv	r2, r2, r1
 8003832:	0092      	lsls	r2, r2, #2
 8003834:	641a      	str	r2, [r3, #64]	; 0x40
 8003836:	4a12      	ldr	r2, [pc, #72]	; (8003880 <HAL_DMA_Init+0x60>)
 8003838:	63da      	str	r2, [r3, #60]	; 0x3c
 800383a:	2202      	movs	r2, #2
 800383c:	f883 2021 	strb.w	r2, [r3, #33]	; 0x21
 8003840:	e9d3 2401 	ldrd	r2, r4, [r3, #4]
 8003844:	4322      	orrs	r2, r4
 8003846:	68dc      	ldr	r4, [r3, #12]
 8003848:	6801      	ldr	r1, [r0, #0]
 800384a:	4322      	orrs	r2, r4
 800384c:	691c      	ldr	r4, [r3, #16]
 800384e:	f421 517f 	bic.w	r1, r1, #16320	; 0x3fc0
 8003852:	4322      	orrs	r2, r4
 8003854:	695c      	ldr	r4, [r3, #20]
 8003856:	f021 0130 	bic.w	r1, r1, #48	; 0x30
 800385a:	4322      	orrs	r2, r4
 800385c:	699c      	ldr	r4, [r3, #24]
 800385e:	4322      	orrs	r2, r4
 8003860:	69dc      	ldr	r4, [r3, #28]
 8003862:	4322      	orrs	r2, r4
 8003864:	430a      	orrs	r2, r1
 8003866:	6002      	str	r2, [r0, #0]
 8003868:	2000      	movs	r0, #0
 800386a:	2201      	movs	r2, #1
 800386c:	6398      	str	r0, [r3, #56]	; 0x38
 800386e:	f883 0020 	strb.w	r0, [r3, #32]
 8003872:	f883 2021 	strb.w	r2, [r3, #33]	; 0x21
 8003876:	bd10      	pop	{r4, pc}
 8003878:	2001      	movs	r0, #1
 800387a:	e7fc      	b.n	8003876 <HAL_DMA_Init+0x56>
 800387c:	bffdfff8 	.word	0xbffdfff8
 8003880:	40020000 	.word	0x40020000

08003884 <HAL_DMA_Abort>:
 8003884:	f890 2021 	ldrb.w	r2, [r0, #33]	; 0x21
 8003888:	4603      	mov	r3, r0
 800388a:	2a02      	cmp	r2, #2
 800388c:	d006      	beq.n	800389c <HAL_DMA_Abort+0x18>
 800388e:	2204      	movs	r2, #4
 8003890:	6382      	str	r2, [r0, #56]	; 0x38
 8003892:	2001      	movs	r0, #1
 8003894:	2200      	movs	r2, #0
 8003896:	f883 2020 	strb.w	r2, [r3, #32]
 800389a:	4770      	bx	lr
 800389c:	6802      	ldr	r2, [r0, #0]
 800389e:	6bc0      	ldr	r0, [r0, #60]	; 0x3c
 80038a0:	6811      	ldr	r1, [r2, #0]
 80038a2:	f021 010e 	bic.w	r1, r1, #14
 80038a6:	6011      	str	r1, [r2, #0]
 80038a8:	6811      	ldr	r1, [r2, #0]
 80038aa:	f021 0101 	bic.w	r1, r1, #1
 80038ae:	6011      	str	r1, [r2, #0]
 80038b0:	2101      	movs	r1, #1
 80038b2:	6c1a      	ldr	r2, [r3, #64]	; 0x40
 80038b4:	fa01 f202 	lsl.w	r2, r1, r2
 80038b8:	6042      	str	r2, [r0, #4]
 80038ba:	2000      	movs	r0, #0
 80038bc:	f883 1021 	strb.w	r1, [r3, #33]	; 0x21
 80038c0:	e7e8      	b.n	8003894 <HAL_DMA_Abort+0x10>
	...

080038c4 <HAL_DMA_Abort_IT>:
 80038c4:	b510      	push	{r4, lr}
 80038c6:	f890 3021 	ldrb.w	r3, [r0, #33]	; 0x21
 80038ca:	2b02      	cmp	r3, #2
 80038cc:	d003      	beq.n	80038d6 <HAL_DMA_Abort_IT+0x12>
 80038ce:	2304      	movs	r3, #4
 80038d0:	6383      	str	r3, [r0, #56]	; 0x38
 80038d2:	2001      	movs	r0, #1
 80038d4:	bd10      	pop	{r4, pc}
 80038d6:	6803      	ldr	r3, [r0, #0]
 80038d8:	681a      	ldr	r2, [r3, #0]
 80038da:	f022 020e 	bic.w	r2, r2, #14
 80038de:	601a      	str	r2, [r3, #0]
 80038e0:	681a      	ldr	r2, [r3, #0]
 80038e2:	f022 0201 	bic.w	r2, r2, #1
 80038e6:	601a      	str	r2, [r3, #0]
 80038e8:	4a18      	ldr	r2, [pc, #96]	; (800394c <HAL_DMA_Abort_IT+0x88>)
 80038ea:	4293      	cmp	r3, r2
 80038ec:	d01f      	beq.n	800392e <HAL_DMA_Abort_IT+0x6a>
 80038ee:	3214      	adds	r2, #20
 80038f0:	4293      	cmp	r3, r2
 80038f2:	d01e      	beq.n	8003932 <HAL_DMA_Abort_IT+0x6e>
 80038f4:	3214      	adds	r2, #20
 80038f6:	4293      	cmp	r3, r2
 80038f8:	d01d      	beq.n	8003936 <HAL_DMA_Abort_IT+0x72>
 80038fa:	3214      	adds	r2, #20
 80038fc:	4293      	cmp	r3, r2
 80038fe:	d01d      	beq.n	800393c <HAL_DMA_Abort_IT+0x78>
 8003900:	3214      	adds	r2, #20
 8003902:	4293      	cmp	r3, r2
 8003904:	d01d      	beq.n	8003942 <HAL_DMA_Abort_IT+0x7e>
 8003906:	3214      	adds	r2, #20
 8003908:	4293      	cmp	r3, r2
 800390a:	bf0c      	ite	eq
 800390c:	f44f 1380 	moveq.w	r3, #1048576	; 0x100000
 8003910:	f04f 7380 	movne.w	r3, #16777216	; 0x1000000
 8003914:	4a0e      	ldr	r2, [pc, #56]	; (8003950 <HAL_DMA_Abort_IT+0x8c>)
 8003916:	2400      	movs	r4, #0
 8003918:	6053      	str	r3, [r2, #4]
 800391a:	2301      	movs	r3, #1
 800391c:	f880 3021 	strb.w	r3, [r0, #33]	; 0x21
 8003920:	6b43      	ldr	r3, [r0, #52]	; 0x34
 8003922:	f880 4020 	strb.w	r4, [r0, #32]
 8003926:	b17b      	cbz	r3, 8003948 <HAL_DMA_Abort_IT+0x84>
 8003928:	4798      	blx	r3
 800392a:	4620      	mov	r0, r4
 800392c:	e7d2      	b.n	80038d4 <HAL_DMA_Abort_IT+0x10>
 800392e:	2301      	movs	r3, #1
 8003930:	e7f0      	b.n	8003914 <HAL_DMA_Abort_IT+0x50>
 8003932:	2310      	movs	r3, #16
 8003934:	e7ee      	b.n	8003914 <HAL_DMA_Abort_IT+0x50>
 8003936:	f44f 7380 	mov.w	r3, #256	; 0x100
 800393a:	e7eb      	b.n	8003914 <HAL_DMA_Abort_IT+0x50>
 800393c:	f44f 5380 	mov.w	r3, #4096	; 0x1000
 8003940:	e7e8      	b.n	8003914 <HAL_DMA_Abort_IT+0x50>
 8003942:	f44f 3380 	mov.w	r3, #65536	; 0x10000
 8003946:	e7e5      	b.n	8003914 <HAL_DMA_Abort_IT+0x50>
 8003948:	4618      	mov	r0, r3
 800394a:	e7c3      	b.n	80038d4 <HAL_DMA_Abort_IT+0x10>
 800394c:	40020008 	.word	0x40020008
 8003950:	40020000 	.word	0x40020000

08003954 <HAL_DMA_IRQHandler>:
 8003954:	b470      	push	{r4, r5, r6}
 8003956:	2504      	movs	r5, #4
 8003958:	6bc6      	ldr	r6, [r0, #60]	; 0x3c
 800395a:	6c02      	ldr	r2, [r0, #64]	; 0x40
 800395c:	6834      	ldr	r4, [r6, #0]
 800395e:	6803      	ldr	r3, [r0, #0]
 8003960:	4095      	lsls	r5, r2
 8003962:	4225      	tst	r5, r4
 8003964:	6819      	ldr	r1, [r3, #0]
 8003966:	d032      	beq.n	80039ce <HAL_DMA_IRQHandler+0x7a>
 8003968:	074d      	lsls	r5, r1, #29
 800396a:	d530      	bpl.n	80039ce <HAL_DMA_IRQHandler+0x7a>
 800396c:	681a      	ldr	r2, [r3, #0]
 800396e:	0696      	lsls	r6, r2, #26
 8003970:	bf5e      	ittt	pl
 8003972:	681a      	ldrpl	r2, [r3, #0]
 8003974:	f022 0204 	bicpl.w	r2, r2, #4
 8003978:	601a      	strpl	r2, [r3, #0]
 800397a:	4a3e      	ldr	r2, [pc, #248]	; (8003a74 <HAL_DMA_IRQHandler+0x120>)
 800397c:	4293      	cmp	r3, r2
 800397e:	d019      	beq.n	80039b4 <HAL_DMA_IRQHandler+0x60>
 8003980:	3214      	adds	r2, #20
 8003982:	4293      	cmp	r3, r2
 8003984:	d018      	beq.n	80039b8 <HAL_DMA_IRQHandler+0x64>
 8003986:	3214      	adds	r2, #20
 8003988:	4293      	cmp	r3, r2
 800398a:	d017      	beq.n	80039bc <HAL_DMA_IRQHandler+0x68>
 800398c:	3214      	adds	r2, #20
 800398e:	4293      	cmp	r3, r2
 8003990:	d017      	beq.n	80039c2 <HAL_DMA_IRQHandler+0x6e>
 8003992:	3214      	adds	r2, #20
 8003994:	4293      	cmp	r3, r2
 8003996:	d017      	beq.n	80039c8 <HAL_DMA_IRQHandler+0x74>
 8003998:	3214      	adds	r2, #20
 800399a:	4293      	cmp	r3, r2
 800399c:	bf0c      	ite	eq
 800399e:	f44f 0380 	moveq.w	r3, #4194304	; 0x400000
 80039a2:	f04f 6380 	movne.w	r3, #67108864	; 0x4000000
 80039a6:	4a34      	ldr	r2, [pc, #208]	; (8003a78 <HAL_DMA_IRQHandler+0x124>)
 80039a8:	6053      	str	r3, [r2, #4]
 80039aa:	6ac3      	ldr	r3, [r0, #44]	; 0x2c
 80039ac:	2b00      	cmp	r3, #0
 80039ae:	d05e      	beq.n	8003a6e <HAL_DMA_IRQHandler+0x11a>
 80039b0:	bc70      	pop	{r4, r5, r6}
 80039b2:	4718      	bx	r3
 80039b4:	2304      	movs	r3, #4
 80039b6:	e7f6      	b.n	80039a6 <HAL_DMA_IRQHandler+0x52>
 80039b8:	2340      	movs	r3, #64	; 0x40
 80039ba:	e7f4      	b.n	80039a6 <HAL_DMA_IRQHandler+0x52>
 80039bc:	f44f 6380 	mov.w	r3, #1024	; 0x400
 80039c0:	e7f1      	b.n	80039a6 <HAL_DMA_IRQHandler+0x52>
 80039c2:	f44f 4380 	mov.w	r3, #16384	; 0x4000
 80039c6:	e7ee      	b.n	80039a6 <HAL_DMA_IRQHandler+0x52>
 80039c8:	f44f 2380 	mov.w	r3, #262144	; 0x40000
 80039cc:	e7eb      	b.n	80039a6 <HAL_DMA_IRQHandler+0x52>
 80039ce:	2502      	movs	r5, #2
 80039d0:	4095      	lsls	r5, r2
 80039d2:	4225      	tst	r5, r4
 80039d4:	d035      	beq.n	8003a42 <HAL_DMA_IRQHandler+0xee>
 80039d6:	078d      	lsls	r5, r1, #30
 80039d8:	d533      	bpl.n	8003a42 <HAL_DMA_IRQHandler+0xee>
 80039da:	681a      	ldr	r2, [r3, #0]
 80039dc:	0694      	lsls	r4, r2, #26
 80039de:	d406      	bmi.n	80039ee <HAL_DMA_IRQHandler+0x9a>
 80039e0:	681a      	ldr	r2, [r3, #0]
 80039e2:	f022 020a 	bic.w	r2, r2, #10
 80039e6:	601a      	str	r2, [r3, #0]
 80039e8:	2201      	movs	r2, #1
 80039ea:	f880 2021 	strb.w	r2, [r0, #33]	; 0x21
 80039ee:	4a21      	ldr	r2, [pc, #132]	; (8003a74 <HAL_DMA_IRQHandler+0x120>)
 80039f0:	4293      	cmp	r3, r2
 80039f2:	d019      	beq.n	8003a28 <HAL_DMA_IRQHandler+0xd4>
 80039f4:	3214      	adds	r2, #20
 80039f6:	4293      	cmp	r3, r2
 80039f8:	d018      	beq.n	8003a2c <HAL_DMA_IRQHandler+0xd8>
 80039fa:	3214      	adds	r2, #20
 80039fc:	4293      	cmp	r3, r2
 80039fe:	d017      	beq.n	8003a30 <HAL_DMA_IRQHandler+0xdc>
 8003a00:	3214      	adds	r2, #20
 8003a02:	4293      	cmp	r3, r2
 8003a04:	d017      	beq.n	8003a36 <HAL_DMA_IRQHandler+0xe2>
 8003a06:	3214      	adds	r2, #20
 8003a08:	4293      	cmp	r3, r2
 8003a0a:	d017      	beq.n	8003a3c <HAL_DMA_IRQHandler+0xe8>
 8003a0c:	3214      	adds	r2, #20
 8003a0e:	4293      	cmp	r3, r2
 8003a10:	bf0c      	ite	eq
 8003a12:	f44f 1300 	moveq.w	r3, #2097152	; 0x200000
 8003a16:	f04f 7300 	movne.w	r3, #33554432	; 0x2000000
 8003a1a:	4a17      	ldr	r2, [pc, #92]	; (8003a78 <HAL_DMA_IRQHandler+0x124>)
 8003a1c:	6053      	str	r3, [r2, #4]
 8003a1e:	2300      	movs	r3, #0
 8003a20:	f880 3020 	strb.w	r3, [r0, #32]
 8003a24:	6a83      	ldr	r3, [r0, #40]	; 0x28
 8003a26:	e7c1      	b.n	80039ac <HAL_DMA_IRQHandler+0x58>
 8003a28:	2302      	movs	r3, #2
 8003a2a:	e7f6      	b.n	8003a1a <HAL_DMA_IRQHandler+0xc6>
 8003a2c:	2320      	movs	r3, #32
 8003a2e:	e7f4      	b.n	8003a1a <HAL_DMA_IRQHandler+0xc6>
 8003a30:	f44f 7300 	mov.w	r3, #512	; 0x200
 8003a34:	e7f1      	b.n	8003a1a <HAL_DMA_IRQHandler+0xc6>
 8003a36:	f44f 5300 	mov.w	r3, #8192	; 0x2000
 8003a3a:	e7ee      	b.n	8003a1a <HAL_DMA_IRQHandler+0xc6>
 8003a3c:	f44f 3300 	mov.w	r3, #131072	; 0x20000
 8003a40:	e7eb      	b.n	8003a1a <HAL_DMA_IRQHandler+0xc6>
 8003a42:	2508      	movs	r5, #8
 8003a44:	4095      	lsls	r5, r2
 8003a46:	4225      	tst	r5, r4
 8003a48:	d011      	beq.n	8003a6e <HAL_DMA_IRQHandler+0x11a>
 8003a4a:	0709      	lsls	r1, r1, #28
 8003a4c:	d50f      	bpl.n	8003a6e <HAL_DMA_IRQHandler+0x11a>
 8003a4e:	6819      	ldr	r1, [r3, #0]
 8003a50:	f021 010e 	bic.w	r1, r1, #14
 8003a54:	6019      	str	r1, [r3, #0]
 8003a56:	2301      	movs	r3, #1
 8003a58:	fa03 f202 	lsl.w	r2, r3, r2
 8003a5c:	6072      	str	r2, [r6, #4]
 8003a5e:	6383      	str	r3, [r0, #56]	; 0x38
 8003a60:	f880 3021 	strb.w	r3, [r0, #33]	; 0x21
 8003a64:	2300      	movs	r3, #0
 8003a66:	f880 3020 	strb.w	r3, [r0, #32]
 8003a6a:	6b03      	ldr	r3, [r0, #48]	; 0x30
 8003a6c:	e79e      	b.n	80039ac <HAL_DMA_IRQHandler+0x58>
 8003a6e:	bc70      	pop	{r4, r5, r6}
 8003a70:	4770      	bx	lr
 8003a72:	bf00      	nop
 8003a74:	40020008 	.word	0x40020008
 8003a78:	40020000 	.word	0x40020000

08003a7c <HAL_DMA_GetError>:
 8003a7c:	6b80      	ldr	r0, [r0, #56]	; 0x38
 8003a7e:	4770      	bx	lr

08003a80 <FLASH_SetErrorCode>:
 8003a80:	4a11      	ldr	r2, [pc, #68]	; (8003ac8 <FLASH_SetErrorCode+0x48>)
 8003a82:	68d3      	ldr	r3, [r2, #12]
 8003a84:	f013 0310 	ands.w	r3, r3, #16
 8003a88:	d005      	beq.n	8003a96 <FLASH_SetErrorCode+0x16>
 8003a8a:	4910      	ldr	r1, [pc, #64]	; (8003acc <FLASH_SetErrorCode+0x4c>)
 8003a8c:	69cb      	ldr	r3, [r1, #28]
 8003a8e:	f043 0302 	orr.w	r3, r3, #2
 8003a92:	61cb      	str	r3, [r1, #28]
 8003a94:	2310      	movs	r3, #16
 8003a96:	68d2      	ldr	r2, [r2, #12]
 8003a98:	0750      	lsls	r0, r2, #29
 8003a9a:	d506      	bpl.n	8003aaa <FLASH_SetErrorCode+0x2a>
 8003a9c:	490b      	ldr	r1, [pc, #44]	; (8003acc <FLASH_SetErrorCode+0x4c>)
 8003a9e:	f043 0304 	orr.w	r3, r3, #4
 8003aa2:	69ca      	ldr	r2, [r1, #28]
 8003aa4:	f042 0201 	orr.w	r2, r2, #1
 8003aa8:	61ca      	str	r2, [r1, #28]
 8003aaa:	4a07      	ldr	r2, [pc, #28]	; (8003ac8 <FLASH_SetErrorCode+0x48>)
 8003aac:	69d1      	ldr	r1, [r2, #28]
 8003aae:	07c9      	lsls	r1, r1, #31
 8003ab0:	d508      	bpl.n	8003ac4 <FLASH_SetErrorCode+0x44>
 8003ab2:	4806      	ldr	r0, [pc, #24]	; (8003acc <FLASH_SetErrorCode+0x4c>)
 8003ab4:	69c1      	ldr	r1, [r0, #28]
 8003ab6:	f041 0104 	orr.w	r1, r1, #4
 8003aba:	61c1      	str	r1, [r0, #28]
 8003abc:	69d1      	ldr	r1, [r2, #28]
 8003abe:	f021 0101 	bic.w	r1, r1, #1
 8003ac2:	61d1      	str	r1, [r2, #28]
 8003ac4:	60d3      	str	r3, [r2, #12]
 8003ac6:	4770      	bx	lr
 8003ac8:	40022000 	.word	0x40022000
 8003acc:	200008b0 	.word	0x200008b0

08003ad0 <HAL_FLASH_Unlock>:
 8003ad0:	4b06      	ldr	r3, [pc, #24]	; (8003aec <HAL_FLASH_Unlock+0x1c>)
 8003ad2:	6918      	ldr	r0, [r3, #16]
 8003ad4:	f010 0080 	ands.w	r0, r0, #128	; 0x80
 8003ad8:	d007      	beq.n	8003aea <HAL_FLASH_Unlock+0x1a>
 8003ada:	4a05      	ldr	r2, [pc, #20]	; (8003af0 <HAL_FLASH_Unlock+0x20>)
 8003adc:	605a      	str	r2, [r3, #4]
 8003ade:	f102 3288 	add.w	r2, r2, #2290649224	; 0x88888888
 8003ae2:	605a      	str	r2, [r3, #4]
 8003ae4:	6918      	ldr	r0, [r3, #16]
 8003ae6:	f3c0 10c0 	ubfx	r0, r0, #7, #1
 8003aea:	4770      	bx	lr
 8003aec:	40022000 	.word	0x40022000
 8003af0:	45670123 	.word	0x45670123

08003af4 <HAL_FLASH_Lock>:
 8003af4:	4a03      	ldr	r2, [pc, #12]	; (8003b04 <HAL_FLASH_Lock+0x10>)
 8003af6:	2000      	movs	r0, #0
 8003af8:	6913      	ldr	r3, [r2, #16]
 8003afa:	f043 0380 	orr.w	r3, r3, #128	; 0x80
 8003afe:	6113      	str	r3, [r2, #16]
 8003b00:	4770      	bx	lr
 8003b02:	bf00      	nop
 8003b04:	40022000 	.word	0x40022000

08003b08 <FLASH_WaitForLastOperation>:
 8003b08:	b570      	push	{r4, r5, r6, lr}
 8003b0a:	4605      	mov	r5, r0
 8003b0c:	f7ff f9dc 	bl	8002ec8 <HAL_GetTick>
 8003b10:	4606      	mov	r6, r0
 8003b12:	4c11      	ldr	r4, [pc, #68]	; (8003b58 <FLASH_WaitForLastOperation+0x50>)
 8003b14:	68e3      	ldr	r3, [r4, #12]
 8003b16:	07d8      	lsls	r0, r3, #31
 8003b18:	d412      	bmi.n	8003b40 <FLASH_WaitForLastOperation+0x38>
 8003b1a:	68e3      	ldr	r3, [r4, #12]
 8003b1c:	0699      	lsls	r1, r3, #26
 8003b1e:	bf44      	itt	mi
 8003b20:	2320      	movmi	r3, #32
 8003b22:	60e3      	strmi	r3, [r4, #12]
 8003b24:	68e3      	ldr	r3, [r4, #12]
 8003b26:	06da      	lsls	r2, r3, #27
 8003b28:	d406      	bmi.n	8003b38 <FLASH_WaitForLastOperation+0x30>
 8003b2a:	69e3      	ldr	r3, [r4, #28]
 8003b2c:	07db      	lsls	r3, r3, #31
 8003b2e:	d403      	bmi.n	8003b38 <FLASH_WaitForLastOperation+0x30>
 8003b30:	68e0      	ldr	r0, [r4, #12]
 8003b32:	f010 0004 	ands.w	r0, r0, #4
 8003b36:	d007      	beq.n	8003b48 <FLASH_WaitForLastOperation+0x40>
 8003b38:	f7ff ffa2 	bl	8003a80 <FLASH_SetErrorCode>
 8003b3c:	2001      	movs	r0, #1
 8003b3e:	e003      	b.n	8003b48 <FLASH_WaitForLastOperation+0x40>
 8003b40:	1c6b      	adds	r3, r5, #1
 8003b42:	d0e7      	beq.n	8003b14 <FLASH_WaitForLastOperation+0xc>
 8003b44:	b90d      	cbnz	r5, 8003b4a <FLASH_WaitForLastOperation+0x42>
 8003b46:	2003      	movs	r0, #3
 8003b48:	bd70      	pop	{r4, r5, r6, pc}
 8003b4a:	f7ff f9bd 	bl	8002ec8 <HAL_GetTick>
 8003b4e:	1b80      	subs	r0, r0, r6
 8003b50:	42a8      	cmp	r0, r5
 8003b52:	d9df      	bls.n	8003b14 <FLASH_WaitForLastOperation+0xc>
 8003b54:	e7f7      	b.n	8003b46 <FLASH_WaitForLastOperation+0x3e>
 8003b56:	bf00      	nop
 8003b58:	40022000 	.word	0x40022000

08003b5c <HAL_FLASH_Program>:
 8003b5c:	e92d 4ff8 	stmdb	sp!, {r3, r4, r5, r6, r7, r8, r9, sl, fp, lr}
 8003b60:	f8df a094 	ldr.w	sl, [pc, #148]	; 8003bf8 <HAL_FLASH_Program+0x9c>
 8003b64:	461f      	mov	r7, r3
 8003b66:	f89a 3018 	ldrb.w	r3, [sl, #24]
 8003b6a:	4605      	mov	r5, r0
 8003b6c:	2b01      	cmp	r3, #1
 8003b6e:	4688      	mov	r8, r1
 8003b70:	4691      	mov	r9, r2
 8003b72:	d03f      	beq.n	8003bf4 <HAL_FLASH_Program+0x98>
 8003b74:	2301      	movs	r3, #1
 8003b76:	f24c 3050 	movw	r0, #50000	; 0xc350
 8003b7a:	f88a 3018 	strb.w	r3, [sl, #24]
 8003b7e:	f7ff ffc3 	bl	8003b08 <FLASH_WaitForLastOperation>
 8003b82:	bb90      	cbnz	r0, 8003bea <HAL_FLASH_Program+0x8e>
 8003b84:	2d01      	cmp	r5, #1
 8003b86:	d003      	beq.n	8003b90 <HAL_FLASH_Program+0x34>
 8003b88:	2d02      	cmp	r5, #2
 8003b8a:	bf0c      	ite	eq
 8003b8c:	2502      	moveq	r5, #2
 8003b8e:	2504      	movne	r5, #4
 8003b90:	2600      	movs	r6, #0
 8003b92:	4633      	mov	r3, r6
 8003b94:	f8df b064 	ldr.w	fp, [pc, #100]	; 8003bfc <HAL_FLASH_Program+0xa0>
 8003b98:	0134      	lsls	r4, r6, #4
 8003b9a:	f1c4 0120 	rsb	r1, r4, #32
 8003b9e:	f1a4 0220 	sub.w	r2, r4, #32
 8003ba2:	fa07 f101 	lsl.w	r1, r7, r1
 8003ba6:	fa29 f404 	lsr.w	r4, r9, r4
 8003baa:	f8ca 301c 	str.w	r3, [sl, #28]
 8003bae:	430c      	orrs	r4, r1
 8003bb0:	fa27 f202 	lsr.w	r2, r7, r2
 8003bb4:	4314      	orrs	r4, r2
 8003bb6:	f8db 2010 	ldr.w	r2, [fp, #16]
 8003bba:	b2a4      	uxth	r4, r4
 8003bbc:	f042 0201 	orr.w	r2, r2, #1
 8003bc0:	f8cb 2010 	str.w	r2, [fp, #16]
 8003bc4:	f24c 3050 	movw	r0, #50000	; 0xc350
 8003bc8:	f828 4016 	strh.w	r4, [r8, r6, lsl #1]
 8003bcc:	f7ff ff9c 	bl	8003b08 <FLASH_WaitForLastOperation>
 8003bd0:	f8db 2010 	ldr.w	r2, [fp, #16]
 8003bd4:	f022 0201 	bic.w	r2, r2, #1
 8003bd8:	f8cb 2010 	str.w	r2, [fp, #16]
 8003bdc:	b928      	cbnz	r0, 8003bea <HAL_FLASH_Program+0x8e>
 8003bde:	3601      	adds	r6, #1
 8003be0:	b2f2      	uxtb	r2, r6
 8003be2:	4295      	cmp	r5, r2
 8003be4:	f04f 0300 	mov.w	r3, #0
 8003be8:	d8d6      	bhi.n	8003b98 <HAL_FLASH_Program+0x3c>
 8003bea:	2300      	movs	r3, #0
 8003bec:	f88a 3018 	strb.w	r3, [sl, #24]
 8003bf0:	e8bd 8ff8 	ldmia.w	sp!, {r3, r4, r5, r6, r7, r8, r9, sl, fp, pc}
 8003bf4:	2002      	movs	r0, #2
 8003bf6:	e7fb      	b.n	8003bf0 <HAL_FLASH_Program+0x94>
 8003bf8:	200008b0 	.word	0x200008b0
 8003bfc:	40022000 	.word	0x40022000

08003c00 <FLASH_PageErase>:
 8003c00:	2200      	movs	r2, #0
 8003c02:	4b06      	ldr	r3, [pc, #24]	; (8003c1c <FLASH_PageErase+0x1c>)
 8003c04:	61da      	str	r2, [r3, #28]
 8003c06:	4b06      	ldr	r3, [pc, #24]	; (8003c20 <FLASH_PageErase+0x20>)
 8003c08:	691a      	ldr	r2, [r3, #16]
 8003c0a:	f042 0202 	orr.w	r2, r2, #2
 8003c0e:	611a      	str	r2, [r3, #16]
 8003c10:	6158      	str	r0, [r3, #20]
 8003c12:	691a      	ldr	r2, [r3, #16]
 8003c14:	f042 0240 	orr.w	r2, r2, #64	; 0x40
 8003c18:	611a      	str	r2, [r3, #16]
 8003c1a:	4770      	bx	lr
 8003c1c:	200008b0 	.word	0x200008b0
 8003c20:	40022000 	.word	0x40022000

08003c24 <HAL_FLASHEx_Erase>:
 8003c24:	e92d 41f0 	stmdb	sp!, {r4, r5, r6, r7, r8, lr}
 8003c28:	4f26      	ldr	r7, [pc, #152]	; (8003cc4 <HAL_FLASHEx_Erase+0xa0>)
 8003c2a:	4605      	mov	r5, r0
 8003c2c:	7e3b      	ldrb	r3, [r7, #24]
 8003c2e:	4688      	mov	r8, r1
 8003c30:	2b01      	cmp	r3, #1
 8003c32:	d044      	beq.n	8003cbe <HAL_FLASHEx_Erase+0x9a>
 8003c34:	2401      	movs	r4, #1
 8003c36:	763c      	strb	r4, [r7, #24]
 8003c38:	6803      	ldr	r3, [r0, #0]
 8003c3a:	f24c 3050 	movw	r0, #50000	; 0xc350
 8003c3e:	2b02      	cmp	r3, #2
 8003c40:	d11a      	bne.n	8003c78 <HAL_FLASHEx_Erase+0x54>
 8003c42:	f7ff ff61 	bl	8003b08 <FLASH_WaitForLastOperation>
 8003c46:	b120      	cbz	r0, 8003c52 <HAL_FLASHEx_Erase+0x2e>
 8003c48:	2001      	movs	r0, #1
 8003c4a:	2300      	movs	r3, #0
 8003c4c:	763b      	strb	r3, [r7, #24]
 8003c4e:	e8bd 81f0 	ldmia.w	sp!, {r4, r5, r6, r7, r8, pc}
 8003c52:	4c1d      	ldr	r4, [pc, #116]	; (8003cc8 <HAL_FLASHEx_Erase+0xa4>)
 8003c54:	61f8      	str	r0, [r7, #28]
 8003c56:	6923      	ldr	r3, [r4, #16]
 8003c58:	f24c 3050 	movw	r0, #50000	; 0xc350
 8003c5c:	f043 0304 	orr.w	r3, r3, #4
 8003c60:	6123      	str	r3, [r4, #16]
 8003c62:	6923      	ldr	r3, [r4, #16]
 8003c64:	f043 0340 	orr.w	r3, r3, #64	; 0x40
 8003c68:	6123      	str	r3, [r4, #16]
 8003c6a:	f7ff ff4d 	bl	8003b08 <FLASH_WaitForLastOperation>
 8003c6e:	6923      	ldr	r3, [r4, #16]
 8003c70:	f023 0304 	bic.w	r3, r3, #4
 8003c74:	6123      	str	r3, [r4, #16]
 8003c76:	e7e8      	b.n	8003c4a <HAL_FLASHEx_Erase+0x26>
 8003c78:	f7ff ff46 	bl	8003b08 <FLASH_WaitForLastOperation>
 8003c7c:	2800      	cmp	r0, #0
 8003c7e:	d1e3      	bne.n	8003c48 <HAL_FLASHEx_Erase+0x24>
 8003c80:	f04f 33ff 	mov.w	r3, #4294967295
 8003c84:	f8c8 3000 	str.w	r3, [r8]
 8003c88:	4620      	mov	r0, r4
 8003c8a:	68ae      	ldr	r6, [r5, #8]
 8003c8c:	4c0e      	ldr	r4, [pc, #56]	; (8003cc8 <HAL_FLASHEx_Erase+0xa4>)
 8003c8e:	e9d5 3202 	ldrd	r3, r2, [r5, #8]
 8003c92:	eb03 2382 	add.w	r3, r3, r2, lsl #10
 8003c96:	42b3      	cmp	r3, r6
 8003c98:	d9d7      	bls.n	8003c4a <HAL_FLASHEx_Erase+0x26>
 8003c9a:	4630      	mov	r0, r6
 8003c9c:	f7ff ffb0 	bl	8003c00 <FLASH_PageErase>
 8003ca0:	f24c 3050 	movw	r0, #50000	; 0xc350
 8003ca4:	f7ff ff30 	bl	8003b08 <FLASH_WaitForLastOperation>
 8003ca8:	6923      	ldr	r3, [r4, #16]
 8003caa:	f023 0302 	bic.w	r3, r3, #2
 8003cae:	6123      	str	r3, [r4, #16]
 8003cb0:	b110      	cbz	r0, 8003cb8 <HAL_FLASHEx_Erase+0x94>
 8003cb2:	f8c8 6000 	str.w	r6, [r8]
 8003cb6:	e7c8      	b.n	8003c4a <HAL_FLASHEx_Erase+0x26>
 8003cb8:	f506 6680 	add.w	r6, r6, #1024	; 0x400
 8003cbc:	e7e7      	b.n	8003c8e <HAL_FLASHEx_Erase+0x6a>
 8003cbe:	2002      	movs	r0, #2
 8003cc0:	e7c5      	b.n	8003c4e <HAL_FLASHEx_Erase+0x2a>
 8003cc2:	bf00      	nop
 8003cc4:	200008b0 	.word	0x200008b0
 8003cc8:	40022000 	.word	0x40022000

08003ccc <HAL_GPIO_Init>:
 8003ccc:	e92d 4ff7 	stmdb	sp!, {r0, r1, r2, r4, r5, r6, r7, r8, r9, sl, fp, lr}
 8003cd0:	2200      	movs	r2, #0
 8003cd2:	4616      	mov	r6, r2
 8003cd4:	4f64      	ldr	r7, [pc, #400]	; (8003e68 <HAL_GPIO_Init+0x19c>)
 8003cd6:	4b65      	ldr	r3, [pc, #404]	; (8003e6c <HAL_GPIO_Init+0x1a0>)
 8003cd8:	f8df c194 	ldr.w	ip, [pc, #404]	; 8003e70 <HAL_GPIO_Init+0x1a4>
 8003cdc:	f8df e194 	ldr.w	lr, [pc, #404]	; 8003e74 <HAL_GPIO_Init+0x1a8>
 8003ce0:	680d      	ldr	r5, [r1, #0]
 8003ce2:	fa35 f406 	lsrs.w	r4, r5, r6
 8003ce6:	d102      	bne.n	8003cee <HAL_GPIO_Init+0x22>
 8003ce8:	b003      	add	sp, #12
 8003cea:	e8bd 8ff0 	ldmia.w	sp!, {r4, r5, r6, r7, r8, r9, sl, fp, pc}
 8003cee:	f04f 0801 	mov.w	r8, #1
 8003cf2:	fa08 f806 	lsl.w	r8, r8, r6
 8003cf6:	ea05 0408 	and.w	r4, r5, r8
 8003cfa:	ea38 0505 	bics.w	r5, r8, r5
 8003cfe:	d17a      	bne.n	8003df6 <HAL_GPIO_Init+0x12a>
 8003d00:	684d      	ldr	r5, [r1, #4]
 8003d02:	2d03      	cmp	r5, #3
 8003d04:	d807      	bhi.n	8003d16 <HAL_GPIO_Init+0x4a>
 8003d06:	3d01      	subs	r5, #1
 8003d08:	2d02      	cmp	r5, #2
 8003d0a:	f200 8087 	bhi.w	8003e1c <HAL_GPIO_Init+0x150>
 8003d0e:	e8df f005 	tbb	[pc, r5]
 8003d12:	9a95      	.short	0x9a95
 8003d14:	a0          	.byte	0xa0
 8003d15:	00          	.byte	0x00
 8003d16:	2d12      	cmp	r5, #18
 8003d18:	f000 8098 	beq.w	8003e4c <HAL_GPIO_Init+0x180>
 8003d1c:	d86d      	bhi.n	8003dfa <HAL_GPIO_Init+0x12e>
 8003d1e:	2d11      	cmp	r5, #17
 8003d20:	f000 808e 	beq.w	8003e40 <HAL_GPIO_Init+0x174>
 8003d24:	2cff      	cmp	r4, #255	; 0xff
 8003d26:	bf98      	it	ls
 8003d28:	4682      	movls	sl, r0
 8003d2a:	f04f 090f 	mov.w	r9, #15
 8003d2e:	bf88      	it	hi
 8003d30:	f100 0a04 	addhi.w	sl, r0, #4
 8003d34:	ea4f 0586 	mov.w	r5, r6, lsl #2
 8003d38:	f8da 8000 	ldr.w	r8, [sl]
 8003d3c:	bf88      	it	hi
 8003d3e:	3d20      	subhi	r5, #32
 8003d40:	fa09 fb05 	lsl.w	fp, r9, r5
 8003d44:	ea28 080b 	bic.w	r8, r8, fp
 8003d48:	fa02 f505 	lsl.w	r5, r2, r5
 8003d4c:	ea48 0505 	orr.w	r5, r8, r5
 8003d50:	f8ca 5000 	str.w	r5, [sl]
 8003d54:	f8d1 a004 	ldr.w	sl, [r1, #4]
 8003d58:	f01a 5f80 	tst.w	sl, #268435456	; 0x10000000
 8003d5c:	d04b      	beq.n	8003df6 <HAL_GPIO_Init+0x12a>
 8003d5e:	69bd      	ldr	r5, [r7, #24]
 8003d60:	f026 0803 	bic.w	r8, r6, #3
 8003d64:	f045 0501 	orr.w	r5, r5, #1
 8003d68:	61bd      	str	r5, [r7, #24]
 8003d6a:	69bd      	ldr	r5, [r7, #24]
 8003d6c:	f108 4880 	add.w	r8, r8, #1073741824	; 0x40000000
 8003d70:	f005 0501 	and.w	r5, r5, #1
 8003d74:	9501      	str	r5, [sp, #4]
 8003d76:	f508 3880 	add.w	r8, r8, #65536	; 0x10000
 8003d7a:	f006 0b03 	and.w	fp, r6, #3
 8003d7e:	9d01      	ldr	r5, [sp, #4]
 8003d80:	ea4f 0b8b 	mov.w	fp, fp, lsl #2
 8003d84:	f8d8 5008 	ldr.w	r5, [r8, #8]
 8003d88:	fa09 f90b 	lsl.w	r9, r9, fp
 8003d8c:	ea25 0909 	bic.w	r9, r5, r9
 8003d90:	4d39      	ldr	r5, [pc, #228]	; (8003e78 <HAL_GPIO_Init+0x1ac>)
 8003d92:	42a8      	cmp	r0, r5
 8003d94:	d061      	beq.n	8003e5a <HAL_GPIO_Init+0x18e>
 8003d96:	f505 6580 	add.w	r5, r5, #1024	; 0x400
 8003d9a:	42a8      	cmp	r0, r5
 8003d9c:	d05f      	beq.n	8003e5e <HAL_GPIO_Init+0x192>
 8003d9e:	f505 6580 	add.w	r5, r5, #1024	; 0x400
 8003da2:	42a8      	cmp	r0, r5
 8003da4:	d05d      	beq.n	8003e62 <HAL_GPIO_Init+0x196>
 8003da6:	f505 6580 	add.w	r5, r5, #1024	; 0x400
 8003daa:	42a8      	cmp	r0, r5
 8003dac:	bf0c      	ite	eq
 8003dae:	2503      	moveq	r5, #3
 8003db0:	2504      	movne	r5, #4
 8003db2:	fa05 f50b 	lsl.w	r5, r5, fp
 8003db6:	ea45 0509 	orr.w	r5, r5, r9
 8003dba:	f8c8 5008 	str.w	r5, [r8, #8]
 8003dbe:	689d      	ldr	r5, [r3, #8]
 8003dc0:	f41a 1f80 	tst.w	sl, #1048576	; 0x100000
 8003dc4:	bf14      	ite	ne
 8003dc6:	4325      	orrne	r5, r4
 8003dc8:	43a5      	biceq	r5, r4
 8003dca:	609d      	str	r5, [r3, #8]
 8003dcc:	68dd      	ldr	r5, [r3, #12]
 8003dce:	f41a 1f00 	tst.w	sl, #2097152	; 0x200000
 8003dd2:	bf14      	ite	ne
 8003dd4:	4325      	orrne	r5, r4
 8003dd6:	43a5      	biceq	r5, r4
 8003dd8:	60dd      	str	r5, [r3, #12]
 8003dda:	685d      	ldr	r5, [r3, #4]
 8003ddc:	f41a 3f00 	tst.w	sl, #131072	; 0x20000
 8003de0:	bf14      	ite	ne
 8003de2:	4325      	orrne	r5, r4
 8003de4:	43a5      	biceq	r5, r4
 8003de6:	605d      	str	r5, [r3, #4]
 8003de8:	681d      	ldr	r5, [r3, #0]
 8003dea:	f41a 3f80 	tst.w	sl, #65536	; 0x10000
 8003dee:	bf14      	ite	ne
 8003df0:	4325      	orrne	r5, r4
 8003df2:	43a5      	biceq	r5, r4
 8003df4:	601d      	str	r5, [r3, #0]
 8003df6:	3601      	adds	r6, #1
 8003df8:	e772      	b.n	8003ce0 <HAL_GPIO_Init+0x14>
 8003dfa:	f8df 9080 	ldr.w	r9, [pc, #128]	; 8003e7c <HAL_GPIO_Init+0x1b0>
 8003dfe:	454d      	cmp	r5, r9
 8003e00:	d00c      	beq.n	8003e1c <HAL_GPIO_Init+0x150>
 8003e02:	d817      	bhi.n	8003e34 <HAL_GPIO_Init+0x168>
 8003e04:	f5a9 1980 	sub.w	r9, r9, #1048576	; 0x100000
 8003e08:	454d      	cmp	r5, r9
 8003e0a:	d007      	beq.n	8003e1c <HAL_GPIO_Init+0x150>
 8003e0c:	f509 2970 	add.w	r9, r9, #983040	; 0xf0000
 8003e10:	454d      	cmp	r5, r9
 8003e12:	d003      	beq.n	8003e1c <HAL_GPIO_Init+0x150>
 8003e14:	f5a9 1980 	sub.w	r9, r9, #1048576	; 0x100000
 8003e18:	454d      	cmp	r5, r9
 8003e1a:	d183      	bne.n	8003d24 <HAL_GPIO_Init+0x58>
 8003e1c:	688a      	ldr	r2, [r1, #8]
 8003e1e:	b1d2      	cbz	r2, 8003e56 <HAL_GPIO_Init+0x18a>
 8003e20:	2a01      	cmp	r2, #1
 8003e22:	bf08      	it	eq
 8003e24:	f8c0 8010 	streq.w	r8, [r0, #16]
 8003e28:	f04f 0208 	mov.w	r2, #8
 8003e2c:	bf18      	it	ne
 8003e2e:	f8c0 8014 	strne.w	r8, [r0, #20]
 8003e32:	e777      	b.n	8003d24 <HAL_GPIO_Init+0x58>
 8003e34:	4565      	cmp	r5, ip
 8003e36:	d0f1      	beq.n	8003e1c <HAL_GPIO_Init+0x150>
 8003e38:	4575      	cmp	r5, lr
 8003e3a:	e7ee      	b.n	8003e1a <HAL_GPIO_Init+0x14e>
 8003e3c:	68ca      	ldr	r2, [r1, #12]
 8003e3e:	e771      	b.n	8003d24 <HAL_GPIO_Init+0x58>
 8003e40:	68ca      	ldr	r2, [r1, #12]
 8003e42:	3204      	adds	r2, #4
 8003e44:	e76e      	b.n	8003d24 <HAL_GPIO_Init+0x58>
 8003e46:	68ca      	ldr	r2, [r1, #12]
 8003e48:	3208      	adds	r2, #8
 8003e4a:	e76b      	b.n	8003d24 <HAL_GPIO_Init+0x58>
 8003e4c:	68ca      	ldr	r2, [r1, #12]
 8003e4e:	320c      	adds	r2, #12
 8003e50:	e768      	b.n	8003d24 <HAL_GPIO_Init+0x58>
 8003e52:	2200      	movs	r2, #0
 8003e54:	e766      	b.n	8003d24 <HAL_GPIO_Init+0x58>
 8003e56:	2204      	movs	r2, #4
 8003e58:	e764      	b.n	8003d24 <HAL_GPIO_Init+0x58>
 8003e5a:	2500      	movs	r5, #0
 8003e5c:	e7a9      	b.n	8003db2 <HAL_GPIO_Init+0xe6>
 8003e5e:	2501      	movs	r5, #1
 8003e60:	e7a7      	b.n	8003db2 <HAL_GPIO_Init+0xe6>
 8003e62:	2502      	movs	r5, #2
 8003e64:	e7a5      	b.n	8003db2 <HAL_GPIO_Init+0xe6>
 8003e66:	bf00      	nop
 8003e68:	40021000 	.word	0x40021000
 8003e6c:	40010400 	.word	0x40010400
 8003e70:	10310000 	.word	0x10310000
 8003e74:	10320000 	.word	0x10320000
 8003e78:	40010800 	.word	0x40010800
 8003e7c:	10220000 	.word	0x10220000

08003e80 <HAL_GPIO_ReadPin>:
 8003e80:	6883      	ldr	r3, [r0, #8]
 8003e82:	4219      	tst	r1, r3
 8003e84:	bf14      	ite	ne
 8003e86:	2001      	movne	r0, #1
 8003e88:	2000      	moveq	r0, #0
 8003e8a:	4770      	bx	lr

08003e8c <HAL_GPIO_WritePin>:
 8003e8c:	b10a      	cbz	r2, 8003e92 <HAL_GPIO_WritePin+0x6>
 8003e8e:	6101      	str	r1, [r0, #16]
 8003e90:	4770      	bx	lr
 8003e92:	0409      	lsls	r1, r1, #16
 8003e94:	e7fb      	b.n	8003e8e <HAL_GPIO_WritePin+0x2>

08003e96 <HAL_GPIO_TogglePin>:
 8003e96:	68c3      	ldr	r3, [r0, #12]
 8003e98:	ea01 0203 	and.w	r2, r1, r3
 8003e9c:	ea21 0103 	bic.w	r1, r1, r3
 8003ea0:	ea41 4102 	orr.w	r1, r1, r2, lsl #16
 8003ea4:	6101      	str	r1, [r0, #16]
 8003ea6:	4770      	bx	lr

08003ea8 <HAL_GPIO_EXTI_IRQHandler>:
 8003ea8:	4a04      	ldr	r2, [pc, #16]	; (8003ebc <HAL_GPIO_EXTI_IRQHandler+0x14>)
 8003eaa:	b508      	push	{r3, lr}
 8003eac:	6951      	ldr	r1, [r2, #20]
 8003eae:	4201      	tst	r1, r0
 8003eb0:	d002      	beq.n	8003eb8 <HAL_GPIO_EXTI_IRQHandler+0x10>
 8003eb2:	6150      	str	r0, [r2, #20]
 8003eb4:	f7fe fcc4 	bl	8002840 <HAL_GPIO_EXTI_Callback>
 8003eb8:	bd08      	pop	{r3, pc}
 8003eba:	bf00      	nop
 8003ebc:	40010400 	.word	0x40010400

08003ec0 <HAL_RCC_OscConfig>:
 8003ec0:	e92d 41f3 	stmdb	sp!, {r0, r1, r4, r5, r6, r7, r8, lr}
 8003ec4:	4605      	mov	r5, r0
 8003ec6:	b338      	cbz	r0, 8003f18 <HAL_RCC_OscConfig+0x58>
 8003ec8:	6803      	ldr	r3, [r0, #0]
 8003eca:	07db      	lsls	r3, r3, #31
 8003ecc:	d410      	bmi.n	8003ef0 <HAL_RCC_OscConfig+0x30>
 8003ece:	682b      	ldr	r3, [r5, #0]
 8003ed0:	079f      	lsls	r7, r3, #30
 8003ed2:	d45e      	bmi.n	8003f92 <HAL_RCC_OscConfig+0xd2>
 8003ed4:	682b      	ldr	r3, [r5, #0]
 8003ed6:	0719      	lsls	r1, r3, #28
 8003ed8:	f100 8095 	bmi.w	8004006 <HAL_RCC_OscConfig+0x146>
 8003edc:	682b      	ldr	r3, [r5, #0]
 8003ede:	075a      	lsls	r2, r3, #29
 8003ee0:	f100 80c1 	bmi.w	8004066 <HAL_RCC_OscConfig+0x1a6>
 8003ee4:	69e8      	ldr	r0, [r5, #28]
 8003ee6:	2800      	cmp	r0, #0
 8003ee8:	f040 812c 	bne.w	8004144 <HAL_RCC_OscConfig+0x284>
 8003eec:	2000      	movs	r0, #0
 8003eee:	e029      	b.n	8003f44 <HAL_RCC_OscConfig+0x84>
 8003ef0:	4c90      	ldr	r4, [pc, #576]	; (8004134 <HAL_RCC_OscConfig+0x274>)
 8003ef2:	6863      	ldr	r3, [r4, #4]
 8003ef4:	f003 030c 	and.w	r3, r3, #12
 8003ef8:	2b04      	cmp	r3, #4
 8003efa:	d007      	beq.n	8003f0c <HAL_RCC_OscConfig+0x4c>
 8003efc:	6863      	ldr	r3, [r4, #4]
 8003efe:	f003 030c 	and.w	r3, r3, #12
 8003f02:	2b08      	cmp	r3, #8
 8003f04:	d10a      	bne.n	8003f1c <HAL_RCC_OscConfig+0x5c>
 8003f06:	6863      	ldr	r3, [r4, #4]
 8003f08:	03de      	lsls	r6, r3, #15
 8003f0a:	d507      	bpl.n	8003f1c <HAL_RCC_OscConfig+0x5c>
 8003f0c:	6823      	ldr	r3, [r4, #0]
 8003f0e:	039c      	lsls	r4, r3, #14
 8003f10:	d5dd      	bpl.n	8003ece <HAL_RCC_OscConfig+0xe>
 8003f12:	686b      	ldr	r3, [r5, #4]
 8003f14:	2b00      	cmp	r3, #0
 8003f16:	d1da      	bne.n	8003ece <HAL_RCC_OscConfig+0xe>
 8003f18:	2001      	movs	r0, #1
 8003f1a:	e013      	b.n	8003f44 <HAL_RCC_OscConfig+0x84>
 8003f1c:	686b      	ldr	r3, [r5, #4]
 8003f1e:	f5b3 3f80 	cmp.w	r3, #65536	; 0x10000
 8003f22:	d112      	bne.n	8003f4a <HAL_RCC_OscConfig+0x8a>
 8003f24:	6823      	ldr	r3, [r4, #0]
 8003f26:	f443 3380 	orr.w	r3, r3, #65536	; 0x10000
 8003f2a:	6023      	str	r3, [r4, #0]
 8003f2c:	f7fe ffcc 	bl	8002ec8 <HAL_GetTick>
 8003f30:	4606      	mov	r6, r0
 8003f32:	6823      	ldr	r3, [r4, #0]
 8003f34:	0398      	lsls	r0, r3, #14
 8003f36:	d4ca      	bmi.n	8003ece <HAL_RCC_OscConfig+0xe>
 8003f38:	f7fe ffc6 	bl	8002ec8 <HAL_GetTick>
 8003f3c:	1b80      	subs	r0, r0, r6
 8003f3e:	2864      	cmp	r0, #100	; 0x64
 8003f40:	d9f7      	bls.n	8003f32 <HAL_RCC_OscConfig+0x72>
 8003f42:	2003      	movs	r0, #3
 8003f44:	b002      	add	sp, #8
 8003f46:	e8bd 81f0 	ldmia.w	sp!, {r4, r5, r6, r7, r8, pc}
 8003f4a:	b99b      	cbnz	r3, 8003f74 <HAL_RCC_OscConfig+0xb4>
 8003f4c:	6823      	ldr	r3, [r4, #0]
 8003f4e:	f423 3380 	bic.w	r3, r3, #65536	; 0x10000
 8003f52:	6023      	str	r3, [r4, #0]
 8003f54:	6823      	ldr	r3, [r4, #0]
 8003f56:	f423 2380 	bic.w	r3, r3, #262144	; 0x40000
 8003f5a:	6023      	str	r3, [r4, #0]
 8003f5c:	f7fe ffb4 	bl	8002ec8 <HAL_GetTick>
 8003f60:	4606      	mov	r6, r0
 8003f62:	6823      	ldr	r3, [r4, #0]
 8003f64:	0399      	lsls	r1, r3, #14
 8003f66:	d5b2      	bpl.n	8003ece <HAL_RCC_OscConfig+0xe>
 8003f68:	f7fe ffae 	bl	8002ec8 <HAL_GetTick>
 8003f6c:	1b80      	subs	r0, r0, r6
 8003f6e:	2864      	cmp	r0, #100	; 0x64
 8003f70:	d9f7      	bls.n	8003f62 <HAL_RCC_OscConfig+0xa2>
 8003f72:	e7e6      	b.n	8003f42 <HAL_RCC_OscConfig+0x82>
 8003f74:	f5b3 2fa0 	cmp.w	r3, #327680	; 0x50000
 8003f78:	6823      	ldr	r3, [r4, #0]
 8003f7a:	d103      	bne.n	8003f84 <HAL_RCC_OscConfig+0xc4>
 8003f7c:	f443 2380 	orr.w	r3, r3, #262144	; 0x40000
 8003f80:	6023      	str	r3, [r4, #0]
 8003f82:	e7cf      	b.n	8003f24 <HAL_RCC_OscConfig+0x64>
 8003f84:	f423 3380 	bic.w	r3, r3, #65536	; 0x10000
 8003f88:	6023      	str	r3, [r4, #0]
 8003f8a:	6823      	ldr	r3, [r4, #0]
 8003f8c:	f423 2380 	bic.w	r3, r3, #262144	; 0x40000
 8003f90:	e7cb      	b.n	8003f2a <HAL_RCC_OscConfig+0x6a>
 8003f92:	4c68      	ldr	r4, [pc, #416]	; (8004134 <HAL_RCC_OscConfig+0x274>)
 8003f94:	6863      	ldr	r3, [r4, #4]
 8003f96:	f013 0f0c 	tst.w	r3, #12
 8003f9a:	d007      	beq.n	8003fac <HAL_RCC_OscConfig+0xec>
 8003f9c:	6863      	ldr	r3, [r4, #4]
 8003f9e:	f003 030c 	and.w	r3, r3, #12
 8003fa2:	2b08      	cmp	r3, #8
 8003fa4:	d110      	bne.n	8003fc8 <HAL_RCC_OscConfig+0x108>
 8003fa6:	6863      	ldr	r3, [r4, #4]
 8003fa8:	03da      	lsls	r2, r3, #15
 8003faa:	d40d      	bmi.n	8003fc8 <HAL_RCC_OscConfig+0x108>
 8003fac:	6823      	ldr	r3, [r4, #0]
 8003fae:	079b      	lsls	r3, r3, #30
 8003fb0:	d502      	bpl.n	8003fb8 <HAL_RCC_OscConfig+0xf8>
 8003fb2:	692b      	ldr	r3, [r5, #16]
 8003fb4:	2b01      	cmp	r3, #1
 8003fb6:	d1af      	bne.n	8003f18 <HAL_RCC_OscConfig+0x58>
 8003fb8:	6823      	ldr	r3, [r4, #0]
 8003fba:	696a      	ldr	r2, [r5, #20]
 8003fbc:	f023 03f8 	bic.w	r3, r3, #248	; 0xf8
 8003fc0:	ea43 03c2 	orr.w	r3, r3, r2, lsl #3
 8003fc4:	6023      	str	r3, [r4, #0]
 8003fc6:	e785      	b.n	8003ed4 <HAL_RCC_OscConfig+0x14>
 8003fc8:	692a      	ldr	r2, [r5, #16]
 8003fca:	4b5b      	ldr	r3, [pc, #364]	; (8004138 <HAL_RCC_OscConfig+0x278>)
 8003fcc:	b16a      	cbz	r2, 8003fea <HAL_RCC_OscConfig+0x12a>
 8003fce:	2201      	movs	r2, #1
 8003fd0:	601a      	str	r2, [r3, #0]
 8003fd2:	f7fe ff79 	bl	8002ec8 <HAL_GetTick>
 8003fd6:	4606      	mov	r6, r0
 8003fd8:	6823      	ldr	r3, [r4, #0]
 8003fda:	079f      	lsls	r7, r3, #30
 8003fdc:	d4ec      	bmi.n	8003fb8 <HAL_RCC_OscConfig+0xf8>
 8003fde:	f7fe ff73 	bl	8002ec8 <HAL_GetTick>
 8003fe2:	1b80      	subs	r0, r0, r6
 8003fe4:	2802      	cmp	r0, #2
 8003fe6:	d9f7      	bls.n	8003fd8 <HAL_RCC_OscConfig+0x118>
 8003fe8:	e7ab      	b.n	8003f42 <HAL_RCC_OscConfig+0x82>
 8003fea:	601a      	str	r2, [r3, #0]
 8003fec:	f7fe ff6c 	bl	8002ec8 <HAL_GetTick>
 8003ff0:	4606      	mov	r6, r0
 8003ff2:	6823      	ldr	r3, [r4, #0]
 8003ff4:	0798      	lsls	r0, r3, #30
 8003ff6:	f57f af6d 	bpl.w	8003ed4 <HAL_RCC_OscConfig+0x14>
 8003ffa:	f7fe ff65 	bl	8002ec8 <HAL_GetTick>
 8003ffe:	1b80      	subs	r0, r0, r6
 8004000:	2802      	cmp	r0, #2
 8004002:	d9f6      	bls.n	8003ff2 <HAL_RCC_OscConfig+0x132>
 8004004:	e79d      	b.n	8003f42 <HAL_RCC_OscConfig+0x82>
 8004006:	69aa      	ldr	r2, [r5, #24]
 8004008:	4e4a      	ldr	r6, [pc, #296]	; (8004134 <HAL_RCC_OscConfig+0x274>)
 800400a:	4b4b      	ldr	r3, [pc, #300]	; (8004138 <HAL_RCC_OscConfig+0x278>)
 800400c:	b1e2      	cbz	r2, 8004048 <HAL_RCC_OscConfig+0x188>
 800400e:	2201      	movs	r2, #1
 8004010:	f8c3 2480 	str.w	r2, [r3, #1152]	; 0x480
 8004014:	f7fe ff58 	bl	8002ec8 <HAL_GetTick>
 8004018:	4604      	mov	r4, r0
 800401a:	6a73      	ldr	r3, [r6, #36]	; 0x24
 800401c:	079b      	lsls	r3, r3, #30
 800401e:	d50d      	bpl.n	800403c <HAL_RCC_OscConfig+0x17c>
 8004020:	f44f 52fa 	mov.w	r2, #8000	; 0x1f40
 8004024:	4b45      	ldr	r3, [pc, #276]	; (800413c <HAL_RCC_OscConfig+0x27c>)
 8004026:	681b      	ldr	r3, [r3, #0]
 8004028:	fbb3 f3f2 	udiv	r3, r3, r2
 800402c:	9301      	str	r3, [sp, #4]
 800402e:	bf00      	nop
 8004030:	9b01      	ldr	r3, [sp, #4]
 8004032:	1e5a      	subs	r2, r3, #1
 8004034:	9201      	str	r2, [sp, #4]
 8004036:	2b00      	cmp	r3, #0
 8004038:	d1f9      	bne.n	800402e <HAL_RCC_OscConfig+0x16e>
 800403a:	e74f      	b.n	8003edc <HAL_RCC_OscConfig+0x1c>
 800403c:	f7fe ff44 	bl	8002ec8 <HAL_GetTick>
 8004040:	1b00      	subs	r0, r0, r4
 8004042:	2802      	cmp	r0, #2
 8004044:	d9e9      	bls.n	800401a <HAL_RCC_OscConfig+0x15a>
 8004046:	e77c      	b.n	8003f42 <HAL_RCC_OscConfig+0x82>
 8004048:	f8c3 2480 	str.w	r2, [r3, #1152]	; 0x480
 800404c:	f7fe ff3c 	bl	8002ec8 <HAL_GetTick>
 8004050:	4604      	mov	r4, r0
 8004052:	6a73      	ldr	r3, [r6, #36]	; 0x24
 8004054:	079f      	lsls	r7, r3, #30
 8004056:	f57f af41 	bpl.w	8003edc <HAL_RCC_OscConfig+0x1c>
 800405a:	f7fe ff35 	bl	8002ec8 <HAL_GetTick>
 800405e:	1b00      	subs	r0, r0, r4
 8004060:	2802      	cmp	r0, #2
 8004062:	d9f6      	bls.n	8004052 <HAL_RCC_OscConfig+0x192>
 8004064:	e76d      	b.n	8003f42 <HAL_RCC_OscConfig+0x82>
 8004066:	4c33      	ldr	r4, [pc, #204]	; (8004134 <HAL_RCC_OscConfig+0x274>)
 8004068:	69e3      	ldr	r3, [r4, #28]
 800406a:	00d8      	lsls	r0, r3, #3
 800406c:	d424      	bmi.n	80040b8 <HAL_RCC_OscConfig+0x1f8>
 800406e:	2701      	movs	r7, #1
 8004070:	69e3      	ldr	r3, [r4, #28]
 8004072:	f043 5380 	orr.w	r3, r3, #268435456	; 0x10000000
 8004076:	61e3      	str	r3, [r4, #28]
 8004078:	69e3      	ldr	r3, [r4, #28]
 800407a:	f003 5380 	and.w	r3, r3, #268435456	; 0x10000000
 800407e:	9300      	str	r3, [sp, #0]
 8004080:	9b00      	ldr	r3, [sp, #0]
 8004082:	4e2f      	ldr	r6, [pc, #188]	; (8004140 <HAL_RCC_OscConfig+0x280>)
 8004084:	6833      	ldr	r3, [r6, #0]
 8004086:	05d9      	lsls	r1, r3, #23
 8004088:	d518      	bpl.n	80040bc <HAL_RCC_OscConfig+0x1fc>
 800408a:	68eb      	ldr	r3, [r5, #12]
 800408c:	2b01      	cmp	r3, #1
 800408e:	d126      	bne.n	80040de <HAL_RCC_OscConfig+0x21e>
 8004090:	6a23      	ldr	r3, [r4, #32]
 8004092:	f043 0301 	orr.w	r3, r3, #1
 8004096:	6223      	str	r3, [r4, #32]
 8004098:	f7fe ff16 	bl	8002ec8 <HAL_GetTick>
 800409c:	f241 3888 	movw	r8, #5000	; 0x1388
 80040a0:	4606      	mov	r6, r0
 80040a2:	6a23      	ldr	r3, [r4, #32]
 80040a4:	079b      	lsls	r3, r3, #30
 80040a6:	d53f      	bpl.n	8004128 <HAL_RCC_OscConfig+0x268>
 80040a8:	2f00      	cmp	r7, #0
 80040aa:	f43f af1b 	beq.w	8003ee4 <HAL_RCC_OscConfig+0x24>
 80040ae:	69e3      	ldr	r3, [r4, #28]
 80040b0:	f023 5380 	bic.w	r3, r3, #268435456	; 0x10000000
 80040b4:	61e3      	str	r3, [r4, #28]
 80040b6:	e715      	b.n	8003ee4 <HAL_RCC_OscConfig+0x24>
 80040b8:	2700      	movs	r7, #0
 80040ba:	e7e2      	b.n	8004082 <HAL_RCC_OscConfig+0x1c2>
 80040bc:	6833      	ldr	r3, [r6, #0]
 80040be:	f443 7380 	orr.w	r3, r3, #256	; 0x100
 80040c2:	6033      	str	r3, [r6, #0]
 80040c4:	f7fe ff00 	bl	8002ec8 <HAL_GetTick>
 80040c8:	4680      	mov	r8, r0
 80040ca:	6833      	ldr	r3, [r6, #0]
 80040cc:	05da      	lsls	r2, r3, #23
 80040ce:	d4dc      	bmi.n	800408a <HAL_RCC_OscConfig+0x1ca>
 80040d0:	f7fe fefa 	bl	8002ec8 <HAL_GetTick>
 80040d4:	eba0 0008 	sub.w	r0, r0, r8
 80040d8:	2864      	cmp	r0, #100	; 0x64
 80040da:	d9f6      	bls.n	80040ca <HAL_RCC_OscConfig+0x20a>
 80040dc:	e731      	b.n	8003f42 <HAL_RCC_OscConfig+0x82>
 80040de:	b9ab      	cbnz	r3, 800410c <HAL_RCC_OscConfig+0x24c>
 80040e0:	6a23      	ldr	r3, [r4, #32]
 80040e2:	f241 3888 	movw	r8, #5000	; 0x1388
 80040e6:	f023 0301 	bic.w	r3, r3, #1
 80040ea:	6223      	str	r3, [r4, #32]
 80040ec:	6a23      	ldr	r3, [r4, #32]
 80040ee:	f023 0304 	bic.w	r3, r3, #4
 80040f2:	6223      	str	r3, [r4, #32]
 80040f4:	f7fe fee8 	bl	8002ec8 <HAL_GetTick>
 80040f8:	4606      	mov	r6, r0
 80040fa:	6a23      	ldr	r3, [r4, #32]
 80040fc:	0798      	lsls	r0, r3, #30
 80040fe:	d5d3      	bpl.n	80040a8 <HAL_RCC_OscConfig+0x1e8>
 8004100:	f7fe fee2 	bl	8002ec8 <HAL_GetTick>
 8004104:	1b80      	subs	r0, r0, r6
 8004106:	4540      	cmp	r0, r8
 8004108:	d9f7      	bls.n	80040fa <HAL_RCC_OscConfig+0x23a>
 800410a:	e71a      	b.n	8003f42 <HAL_RCC_OscConfig+0x82>
 800410c:	2b05      	cmp	r3, #5
 800410e:	6a23      	ldr	r3, [r4, #32]
 8004110:	d103      	bne.n	800411a <HAL_RCC_OscConfig+0x25a>
 8004112:	f043 0304 	orr.w	r3, r3, #4
 8004116:	6223      	str	r3, [r4, #32]
 8004118:	e7ba      	b.n	8004090 <HAL_RCC_OscConfig+0x1d0>
 800411a:	f023 0301 	bic.w	r3, r3, #1
 800411e:	6223      	str	r3, [r4, #32]
 8004120:	6a23      	ldr	r3, [r4, #32]
 8004122:	f023 0304 	bic.w	r3, r3, #4
 8004126:	e7b6      	b.n	8004096 <HAL_RCC_OscConfig+0x1d6>
 8004128:	f7fe fece 	bl	8002ec8 <HAL_GetTick>
 800412c:	1b80      	subs	r0, r0, r6
 800412e:	4540      	cmp	r0, r8
 8004130:	d9b7      	bls.n	80040a2 <HAL_RCC_OscConfig+0x1e2>
 8004132:	e706      	b.n	8003f42 <HAL_RCC_OscConfig+0x82>
 8004134:	40021000 	.word	0x40021000
 8004138:	42420000 	.word	0x42420000
 800413c:	20000000 	.word	0x20000000
 8004140:	40007000 	.word	0x40007000
 8004144:	4c2a      	ldr	r4, [pc, #168]	; (80041f0 <HAL_RCC_OscConfig+0x330>)
 8004146:	6863      	ldr	r3, [r4, #4]
 8004148:	f003 030c 	and.w	r3, r3, #12
 800414c:	2b08      	cmp	r3, #8
 800414e:	d03e      	beq.n	80041ce <HAL_RCC_OscConfig+0x30e>
 8004150:	2200      	movs	r2, #0
 8004152:	4b28      	ldr	r3, [pc, #160]	; (80041f4 <HAL_RCC_OscConfig+0x334>)
 8004154:	2802      	cmp	r0, #2
 8004156:	661a      	str	r2, [r3, #96]	; 0x60
 8004158:	d12c      	bne.n	80041b4 <HAL_RCC_OscConfig+0x2f4>
 800415a:	f7fe feb5 	bl	8002ec8 <HAL_GetTick>
 800415e:	4606      	mov	r6, r0
 8004160:	6823      	ldr	r3, [r4, #0]
 8004162:	0199      	lsls	r1, r3, #6
 8004164:	d420      	bmi.n	80041a8 <HAL_RCC_OscConfig+0x2e8>
 8004166:	6a2b      	ldr	r3, [r5, #32]
 8004168:	f5b3 3f80 	cmp.w	r3, #65536	; 0x10000
 800416c:	d105      	bne.n	800417a <HAL_RCC_OscConfig+0x2ba>
 800416e:	6862      	ldr	r2, [r4, #4]
 8004170:	68a9      	ldr	r1, [r5, #8]
 8004172:	f422 3200 	bic.w	r2, r2, #131072	; 0x20000
 8004176:	430a      	orrs	r2, r1
 8004178:	6062      	str	r2, [r4, #4]
 800417a:	6a69      	ldr	r1, [r5, #36]	; 0x24
 800417c:	6862      	ldr	r2, [r4, #4]
 800417e:	430b      	orrs	r3, r1
 8004180:	f422 1274 	bic.w	r2, r2, #3997696	; 0x3d0000
 8004184:	4313      	orrs	r3, r2
 8004186:	2201      	movs	r2, #1
 8004188:	6063      	str	r3, [r4, #4]
 800418a:	4b1a      	ldr	r3, [pc, #104]	; (80041f4 <HAL_RCC_OscConfig+0x334>)
 800418c:	661a      	str	r2, [r3, #96]	; 0x60
 800418e:	f7fe fe9b 	bl	8002ec8 <HAL_GetTick>
 8004192:	4605      	mov	r5, r0
 8004194:	6823      	ldr	r3, [r4, #0]
 8004196:	019a      	lsls	r2, r3, #6
 8004198:	f53f aea8 	bmi.w	8003eec <HAL_RCC_OscConfig+0x2c>
 800419c:	f7fe fe94 	bl	8002ec8 <HAL_GetTick>
 80041a0:	1b40      	subs	r0, r0, r5
 80041a2:	2802      	cmp	r0, #2
 80041a4:	d9f6      	bls.n	8004194 <HAL_RCC_OscConfig+0x2d4>
 80041a6:	e6cc      	b.n	8003f42 <HAL_RCC_OscConfig+0x82>
 80041a8:	f7fe fe8e 	bl	8002ec8 <HAL_GetTick>
 80041ac:	1b80      	subs	r0, r0, r6
 80041ae:	2802      	cmp	r0, #2
 80041b0:	d9d6      	bls.n	8004160 <HAL_RCC_OscConfig+0x2a0>
 80041b2:	e6c6      	b.n	8003f42 <HAL_RCC_OscConfig+0x82>
 80041b4:	f7fe fe88 	bl	8002ec8 <HAL_GetTick>
 80041b8:	4605      	mov	r5, r0
 80041ba:	6823      	ldr	r3, [r4, #0]
 80041bc:	019b      	lsls	r3, r3, #6
 80041be:	f57f ae95 	bpl.w	8003eec <HAL_RCC_OscConfig+0x2c>
 80041c2:	f7fe fe81 	bl	8002ec8 <HAL_GetTick>
 80041c6:	1b40      	subs	r0, r0, r5
 80041c8:	2802      	cmp	r0, #2
 80041ca:	d9f6      	bls.n	80041ba <HAL_RCC_OscConfig+0x2fa>
 80041cc:	e6b9      	b.n	8003f42 <HAL_RCC_OscConfig+0x82>
 80041ce:	2801      	cmp	r0, #1
 80041d0:	f43f aeb8 	beq.w	8003f44 <HAL_RCC_OscConfig+0x84>
 80041d4:	6863      	ldr	r3, [r4, #4]
 80041d6:	6a2a      	ldr	r2, [r5, #32]
 80041d8:	f403 3180 	and.w	r1, r3, #65536	; 0x10000
 80041dc:	4291      	cmp	r1, r2
 80041de:	f47f ae9b 	bne.w	8003f18 <HAL_RCC_OscConfig+0x58>
 80041e2:	6a6a      	ldr	r2, [r5, #36]	; 0x24
 80041e4:	f403 1370 	and.w	r3, r3, #3932160	; 0x3c0000
 80041e8:	4293      	cmp	r3, r2
 80041ea:	f43f ae7f 	beq.w	8003eec <HAL_RCC_OscConfig+0x2c>
 80041ee:	e693      	b.n	8003f18 <HAL_RCC_OscConfig+0x58>
 80041f0:	40021000 	.word	0x40021000
 80041f4:	42420000 	.word	0x42420000

080041f8 <HAL_RCC_GetSysClockFreq>:
 80041f8:	4a0d      	ldr	r2, [pc, #52]	; (8004230 <HAL_RCC_GetSysClockFreq+0x38>)
 80041fa:	6853      	ldr	r3, [r2, #4]
 80041fc:	f003 010c 	and.w	r1, r3, #12
 8004200:	2908      	cmp	r1, #8
 8004202:	d112      	bne.n	800422a <HAL_RCC_GetSysClockFreq+0x32>
 8004204:	480b      	ldr	r0, [pc, #44]	; (8004234 <HAL_RCC_GetSysClockFreq+0x3c>)
 8004206:	f3c3 4183 	ubfx	r1, r3, #18, #4
 800420a:	03db      	lsls	r3, r3, #15
 800420c:	5c40      	ldrb	r0, [r0, r1]
 800420e:	d509      	bpl.n	8004224 <HAL_RCC_GetSysClockFreq+0x2c>
 8004210:	6853      	ldr	r3, [r2, #4]
 8004212:	4a09      	ldr	r2, [pc, #36]	; (8004238 <HAL_RCC_GetSysClockFreq+0x40>)
 8004214:	f3c3 4340 	ubfx	r3, r3, #17, #1
 8004218:	4350      	muls	r0, r2
 800421a:	4a08      	ldr	r2, [pc, #32]	; (800423c <HAL_RCC_GetSysClockFreq+0x44>)
 800421c:	5cd3      	ldrb	r3, [r2, r3]
 800421e:	fbb0 f0f3 	udiv	r0, r0, r3
 8004222:	4770      	bx	lr
 8004224:	4b06      	ldr	r3, [pc, #24]	; (8004240 <HAL_RCC_GetSysClockFreq+0x48>)
 8004226:	4358      	muls	r0, r3
 8004228:	4770      	bx	lr
 800422a:	4803      	ldr	r0, [pc, #12]	; (8004238 <HAL_RCC_GetSysClockFreq+0x40>)
 800422c:	4770      	bx	lr
 800422e:	bf00      	nop
 8004230:	40021000 	.word	0x40021000
 8004234:	08007c08 	.word	0x08007c08
 8004238:	007a1200 	.word	0x007a1200
 800423c:	08007c18 	.word	0x08007c18
 8004240:	003d0900 	.word	0x003d0900

08004244 <HAL_RCC_ClockConfig>:
 8004244:	e92d 41f0 	stmdb	sp!, {r4, r5, r6, r7, r8, lr}
 8004248:	460d      	mov	r5, r1
 800424a:	4604      	mov	r4, r0
 800424c:	b910      	cbnz	r0, 8004254 <HAL_RCC_ClockConfig+0x10>
 800424e:	2001      	movs	r0, #1
 8004250:	e8bd 81f0 	ldmia.w	sp!, {r4, r5, r6, r7, r8, pc}
 8004254:	4a44      	ldr	r2, [pc, #272]	; (8004368 <HAL_RCC_ClockConfig+0x124>)
 8004256:	6813      	ldr	r3, [r2, #0]
 8004258:	f003 0307 	and.w	r3, r3, #7
 800425c:	428b      	cmp	r3, r1
 800425e:	d328      	bcc.n	80042b2 <HAL_RCC_ClockConfig+0x6e>
 8004260:	6821      	ldr	r1, [r4, #0]
 8004262:	078e      	lsls	r6, r1, #30
 8004264:	d430      	bmi.n	80042c8 <HAL_RCC_ClockConfig+0x84>
 8004266:	07ca      	lsls	r2, r1, #31
 8004268:	d443      	bmi.n	80042f2 <HAL_RCC_ClockConfig+0xae>
 800426a:	4a3f      	ldr	r2, [pc, #252]	; (8004368 <HAL_RCC_ClockConfig+0x124>)
 800426c:	6813      	ldr	r3, [r2, #0]
 800426e:	f003 0307 	and.w	r3, r3, #7
 8004272:	42ab      	cmp	r3, r5
 8004274:	d865      	bhi.n	8004342 <HAL_RCC_ClockConfig+0xfe>
 8004276:	6822      	ldr	r2, [r4, #0]
 8004278:	4d3c      	ldr	r5, [pc, #240]	; (800436c <HAL_RCC_ClockConfig+0x128>)
 800427a:	f012 0f04 	tst.w	r2, #4
 800427e:	d16c      	bne.n	800435a <HAL_RCC_ClockConfig+0x116>
 8004280:	0713      	lsls	r3, r2, #28
 8004282:	d506      	bpl.n	8004292 <HAL_RCC_ClockConfig+0x4e>
 8004284:	686b      	ldr	r3, [r5, #4]
 8004286:	6922      	ldr	r2, [r4, #16]
 8004288:	f423 5360 	bic.w	r3, r3, #14336	; 0x3800
 800428c:	ea43 03c2 	orr.w	r3, r3, r2, lsl #3
 8004290:	606b      	str	r3, [r5, #4]
 8004292:	f7ff ffb1 	bl	80041f8 <HAL_RCC_GetSysClockFreq>
 8004296:	686b      	ldr	r3, [r5, #4]
 8004298:	4a35      	ldr	r2, [pc, #212]	; (8004370 <HAL_RCC_ClockConfig+0x12c>)
 800429a:	f3c3 1303 	ubfx	r3, r3, #4, #4
 800429e:	5cd3      	ldrb	r3, [r2, r3]
 80042a0:	40d8      	lsrs	r0, r3
 80042a2:	4b34      	ldr	r3, [pc, #208]	; (8004374 <HAL_RCC_ClockConfig+0x130>)
 80042a4:	6018      	str	r0, [r3, #0]
 80042a6:	4b34      	ldr	r3, [pc, #208]	; (8004378 <HAL_RCC_ClockConfig+0x134>)
 80042a8:	6818      	ldr	r0, [r3, #0]
 80042aa:	f7fe fdcb 	bl	8002e44 <HAL_InitTick>
 80042ae:	2000      	movs	r0, #0
 80042b0:	e7ce      	b.n	8004250 <HAL_RCC_ClockConfig+0xc>
 80042b2:	6813      	ldr	r3, [r2, #0]
 80042b4:	f023 0307 	bic.w	r3, r3, #7
 80042b8:	430b      	orrs	r3, r1
 80042ba:	6013      	str	r3, [r2, #0]
 80042bc:	6813      	ldr	r3, [r2, #0]
 80042be:	f003 0307 	and.w	r3, r3, #7
 80042c2:	428b      	cmp	r3, r1
 80042c4:	d1c3      	bne.n	800424e <HAL_RCC_ClockConfig+0xa>
 80042c6:	e7cb      	b.n	8004260 <HAL_RCC_ClockConfig+0x1c>
 80042c8:	4b28      	ldr	r3, [pc, #160]	; (800436c <HAL_RCC_ClockConfig+0x128>)
 80042ca:	f011 0f04 	tst.w	r1, #4
 80042ce:	bf1e      	ittt	ne
 80042d0:	685a      	ldrne	r2, [r3, #4]
 80042d2:	f442 62e0 	orrne.w	r2, r2, #1792	; 0x700
 80042d6:	605a      	strne	r2, [r3, #4]
 80042d8:	0708      	lsls	r0, r1, #28
 80042da:	bf42      	ittt	mi
 80042dc:	685a      	ldrmi	r2, [r3, #4]
 80042de:	f442 5260 	orrmi.w	r2, r2, #14336	; 0x3800
 80042e2:	605a      	strmi	r2, [r3, #4]
 80042e4:	685a      	ldr	r2, [r3, #4]
 80042e6:	68a0      	ldr	r0, [r4, #8]
 80042e8:	f022 02f0 	bic.w	r2, r2, #240	; 0xf0
 80042ec:	4302      	orrs	r2, r0
 80042ee:	605a      	str	r2, [r3, #4]
 80042f0:	e7b9      	b.n	8004266 <HAL_RCC_ClockConfig+0x22>
 80042f2:	6862      	ldr	r2, [r4, #4]
 80042f4:	4e1d      	ldr	r6, [pc, #116]	; (800436c <HAL_RCC_ClockConfig+0x128>)
 80042f6:	2a01      	cmp	r2, #1
 80042f8:	6833      	ldr	r3, [r6, #0]
 80042fa:	d11a      	bne.n	8004332 <HAL_RCC_ClockConfig+0xee>
 80042fc:	f413 3f00 	tst.w	r3, #131072	; 0x20000
 8004300:	d0a5      	beq.n	800424e <HAL_RCC_ClockConfig+0xa>
 8004302:	6873      	ldr	r3, [r6, #4]
 8004304:	f241 3888 	movw	r8, #5000	; 0x1388
 8004308:	f023 0303 	bic.w	r3, r3, #3
 800430c:	4313      	orrs	r3, r2
 800430e:	6073      	str	r3, [r6, #4]
 8004310:	f7fe fdda 	bl	8002ec8 <HAL_GetTick>
 8004314:	4607      	mov	r7, r0
 8004316:	6873      	ldr	r3, [r6, #4]
 8004318:	6862      	ldr	r2, [r4, #4]
 800431a:	f003 030c 	and.w	r3, r3, #12
 800431e:	ebb3 0f82 	cmp.w	r3, r2, lsl #2
 8004322:	d0a2      	beq.n	800426a <HAL_RCC_ClockConfig+0x26>
 8004324:	f7fe fdd0 	bl	8002ec8 <HAL_GetTick>
 8004328:	1bc0      	subs	r0, r0, r7
 800432a:	4540      	cmp	r0, r8
 800432c:	d9f3      	bls.n	8004316 <HAL_RCC_ClockConfig+0xd2>
 800432e:	2003      	movs	r0, #3
 8004330:	e78e      	b.n	8004250 <HAL_RCC_ClockConfig+0xc>
 8004332:	2a02      	cmp	r2, #2
 8004334:	d102      	bne.n	800433c <HAL_RCC_ClockConfig+0xf8>
 8004336:	f013 7f00 	tst.w	r3, #33554432	; 0x2000000
 800433a:	e7e1      	b.n	8004300 <HAL_RCC_ClockConfig+0xbc>
 800433c:	f013 0f02 	tst.w	r3, #2
 8004340:	e7de      	b.n	8004300 <HAL_RCC_ClockConfig+0xbc>
 8004342:	6813      	ldr	r3, [r2, #0]
 8004344:	f023 0307 	bic.w	r3, r3, #7
 8004348:	432b      	orrs	r3, r5
 800434a:	6013      	str	r3, [r2, #0]
 800434c:	6813      	ldr	r3, [r2, #0]
 800434e:	f003 0307 	and.w	r3, r3, #7
 8004352:	42ab      	cmp	r3, r5
 8004354:	f47f af7b 	bne.w	800424e <HAL_RCC_ClockConfig+0xa>
 8004358:	e78d      	b.n	8004276 <HAL_RCC_ClockConfig+0x32>
 800435a:	686b      	ldr	r3, [r5, #4]
 800435c:	68e1      	ldr	r1, [r4, #12]
 800435e:	f423 63e0 	bic.w	r3, r3, #1792	; 0x700
 8004362:	430b      	orrs	r3, r1
 8004364:	606b      	str	r3, [r5, #4]
 8004366:	e78b      	b.n	8004280 <HAL_RCC_ClockConfig+0x3c>
 8004368:	40022000 	.word	0x40022000
 800436c:	40021000 	.word	0x40021000
 8004370:	08007bf0 	.word	0x08007bf0
 8004374:	20000000 	.word	0x20000000
 8004378:	200000ac 	.word	0x200000ac

0800437c <HAL_RCC_GetPCLK1Freq>:
 800437c:	4b04      	ldr	r3, [pc, #16]	; (8004390 <HAL_RCC_GetPCLK1Freq+0x14>)
 800437e:	4a05      	ldr	r2, [pc, #20]	; (8004394 <HAL_RCC_GetPCLK1Freq+0x18>)
 8004380:	685b      	ldr	r3, [r3, #4]
 8004382:	f3c3 2302 	ubfx	r3, r3, #8, #3
 8004386:	5cd3      	ldrb	r3, [r2, r3]
 8004388:	4a03      	ldr	r2, [pc, #12]	; (8004398 <HAL_RCC_GetPCLK1Freq+0x1c>)
 800438a:	6810      	ldr	r0, [r2, #0]
 800438c:	40d8      	lsrs	r0, r3
 800438e:	4770      	bx	lr
 8004390:	40021000 	.word	0x40021000
 8004394:	08007c00 	.word	0x08007c00
 8004398:	20000000 	.word	0x20000000

0800439c <HAL_RCC_GetPCLK2Freq>:
 800439c:	4b04      	ldr	r3, [pc, #16]	; (80043b0 <HAL_RCC_GetPCLK2Freq+0x14>)
 800439e:	4a05      	ldr	r2, [pc, #20]	; (80043b4 <HAL_RCC_GetPCLK2Freq+0x18>)
 80043a0:	685b      	ldr	r3, [r3, #4]
 80043a2:	f3c3 23c2 	ubfx	r3, r3, #11, #3
 80043a6:	5cd3      	ldrb	r3, [r2, r3]
 80043a8:	4a03      	ldr	r2, [pc, #12]	; (80043b8 <HAL_RCC_GetPCLK2Freq+0x1c>)
 80043aa:	6810      	ldr	r0, [r2, #0]
 80043ac:	40d8      	lsrs	r0, r3
 80043ae:	4770      	bx	lr
 80043b0:	40021000 	.word	0x40021000
 80043b4:	08007c00 	.word	0x08007c00
 80043b8:	20000000 	.word	0x20000000

080043bc <HAL_RCCEx_PeriphCLKConfig>:
 80043bc:	6803      	ldr	r3, [r0, #0]
 80043be:	e92d 41f3 	stmdb	sp!, {r0, r1, r4, r5, r6, r7, r8, lr}
 80043c2:	07d9      	lsls	r1, r3, #31
 80043c4:	4605      	mov	r5, r0
 80043c6:	d521      	bpl.n	800440c <HAL_RCCEx_PeriphCLKConfig+0x50>
 80043c8:	4c36      	ldr	r4, [pc, #216]	; (80044a4 <HAL_RCCEx_PeriphCLKConfig+0xe8>)
 80043ca:	69e3      	ldr	r3, [r4, #28]
 80043cc:	00da      	lsls	r2, r3, #3
 80043ce:	d433      	bmi.n	8004438 <HAL_RCCEx_PeriphCLKConfig+0x7c>
 80043d0:	2601      	movs	r6, #1
 80043d2:	69e3      	ldr	r3, [r4, #28]
 80043d4:	f043 5380 	orr.w	r3, r3, #268435456	; 0x10000000
 80043d8:	61e3      	str	r3, [r4, #28]
 80043da:	69e3      	ldr	r3, [r4, #28]
 80043dc:	f003 5380 	and.w	r3, r3, #268435456	; 0x10000000
 80043e0:	9301      	str	r3, [sp, #4]
 80043e2:	9b01      	ldr	r3, [sp, #4]
 80043e4:	4f30      	ldr	r7, [pc, #192]	; (80044a8 <HAL_RCCEx_PeriphCLKConfig+0xec>)
 80043e6:	683b      	ldr	r3, [r7, #0]
 80043e8:	05db      	lsls	r3, r3, #23
 80043ea:	d527      	bpl.n	800443c <HAL_RCCEx_PeriphCLKConfig+0x80>
 80043ec:	6a23      	ldr	r3, [r4, #32]
 80043ee:	686a      	ldr	r2, [r5, #4]
 80043f0:	f413 7340 	ands.w	r3, r3, #768	; 0x300
 80043f4:	d136      	bne.n	8004464 <HAL_RCCEx_PeriphCLKConfig+0xa8>
 80043f6:	6a23      	ldr	r3, [r4, #32]
 80043f8:	686a      	ldr	r2, [r5, #4]
 80043fa:	f423 7340 	bic.w	r3, r3, #768	; 0x300
 80043fe:	4313      	orrs	r3, r2
 8004400:	6223      	str	r3, [r4, #32]
 8004402:	b11e      	cbz	r6, 800440c <HAL_RCCEx_PeriphCLKConfig+0x50>
 8004404:	69e3      	ldr	r3, [r4, #28]
 8004406:	f023 5380 	bic.w	r3, r3, #268435456	; 0x10000000
 800440a:	61e3      	str	r3, [r4, #28]
 800440c:	6828      	ldr	r0, [r5, #0]
 800440e:	0783      	lsls	r3, r0, #30
 8004410:	d506      	bpl.n	8004420 <HAL_RCCEx_PeriphCLKConfig+0x64>
 8004412:	4924      	ldr	r1, [pc, #144]	; (80044a4 <HAL_RCCEx_PeriphCLKConfig+0xe8>)
 8004414:	68ab      	ldr	r3, [r5, #8]
 8004416:	684a      	ldr	r2, [r1, #4]
 8004418:	f422 4240 	bic.w	r2, r2, #49152	; 0xc000
 800441c:	431a      	orrs	r2, r3
 800441e:	604a      	str	r2, [r1, #4]
 8004420:	f010 0010 	ands.w	r0, r0, #16
 8004424:	d01b      	beq.n	800445e <HAL_RCCEx_PeriphCLKConfig+0xa2>
 8004426:	4a1f      	ldr	r2, [pc, #124]	; (80044a4 <HAL_RCCEx_PeriphCLKConfig+0xe8>)
 8004428:	68e9      	ldr	r1, [r5, #12]
 800442a:	6853      	ldr	r3, [r2, #4]
 800442c:	2000      	movs	r0, #0
 800442e:	f423 0380 	bic.w	r3, r3, #4194304	; 0x400000
 8004432:	430b      	orrs	r3, r1
 8004434:	6053      	str	r3, [r2, #4]
 8004436:	e012      	b.n	800445e <HAL_RCCEx_PeriphCLKConfig+0xa2>
 8004438:	2600      	movs	r6, #0
 800443a:	e7d3      	b.n	80043e4 <HAL_RCCEx_PeriphCLKConfig+0x28>
 800443c:	683b      	ldr	r3, [r7, #0]
 800443e:	f443 7380 	orr.w	r3, r3, #256	; 0x100
 8004442:	603b      	str	r3, [r7, #0]
 8004444:	f7fe fd40 	bl	8002ec8 <HAL_GetTick>
 8004448:	4680      	mov	r8, r0
 800444a:	683b      	ldr	r3, [r7, #0]
 800444c:	05d8      	lsls	r0, r3, #23
 800444e:	d4cd      	bmi.n	80043ec <HAL_RCCEx_PeriphCLKConfig+0x30>
 8004450:	f7fe fd3a 	bl	8002ec8 <HAL_GetTick>
 8004454:	eba0 0008 	sub.w	r0, r0, r8
 8004458:	2864      	cmp	r0, #100	; 0x64
 800445a:	d9f6      	bls.n	800444a <HAL_RCCEx_PeriphCLKConfig+0x8e>
 800445c:	2003      	movs	r0, #3
 800445e:	b002      	add	sp, #8
 8004460:	e8bd 81f0 	ldmia.w	sp!, {r4, r5, r6, r7, r8, pc}
 8004464:	f402 7240 	and.w	r2, r2, #768	; 0x300
 8004468:	429a      	cmp	r2, r3
 800446a:	d0c4      	beq.n	80043f6 <HAL_RCCEx_PeriphCLKConfig+0x3a>
 800446c:	2001      	movs	r0, #1
 800446e:	4a0f      	ldr	r2, [pc, #60]	; (80044ac <HAL_RCCEx_PeriphCLKConfig+0xf0>)
 8004470:	6a23      	ldr	r3, [r4, #32]
 8004472:	f8c2 0440 	str.w	r0, [r2, #1088]	; 0x440
 8004476:	2000      	movs	r0, #0
 8004478:	f423 7140 	bic.w	r1, r3, #768	; 0x300
 800447c:	f8c2 0440 	str.w	r0, [r2, #1088]	; 0x440
 8004480:	6221      	str	r1, [r4, #32]
 8004482:	07d9      	lsls	r1, r3, #31
 8004484:	d5b7      	bpl.n	80043f6 <HAL_RCCEx_PeriphCLKConfig+0x3a>
 8004486:	f7fe fd1f 	bl	8002ec8 <HAL_GetTick>
 800448a:	f241 3888 	movw	r8, #5000	; 0x1388
 800448e:	4607      	mov	r7, r0
 8004490:	6a23      	ldr	r3, [r4, #32]
 8004492:	079a      	lsls	r2, r3, #30
 8004494:	d4af      	bmi.n	80043f6 <HAL_RCCEx_PeriphCLKConfig+0x3a>
 8004496:	f7fe fd17 	bl	8002ec8 <HAL_GetTick>
 800449a:	1bc0      	subs	r0, r0, r7
 800449c:	4540      	cmp	r0, r8
 800449e:	d9f7      	bls.n	8004490 <HAL_RCCEx_PeriphCLKConfig+0xd4>
 80044a0:	e7dc      	b.n	800445c <HAL_RCCEx_PeriphCLKConfig+0xa0>
 80044a2:	bf00      	nop
 80044a4:	40021000 	.word	0x40021000
 80044a8:	40007000 	.word	0x40007000
 80044ac:	42420000 	.word	0x42420000

080044b0 <TIM_OC1_SetConfig>:
 80044b0:	6a03      	ldr	r3, [r0, #32]
 80044b2:	6a02      	ldr	r2, [r0, #32]
 80044b4:	b570      	push	{r4, r5, r6, lr}
 80044b6:	f022 0201 	bic.w	r2, r2, #1
 80044ba:	6202      	str	r2, [r0, #32]
 80044bc:	6844      	ldr	r4, [r0, #4]
 80044be:	6982      	ldr	r2, [r0, #24]
 80044c0:	680d      	ldr	r5, [r1, #0]
 80044c2:	f022 0273 	bic.w	r2, r2, #115	; 0x73
 80044c6:	432a      	orrs	r2, r5
 80044c8:	688d      	ldr	r5, [r1, #8]
 80044ca:	f023 0302 	bic.w	r3, r3, #2
 80044ce:	432b      	orrs	r3, r5
 80044d0:	4d0a      	ldr	r5, [pc, #40]	; (80044fc <TIM_OC1_SetConfig+0x4c>)
 80044d2:	42a8      	cmp	r0, r5
 80044d4:	d10b      	bne.n	80044ee <TIM_OC1_SetConfig+0x3e>
 80044d6:	68cd      	ldr	r5, [r1, #12]
 80044d8:	f023 0308 	bic.w	r3, r3, #8
 80044dc:	432b      	orrs	r3, r5
 80044de:	f424 7440 	bic.w	r4, r4, #768	; 0x300
 80044e2:	e9d1 5605 	ldrd	r5, r6, [r1, #20]
 80044e6:	4335      	orrs	r5, r6
 80044e8:	f023 0304 	bic.w	r3, r3, #4
 80044ec:	432c      	orrs	r4, r5
 80044ee:	6044      	str	r4, [r0, #4]
 80044f0:	6182      	str	r2, [r0, #24]
 80044f2:	684a      	ldr	r2, [r1, #4]
 80044f4:	6342      	str	r2, [r0, #52]	; 0x34
 80044f6:	6203      	str	r3, [r0, #32]
 80044f8:	bd70      	pop	{r4, r5, r6, pc}
 80044fa:	bf00      	nop
 80044fc:	40012c00 	.word	0x40012c00

08004500 <TIM_OC3_SetConfig>:
 8004500:	6a03      	ldr	r3, [r0, #32]
 8004502:	6a02      	ldr	r2, [r0, #32]
 8004504:	b570      	push	{r4, r5, r6, lr}
 8004506:	f422 7280 	bic.w	r2, r2, #256	; 0x100
 800450a:	6202      	str	r2, [r0, #32]
 800450c:	6844      	ldr	r4, [r0, #4]
 800450e:	69c2      	ldr	r2, [r0, #28]
 8004510:	680d      	ldr	r5, [r1, #0]
 8004512:	f022 0273 	bic.w	r2, r2, #115	; 0x73
 8004516:	432a      	orrs	r2, r5
 8004518:	688d      	ldr	r5, [r1, #8]
 800451a:	f423 7300 	bic.w	r3, r3, #512	; 0x200
 800451e:	ea43 2305 	orr.w	r3, r3, r5, lsl #8
 8004522:	4d0b      	ldr	r5, [pc, #44]	; (8004550 <TIM_OC3_SetConfig+0x50>)
 8004524:	42a8      	cmp	r0, r5
 8004526:	d10d      	bne.n	8004544 <TIM_OC3_SetConfig+0x44>
 8004528:	68cd      	ldr	r5, [r1, #12]
 800452a:	f423 6300 	bic.w	r3, r3, #2048	; 0x800
 800452e:	ea43 2305 	orr.w	r3, r3, r5, lsl #8
 8004532:	f424 5440 	bic.w	r4, r4, #12288	; 0x3000
 8004536:	e9d1 5605 	ldrd	r5, r6, [r1, #20]
 800453a:	4335      	orrs	r5, r6
 800453c:	f423 6380 	bic.w	r3, r3, #1024	; 0x400
 8004540:	ea44 1405 	orr.w	r4, r4, r5, lsl #4
 8004544:	6044      	str	r4, [r0, #4]
 8004546:	61c2      	str	r2, [r0, #28]
 8004548:	684a      	ldr	r2, [r1, #4]
 800454a:	63c2      	str	r2, [r0, #60]	; 0x3c
 800454c:	6203      	str	r3, [r0, #32]
 800454e:	bd70      	pop	{r4, r5, r6, pc}
 8004550:	40012c00 	.word	0x40012c00

08004554 <TIM_OC4_SetConfig>:
 8004554:	6a03      	ldr	r3, [r0, #32]
 8004556:	6a02      	ldr	r2, [r0, #32]
 8004558:	b530      	push	{r4, r5, lr}
 800455a:	f422 5280 	bic.w	r2, r2, #4096	; 0x1000
 800455e:	6202      	str	r2, [r0, #32]
 8004560:	6844      	ldr	r4, [r0, #4]
 8004562:	69c2      	ldr	r2, [r0, #28]
 8004564:	680d      	ldr	r5, [r1, #0]
 8004566:	f422 42e6 	bic.w	r2, r2, #29440	; 0x7300
 800456a:	ea42 2205 	orr.w	r2, r2, r5, lsl #8
 800456e:	688d      	ldr	r5, [r1, #8]
 8004570:	f423 5300 	bic.w	r3, r3, #8192	; 0x2000
 8004574:	ea43 3305 	orr.w	r3, r3, r5, lsl #12
 8004578:	4d06      	ldr	r5, [pc, #24]	; (8004594 <TIM_OC4_SetConfig+0x40>)
 800457a:	42a8      	cmp	r0, r5
 800457c:	bf02      	ittt	eq
 800457e:	694d      	ldreq	r5, [r1, #20]
 8004580:	f424 4480 	biceq.w	r4, r4, #16384	; 0x4000
 8004584:	ea44 1485 	orreq.w	r4, r4, r5, lsl #6
 8004588:	6044      	str	r4, [r0, #4]
 800458a:	61c2      	str	r2, [r0, #28]
 800458c:	684a      	ldr	r2, [r1, #4]
 800458e:	6402      	str	r2, [r0, #64]	; 0x40
 8004590:	6203      	str	r3, [r0, #32]
 8004592:	bd30      	pop	{r4, r5, pc}
 8004594:	40012c00 	.word	0x40012c00

08004598 <HAL_TIM_Base_Start>:
 8004598:	f890 303d 	ldrb.w	r3, [r0, #61]	; 0x3d
 800459c:	2b01      	cmp	r3, #1
 800459e:	d11c      	bne.n	80045da <HAL_TIM_Base_Start+0x42>
 80045a0:	2302      	movs	r3, #2
 80045a2:	4a0f      	ldr	r2, [pc, #60]	; (80045e0 <HAL_TIM_Base_Start+0x48>)
 80045a4:	f880 303d 	strb.w	r3, [r0, #61]	; 0x3d
 80045a8:	6803      	ldr	r3, [r0, #0]
 80045aa:	4293      	cmp	r3, r2
 80045ac:	d00a      	beq.n	80045c4 <HAL_TIM_Base_Start+0x2c>
 80045ae:	f1b3 4f80 	cmp.w	r3, #1073741824	; 0x40000000
 80045b2:	d007      	beq.n	80045c4 <HAL_TIM_Base_Start+0x2c>
 80045b4:	f5a2 3294 	sub.w	r2, r2, #75776	; 0x12800
 80045b8:	4293      	cmp	r3, r2
 80045ba:	d003      	beq.n	80045c4 <HAL_TIM_Base_Start+0x2c>
 80045bc:	f502 6280 	add.w	r2, r2, #1024	; 0x400
 80045c0:	4293      	cmp	r3, r2
 80045c2:	d104      	bne.n	80045ce <HAL_TIM_Base_Start+0x36>
 80045c4:	689a      	ldr	r2, [r3, #8]
 80045c6:	f002 0207 	and.w	r2, r2, #7
 80045ca:	2a06      	cmp	r2, #6
 80045cc:	d003      	beq.n	80045d6 <HAL_TIM_Base_Start+0x3e>
 80045ce:	681a      	ldr	r2, [r3, #0]
 80045d0:	f042 0201 	orr.w	r2, r2, #1
 80045d4:	601a      	str	r2, [r3, #0]
 80045d6:	2000      	movs	r0, #0
 80045d8:	4770      	bx	lr
 80045da:	2001      	movs	r0, #1
 80045dc:	4770      	bx	lr
 80045de:	bf00      	nop
 80045e0:	40012c00 	.word	0x40012c00

080045e4 <HAL_TIM_Base_Start_IT>:
 80045e4:	f890 303d 	ldrb.w	r3, [r0, #61]	; 0x3d
 80045e8:	2b01      	cmp	r3, #1
 80045ea:	d120      	bne.n	800462e <HAL_TIM_Base_Start_IT+0x4a>
 80045ec:	2302      	movs	r3, #2
 80045ee:	f880 303d 	strb.w	r3, [r0, #61]	; 0x3d
 80045f2:	6803      	ldr	r3, [r0, #0]
 80045f4:	68da      	ldr	r2, [r3, #12]
 80045f6:	f042 0201 	orr.w	r2, r2, #1
 80045fa:	60da      	str	r2, [r3, #12]
 80045fc:	4a0d      	ldr	r2, [pc, #52]	; (8004634 <HAL_TIM_Base_Start_IT+0x50>)
 80045fe:	4293      	cmp	r3, r2
 8004600:	d00a      	beq.n	8004618 <HAL_TIM_Base_Start_IT+0x34>
 8004602:	f1b3 4f80 	cmp.w	r3, #1073741824	; 0x40000000
 8004606:	d007      	beq.n	8004618 <HAL_TIM_Base_Start_IT+0x34>
 8004608:	f5a2 3294 	sub.w	r2, r2, #75776	; 0x12800
 800460c:	4293      	cmp	r3, r2
 800460e:	d003      	beq.n	8004618 <HAL_TIM_Base_Start_IT+0x34>
 8004610:	f502 6280 	add.w	r2, r2, #1024	; 0x400
 8004614:	4293      	cmp	r3, r2
 8004616:	d104      	bne.n	8004622 <HAL_TIM_Base_Start_IT+0x3e>
 8004618:	689a      	ldr	r2, [r3, #8]
 800461a:	f002 0207 	and.w	r2, r2, #7
 800461e:	2a06      	cmp	r2, #6
 8004620:	d003      	beq.n	800462a <HAL_TIM_Base_Start_IT+0x46>
 8004622:	681a      	ldr	r2, [r3, #0]
 8004624:	f042 0201 	orr.w	r2, r2, #1
 8004628:	601a      	str	r2, [r3, #0]
 800462a:	2000      	movs	r0, #0
 800462c:	4770      	bx	lr
 800462e:	2001      	movs	r0, #1
 8004630:	4770      	bx	lr
 8004632:	bf00      	nop
 8004634:	40012c00 	.word	0x40012c00

08004638 <HAL_TIM_OC_DelayElapsedCallback>:
 8004638:	4770      	bx	lr

0800463a <HAL_TIM_IC_CaptureCallback>:
 800463a:	4770      	bx	lr

0800463c <HAL_TIM_PWM_PulseFinishedCallback>:
 800463c:	4770      	bx	lr

0800463e <HAL_TIM_TriggerCallback>:
 800463e:	4770      	bx	lr

08004640 <HAL_TIM_IRQHandler>:
 8004640:	6803      	ldr	r3, [r0, #0]
 8004642:	b570      	push	{r4, r5, r6, lr}
 8004644:	68dd      	ldr	r5, [r3, #12]
 8004646:	691e      	ldr	r6, [r3, #16]
 8004648:	4604      	mov	r4, r0
 800464a:	07b1      	lsls	r1, r6, #30
 800464c:	d50d      	bpl.n	800466a <HAL_TIM_IRQHandler+0x2a>
 800464e:	07aa      	lsls	r2, r5, #30
 8004650:	d50b      	bpl.n	800466a <HAL_TIM_IRQHandler+0x2a>
 8004652:	f06f 0202 	mvn.w	r2, #2
 8004656:	611a      	str	r2, [r3, #16]
 8004658:	2201      	movs	r2, #1
 800465a:	7702      	strb	r2, [r0, #28]
 800465c:	699b      	ldr	r3, [r3, #24]
 800465e:	079b      	lsls	r3, r3, #30
 8004660:	d069      	beq.n	8004736 <HAL_TIM_IRQHandler+0xf6>
 8004662:	f7ff ffea 	bl	800463a <HAL_TIM_IC_CaptureCallback>
 8004666:	2300      	movs	r3, #0
 8004668:	7723      	strb	r3, [r4, #28]
 800466a:	0771      	lsls	r1, r6, #29
 800466c:	d510      	bpl.n	8004690 <HAL_TIM_IRQHandler+0x50>
 800466e:	076a      	lsls	r2, r5, #29
 8004670:	d50e      	bpl.n	8004690 <HAL_TIM_IRQHandler+0x50>
 8004672:	f06f 0204 	mvn.w	r2, #4
 8004676:	6823      	ldr	r3, [r4, #0]
 8004678:	4620      	mov	r0, r4
 800467a:	611a      	str	r2, [r3, #16]
 800467c:	2202      	movs	r2, #2
 800467e:	7722      	strb	r2, [r4, #28]
 8004680:	699b      	ldr	r3, [r3, #24]
 8004682:	f413 7f40 	tst.w	r3, #768	; 0x300
 8004686:	d05c      	beq.n	8004742 <HAL_TIM_IRQHandler+0x102>
 8004688:	f7ff ffd7 	bl	800463a <HAL_TIM_IC_CaptureCallback>
 800468c:	2300      	movs	r3, #0
 800468e:	7723      	strb	r3, [r4, #28]
 8004690:	0733      	lsls	r3, r6, #28
 8004692:	d50f      	bpl.n	80046b4 <HAL_TIM_IRQHandler+0x74>
 8004694:	0728      	lsls	r0, r5, #28
 8004696:	d50d      	bpl.n	80046b4 <HAL_TIM_IRQHandler+0x74>
 8004698:	f06f 0208 	mvn.w	r2, #8
 800469c:	6823      	ldr	r3, [r4, #0]
 800469e:	4620      	mov	r0, r4
 80046a0:	611a      	str	r2, [r3, #16]
 80046a2:	2204      	movs	r2, #4
 80046a4:	7722      	strb	r2, [r4, #28]
 80046a6:	69db      	ldr	r3, [r3, #28]
 80046a8:	0799      	lsls	r1, r3, #30
 80046aa:	d050      	beq.n	800474e <HAL_TIM_IRQHandler+0x10e>
 80046ac:	f7ff ffc5 	bl	800463a <HAL_TIM_IC_CaptureCallback>
 80046b0:	2300      	movs	r3, #0
 80046b2:	7723      	strb	r3, [r4, #28]
 80046b4:	06f2      	lsls	r2, r6, #27
 80046b6:	d510      	bpl.n	80046da <HAL_TIM_IRQHandler+0x9a>
 80046b8:	06eb      	lsls	r3, r5, #27
 80046ba:	d50e      	bpl.n	80046da <HAL_TIM_IRQHandler+0x9a>
 80046bc:	f06f 0210 	mvn.w	r2, #16
 80046c0:	6823      	ldr	r3, [r4, #0]
 80046c2:	4620      	mov	r0, r4
 80046c4:	611a      	str	r2, [r3, #16]
 80046c6:	2208      	movs	r2, #8
 80046c8:	7722      	strb	r2, [r4, #28]
 80046ca:	69db      	ldr	r3, [r3, #28]
 80046cc:	f413 7f40 	tst.w	r3, #768	; 0x300
 80046d0:	d043      	beq.n	800475a <HAL_TIM_IRQHandler+0x11a>
 80046d2:	f7ff ffb2 	bl	800463a <HAL_TIM_IC_CaptureCallback>
 80046d6:	2300      	movs	r3, #0
 80046d8:	7723      	strb	r3, [r4, #28]
 80046da:	07f0      	lsls	r0, r6, #31
 80046dc:	d508      	bpl.n	80046f0 <HAL_TIM_IRQHandler+0xb0>
 80046de:	07e9      	lsls	r1, r5, #31
 80046e0:	d506      	bpl.n	80046f0 <HAL_TIM_IRQHandler+0xb0>
 80046e2:	f06f 0201 	mvn.w	r2, #1
 80046e6:	6823      	ldr	r3, [r4, #0]
 80046e8:	4620      	mov	r0, r4
 80046ea:	611a      	str	r2, [r3, #16]
 80046ec:	f7fe f9f6 	bl	8002adc <HAL_TIM_PeriodElapsedCallback>
 80046f0:	0632      	lsls	r2, r6, #24
 80046f2:	d508      	bpl.n	8004706 <HAL_TIM_IRQHandler+0xc6>
 80046f4:	062b      	lsls	r3, r5, #24
 80046f6:	d506      	bpl.n	8004706 <HAL_TIM_IRQHandler+0xc6>
 80046f8:	f06f 0280 	mvn.w	r2, #128	; 0x80
 80046fc:	6823      	ldr	r3, [r4, #0]
 80046fe:	4620      	mov	r0, r4
 8004700:	611a      	str	r2, [r3, #16]
 8004702:	f000 fa46 	bl	8004b92 <HAL_TIMEx_BreakCallback>
 8004706:	0670      	lsls	r0, r6, #25
 8004708:	d508      	bpl.n	800471c <HAL_TIM_IRQHandler+0xdc>
 800470a:	0669      	lsls	r1, r5, #25
 800470c:	d506      	bpl.n	800471c <HAL_TIM_IRQHandler+0xdc>
 800470e:	f06f 0240 	mvn.w	r2, #64	; 0x40
 8004712:	6823      	ldr	r3, [r4, #0]
 8004714:	4620      	mov	r0, r4
 8004716:	611a      	str	r2, [r3, #16]
 8004718:	f7ff ff91 	bl	800463e <HAL_TIM_TriggerCallback>
 800471c:	06b2      	lsls	r2, r6, #26
 800471e:	d522      	bpl.n	8004766 <HAL_TIM_IRQHandler+0x126>
 8004720:	06ab      	lsls	r3, r5, #26
 8004722:	d520      	bpl.n	8004766 <HAL_TIM_IRQHandler+0x126>
 8004724:	f06f 0220 	mvn.w	r2, #32
 8004728:	6823      	ldr	r3, [r4, #0]
 800472a:	4620      	mov	r0, r4
 800472c:	e8bd 4070 	ldmia.w	sp!, {r4, r5, r6, lr}
 8004730:	611a      	str	r2, [r3, #16]
 8004732:	f000 ba2d 	b.w	8004b90 <HAL_TIMEx_CommutCallback>
 8004736:	f7ff ff7f 	bl	8004638 <HAL_TIM_OC_DelayElapsedCallback>
 800473a:	4620      	mov	r0, r4
 800473c:	f7ff ff7e 	bl	800463c <HAL_TIM_PWM_PulseFinishedCallback>
 8004740:	e791      	b.n	8004666 <HAL_TIM_IRQHandler+0x26>
 8004742:	f7ff ff79 	bl	8004638 <HAL_TIM_OC_DelayElapsedCallback>
 8004746:	4620      	mov	r0, r4
 8004748:	f7ff ff78 	bl	800463c <HAL_TIM_PWM_PulseFinishedCallback>
 800474c:	e79e      	b.n	800468c <HAL_TIM_IRQHandler+0x4c>
 800474e:	f7ff ff73 	bl	8004638 <HAL_TIM_OC_DelayElapsedCallback>
 8004752:	4620      	mov	r0, r4
 8004754:	f7ff ff72 	bl	800463c <HAL_TIM_PWM_PulseFinishedCallback>
 8004758:	e7aa      	b.n	80046b0 <HAL_TIM_IRQHandler+0x70>
 800475a:	f7ff ff6d 	bl	8004638 <HAL_TIM_OC_DelayElapsedCallback>
 800475e:	4620      	mov	r0, r4
 8004760:	f7ff ff6c 	bl	800463c <HAL_TIM_PWM_PulseFinishedCallback>
 8004764:	e7b7      	b.n	80046d6 <HAL_TIM_IRQHandler+0x96>
 8004766:	bd70      	pop	{r4, r5, r6, pc}

08004768 <TIM_Base_SetConfig>:
 8004768:	4a1e      	ldr	r2, [pc, #120]	; (80047e4 <TIM_Base_SetConfig+0x7c>)
 800476a:	6803      	ldr	r3, [r0, #0]
 800476c:	4290      	cmp	r0, r2
 800476e:	d00a      	beq.n	8004786 <TIM_Base_SetConfig+0x1e>
 8004770:	f1b0 4f80 	cmp.w	r0, #1073741824	; 0x40000000
 8004774:	d007      	beq.n	8004786 <TIM_Base_SetConfig+0x1e>
 8004776:	f5a2 3294 	sub.w	r2, r2, #75776	; 0x12800
 800477a:	4290      	cmp	r0, r2
 800477c:	d003      	beq.n	8004786 <TIM_Base_SetConfig+0x1e>
 800477e:	f502 6280 	add.w	r2, r2, #1024	; 0x400
 8004782:	4290      	cmp	r0, r2
 8004784:	d115      	bne.n	80047b2 <TIM_Base_SetConfig+0x4a>
 8004786:	684a      	ldr	r2, [r1, #4]
 8004788:	f023 0370 	bic.w	r3, r3, #112	; 0x70
 800478c:	4313      	orrs	r3, r2
 800478e:	4a15      	ldr	r2, [pc, #84]	; (80047e4 <TIM_Base_SetConfig+0x7c>)
 8004790:	4290      	cmp	r0, r2
 8004792:	d00a      	beq.n	80047aa <TIM_Base_SetConfig+0x42>
 8004794:	f1b0 4f80 	cmp.w	r0, #1073741824	; 0x40000000
 8004798:	d007      	beq.n	80047aa <TIM_Base_SetConfig+0x42>
 800479a:	f5a2 3294 	sub.w	r2, r2, #75776	; 0x12800
 800479e:	4290      	cmp	r0, r2
 80047a0:	d003      	beq.n	80047aa <TIM_Base_SetConfig+0x42>
 80047a2:	f502 6280 	add.w	r2, r2, #1024	; 0x400
 80047a6:	4290      	cmp	r0, r2
 80047a8:	d103      	bne.n	80047b2 <TIM_Base_SetConfig+0x4a>
 80047aa:	68ca      	ldr	r2, [r1, #12]
 80047ac:	f423 7340 	bic.w	r3, r3, #768	; 0x300
 80047b0:	4313      	orrs	r3, r2
 80047b2:	694a      	ldr	r2, [r1, #20]
 80047b4:	f023 0380 	bic.w	r3, r3, #128	; 0x80
 80047b8:	4313      	orrs	r3, r2
 80047ba:	6003      	str	r3, [r0, #0]
 80047bc:	688b      	ldr	r3, [r1, #8]
 80047be:	62c3      	str	r3, [r0, #44]	; 0x2c
 80047c0:	680b      	ldr	r3, [r1, #0]
 80047c2:	6283      	str	r3, [r0, #40]	; 0x28
 80047c4:	4b07      	ldr	r3, [pc, #28]	; (80047e4 <TIM_Base_SetConfig+0x7c>)
 80047c6:	4298      	cmp	r0, r3
 80047c8:	bf04      	itt	eq
 80047ca:	690b      	ldreq	r3, [r1, #16]
 80047cc:	6303      	streq	r3, [r0, #48]	; 0x30
 80047ce:	2301      	movs	r3, #1
 80047d0:	6143      	str	r3, [r0, #20]
 80047d2:	6903      	ldr	r3, [r0, #16]
 80047d4:	07db      	lsls	r3, r3, #31
 80047d6:	bf42      	ittt	mi
 80047d8:	6903      	ldrmi	r3, [r0, #16]
 80047da:	f023 0301 	bicmi.w	r3, r3, #1
 80047de:	6103      	strmi	r3, [r0, #16]
 80047e0:	4770      	bx	lr
 80047e2:	bf00      	nop
 80047e4:	40012c00 	.word	0x40012c00

080047e8 <HAL_TIM_Base_Init>:
 80047e8:	b510      	push	{r4, lr}
 80047ea:	4604      	mov	r4, r0
 80047ec:	b330      	cbz	r0, 800483c <HAL_TIM_Base_Init+0x54>
 80047ee:	f890 303d 	ldrb.w	r3, [r0, #61]	; 0x3d
 80047f2:	f003 02ff 	and.w	r2, r3, #255	; 0xff
 80047f6:	b91b      	cbnz	r3, 8004800 <HAL_TIM_Base_Init+0x18>
 80047f8:	f880 203c 	strb.w	r2, [r0, #60]	; 0x3c
 80047fc:	f7fc ff6e 	bl	80016dc <HAL_TIM_Base_MspInit>
 8004800:	2302      	movs	r3, #2
 8004802:	6820      	ldr	r0, [r4, #0]
 8004804:	f884 303d 	strb.w	r3, [r4, #61]	; 0x3d
 8004808:	1d21      	adds	r1, r4, #4
 800480a:	f7ff ffad 	bl	8004768 <TIM_Base_SetConfig>
 800480e:	2301      	movs	r3, #1
 8004810:	2000      	movs	r0, #0
 8004812:	f884 3046 	strb.w	r3, [r4, #70]	; 0x46
 8004816:	f884 303e 	strb.w	r3, [r4, #62]	; 0x3e
 800481a:	f884 303f 	strb.w	r3, [r4, #63]	; 0x3f
 800481e:	f884 3040 	strb.w	r3, [r4, #64]	; 0x40
 8004822:	f884 3041 	strb.w	r3, [r4, #65]	; 0x41
 8004826:	f884 3042 	strb.w	r3, [r4, #66]	; 0x42
 800482a:	f884 3043 	strb.w	r3, [r4, #67]	; 0x43
 800482e:	f884 3044 	strb.w	r3, [r4, #68]	; 0x44
 8004832:	f884 3045 	strb.w	r3, [r4, #69]	; 0x45
 8004836:	f884 303d 	strb.w	r3, [r4, #61]	; 0x3d
 800483a:	bd10      	pop	{r4, pc}
 800483c:	2001      	movs	r0, #1
 800483e:	e7fc      	b.n	800483a <HAL_TIM_Base_Init+0x52>

08004840 <HAL_TIM_PWM_Init>:
 8004840:	b510      	push	{r4, lr}
 8004842:	4604      	mov	r4, r0
 8004844:	b330      	cbz	r0, 8004894 <HAL_TIM_PWM_Init+0x54>
 8004846:	f890 303d 	ldrb.w	r3, [r0, #61]	; 0x3d
 800484a:	f003 02ff 	and.w	r2, r3, #255	; 0xff
 800484e:	b91b      	cbnz	r3, 8004858 <HAL_TIM_PWM_Init+0x18>
 8004850:	f880 203c 	strb.w	r2, [r0, #60]	; 0x3c
 8004854:	f7fc ff2e 	bl	80016b4 <HAL_TIM_PWM_MspInit>
 8004858:	2302      	movs	r3, #2
 800485a:	6820      	ldr	r0, [r4, #0]
 800485c:	f884 303d 	strb.w	r3, [r4, #61]	; 0x3d
 8004860:	1d21      	adds	r1, r4, #4
 8004862:	f7ff ff81 	bl	8004768 <TIM_Base_SetConfig>
 8004866:	2301      	movs	r3, #1
 8004868:	2000      	movs	r0, #0
 800486a:	f884 3046 	strb.w	r3, [r4, #70]	; 0x46
 800486e:	f884 303e 	strb.w	r3, [r4, #62]	; 0x3e
 8004872:	f884 303f 	strb.w	r3, [r4, #63]	; 0x3f
 8004876:	f884 3040 	strb.w	r3, [r4, #64]	; 0x40
 800487a:	f884 3041 	strb.w	r3, [r4, #65]	; 0x41
 800487e:	f884 3042 	strb.w	r3, [r4, #66]	; 0x42
 8004882:	f884 3043 	strb.w	r3, [r4, #67]	; 0x43
 8004886:	f884 3044 	strb.w	r3, [r4, #68]	; 0x44
 800488a:	f884 3045 	strb.w	r3, [r4, #69]	; 0x45
 800488e:	f884 303d 	strb.w	r3, [r4, #61]	; 0x3d
 8004892:	bd10      	pop	{r4, pc}
 8004894:	2001      	movs	r0, #1
 8004896:	e7fc      	b.n	8004892 <HAL_TIM_PWM_Init+0x52>

08004898 <TIM_OC2_SetConfig>:
 8004898:	6a03      	ldr	r3, [r0, #32]
 800489a:	6a02      	ldr	r2, [r0, #32]
 800489c:	b570      	push	{r4, r5, r6, lr}
 800489e:	f022 0210 	bic.w	r2, r2, #16
 80048a2:	6202      	str	r2, [r0, #32]
 80048a4:	6844      	ldr	r4, [r0, #4]
 80048a6:	6982      	ldr	r2, [r0, #24]
 80048a8:	680d      	ldr	r5, [r1, #0]
 80048aa:	f422 42e6 	bic.w	r2, r2, #29440	; 0x7300
 80048ae:	ea42 2205 	orr.w	r2, r2, r5, lsl #8
 80048b2:	688d      	ldr	r5, [r1, #8]
 80048b4:	f023 0320 	bic.w	r3, r3, #32
 80048b8:	ea43 1305 	orr.w	r3, r3, r5, lsl #4
 80048bc:	4d0b      	ldr	r5, [pc, #44]	; (80048ec <TIM_OC2_SetConfig+0x54>)
 80048be:	42a8      	cmp	r0, r5
 80048c0:	d10d      	bne.n	80048de <TIM_OC2_SetConfig+0x46>
 80048c2:	68cd      	ldr	r5, [r1, #12]
 80048c4:	f023 0380 	bic.w	r3, r3, #128	; 0x80
 80048c8:	ea43 1305 	orr.w	r3, r3, r5, lsl #4
 80048cc:	f424 6440 	bic.w	r4, r4, #3072	; 0xc00
 80048d0:	e9d1 5605 	ldrd	r5, r6, [r1, #20]
 80048d4:	4335      	orrs	r5, r6
 80048d6:	f023 0340 	bic.w	r3, r3, #64	; 0x40
 80048da:	ea44 0485 	orr.w	r4, r4, r5, lsl #2
 80048de:	6044      	str	r4, [r0, #4]
 80048e0:	6182      	str	r2, [r0, #24]
 80048e2:	684a      	ldr	r2, [r1, #4]
 80048e4:	6382      	str	r2, [r0, #56]	; 0x38
 80048e6:	6203      	str	r3, [r0, #32]
 80048e8:	bd70      	pop	{r4, r5, r6, pc}
 80048ea:	bf00      	nop
 80048ec:	40012c00 	.word	0x40012c00

080048f0 <HAL_TIM_PWM_ConfigChannel>:
 80048f0:	b570      	push	{r4, r5, r6, lr}
 80048f2:	f890 303c 	ldrb.w	r3, [r0, #60]	; 0x3c
 80048f6:	4605      	mov	r5, r0
 80048f8:	2b01      	cmp	r3, #1
 80048fa:	d050      	beq.n	800499e <HAL_TIM_PWM_ConfigChannel+0xae>
 80048fc:	2301      	movs	r3, #1
 80048fe:	2a08      	cmp	r2, #8
 8004900:	f880 303c 	strb.w	r3, [r0, #60]	; 0x3c
 8004904:	d03b      	beq.n	800497e <HAL_TIM_PWM_ConfigChannel+0x8e>
 8004906:	d807      	bhi.n	8004918 <HAL_TIM_PWM_ConfigChannel+0x28>
 8004908:	b1c2      	cbz	r2, 800493c <HAL_TIM_PWM_ConfigChannel+0x4c>
 800490a:	2a04      	cmp	r2, #4
 800490c:	d027      	beq.n	800495e <HAL_TIM_PWM_ConfigChannel+0x6e>
 800490e:	4618      	mov	r0, r3
 8004910:	2300      	movs	r3, #0
 8004912:	f885 303c 	strb.w	r3, [r5, #60]	; 0x3c
 8004916:	bd70      	pop	{r4, r5, r6, pc}
 8004918:	2a0c      	cmp	r2, #12
 800491a:	d1f8      	bne.n	800490e <HAL_TIM_PWM_ConfigChannel+0x1e>
 800491c:	6800      	ldr	r0, [r0, #0]
 800491e:	f7ff fe19 	bl	8004554 <TIM_OC4_SetConfig>
 8004922:	69c3      	ldr	r3, [r0, #28]
 8004924:	690a      	ldr	r2, [r1, #16]
 8004926:	f443 6300 	orr.w	r3, r3, #2048	; 0x800
 800492a:	61c3      	str	r3, [r0, #28]
 800492c:	69c3      	ldr	r3, [r0, #28]
 800492e:	f423 6380 	bic.w	r3, r3, #1024	; 0x400
 8004932:	61c3      	str	r3, [r0, #28]
 8004934:	69c3      	ldr	r3, [r0, #28]
 8004936:	ea43 2302 	orr.w	r3, r3, r2, lsl #8
 800493a:	e02e      	b.n	800499a <HAL_TIM_PWM_ConfigChannel+0xaa>
 800493c:	6800      	ldr	r0, [r0, #0]
 800493e:	f7ff fdb7 	bl	80044b0 <TIM_OC1_SetConfig>
 8004942:	6983      	ldr	r3, [r0, #24]
 8004944:	690a      	ldr	r2, [r1, #16]
 8004946:	f043 0308 	orr.w	r3, r3, #8
 800494a:	6183      	str	r3, [r0, #24]
 800494c:	6983      	ldr	r3, [r0, #24]
 800494e:	f023 0304 	bic.w	r3, r3, #4
 8004952:	6183      	str	r3, [r0, #24]
 8004954:	6983      	ldr	r3, [r0, #24]
 8004956:	4313      	orrs	r3, r2
 8004958:	6183      	str	r3, [r0, #24]
 800495a:	2000      	movs	r0, #0
 800495c:	e7d8      	b.n	8004910 <HAL_TIM_PWM_ConfigChannel+0x20>
 800495e:	6800      	ldr	r0, [r0, #0]
 8004960:	f7ff ff9a 	bl	8004898 <TIM_OC2_SetConfig>
 8004964:	6983      	ldr	r3, [r0, #24]
 8004966:	690a      	ldr	r2, [r1, #16]
 8004968:	f443 6300 	orr.w	r3, r3, #2048	; 0x800
 800496c:	6183      	str	r3, [r0, #24]
 800496e:	6983      	ldr	r3, [r0, #24]
 8004970:	f423 6380 	bic.w	r3, r3, #1024	; 0x400
 8004974:	6183      	str	r3, [r0, #24]
 8004976:	6983      	ldr	r3, [r0, #24]
 8004978:	ea43 2302 	orr.w	r3, r3, r2, lsl #8
 800497c:	e7ec      	b.n	8004958 <HAL_TIM_PWM_ConfigChannel+0x68>
 800497e:	6800      	ldr	r0, [r0, #0]
 8004980:	f7ff fdbe 	bl	8004500 <TIM_OC3_SetConfig>
 8004984:	69c3      	ldr	r3, [r0, #28]
 8004986:	690a      	ldr	r2, [r1, #16]
 8004988:	f043 0308 	orr.w	r3, r3, #8
 800498c:	61c3      	str	r3, [r0, #28]
 800498e:	69c3      	ldr	r3, [r0, #28]
 8004990:	f023 0304 	bic.w	r3, r3, #4
 8004994:	61c3      	str	r3, [r0, #28]
 8004996:	69c3      	ldr	r3, [r0, #28]
 8004998:	4313      	orrs	r3, r2
 800499a:	61c3      	str	r3, [r0, #28]
 800499c:	e7dd      	b.n	800495a <HAL_TIM_PWM_ConfigChannel+0x6a>
 800499e:	2002      	movs	r0, #2
 80049a0:	e7b9      	b.n	8004916 <HAL_TIM_PWM_ConfigChannel+0x26>

080049a2 <TIM_ETR_SetConfig>:
 80049a2:	b510      	push	{r4, lr}
 80049a4:	6884      	ldr	r4, [r0, #8]
 80049a6:	430a      	orrs	r2, r1
 80049a8:	f424 447f 	bic.w	r4, r4, #65280	; 0xff00
 80049ac:	ea42 2203 	orr.w	r2, r2, r3, lsl #8
 80049b0:	4322      	orrs	r2, r4
 80049b2:	6082      	str	r2, [r0, #8]
 80049b4:	bd10      	pop	{r4, pc}

080049b6 <HAL_TIM_ConfigClockSource>:
 80049b6:	b538      	push	{r3, r4, r5, lr}
 80049b8:	f890 303c 	ldrb.w	r3, [r0, #60]	; 0x3c
 80049bc:	4604      	mov	r4, r0
 80049be:	2b01      	cmp	r3, #1
 80049c0:	f04f 0002 	mov.w	r0, #2
 80049c4:	f000 808e 	beq.w	8004ae4 <HAL_TIM_ConfigClockSource+0x12e>
 80049c8:	2201      	movs	r2, #1
 80049ca:	f884 003d 	strb.w	r0, [r4, #61]	; 0x3d
 80049ce:	6820      	ldr	r0, [r4, #0]
 80049d0:	f884 203c 	strb.w	r2, [r4, #60]	; 0x3c
 80049d4:	6883      	ldr	r3, [r0, #8]
 80049d6:	f423 437f 	bic.w	r3, r3, #65280	; 0xff00
 80049da:	f023 0377 	bic.w	r3, r3, #119	; 0x77
 80049de:	6083      	str	r3, [r0, #8]
 80049e0:	680b      	ldr	r3, [r1, #0]
 80049e2:	2b60      	cmp	r3, #96	; 0x60
 80049e4:	d04f      	beq.n	8004a86 <HAL_TIM_ConfigClockSource+0xd0>
 80049e6:	d832      	bhi.n	8004a4e <HAL_TIM_ConfigClockSource+0x98>
 80049e8:	2b40      	cmp	r3, #64	; 0x40
 80049ea:	d064      	beq.n	8004ab6 <HAL_TIM_ConfigClockSource+0x100>
 80049ec:	d816      	bhi.n	8004a1c <HAL_TIM_ConfigClockSource+0x66>
 80049ee:	2b20      	cmp	r3, #32
 80049f0:	d00d      	beq.n	8004a0e <HAL_TIM_ConfigClockSource+0x58>
 80049f2:	d80a      	bhi.n	8004a0a <HAL_TIM_ConfigClockSource+0x54>
 80049f4:	f033 0110 	bics.w	r1, r3, #16
 80049f8:	d009      	beq.n	8004a0e <HAL_TIM_ConfigClockSource+0x58>
 80049fa:	2301      	movs	r3, #1
 80049fc:	f884 303d 	strb.w	r3, [r4, #61]	; 0x3d
 8004a00:	2300      	movs	r3, #0
 8004a02:	f884 303c 	strb.w	r3, [r4, #60]	; 0x3c
 8004a06:	4610      	mov	r0, r2
 8004a08:	bd38      	pop	{r3, r4, r5, pc}
 8004a0a:	2b30      	cmp	r3, #48	; 0x30
 8004a0c:	d1f5      	bne.n	80049fa <HAL_TIM_ConfigClockSource+0x44>
 8004a0e:	6882      	ldr	r2, [r0, #8]
 8004a10:	f022 0270 	bic.w	r2, r2, #112	; 0x70
 8004a14:	4313      	orrs	r3, r2
 8004a16:	f043 0307 	orr.w	r3, r3, #7
 8004a1a:	e028      	b.n	8004a6e <HAL_TIM_ConfigClockSource+0xb8>
 8004a1c:	2b50      	cmp	r3, #80	; 0x50
 8004a1e:	d1ec      	bne.n	80049fa <HAL_TIM_ConfigClockSource+0x44>
 8004a20:	684a      	ldr	r2, [r1, #4]
 8004a22:	68cd      	ldr	r5, [r1, #12]
 8004a24:	6a01      	ldr	r1, [r0, #32]
 8004a26:	6a03      	ldr	r3, [r0, #32]
 8004a28:	f021 010a 	bic.w	r1, r1, #10
 8004a2c:	f023 0301 	bic.w	r3, r3, #1
 8004a30:	6203      	str	r3, [r0, #32]
 8004a32:	6983      	ldr	r3, [r0, #24]
 8004a34:	430a      	orrs	r2, r1
 8004a36:	f023 03f0 	bic.w	r3, r3, #240	; 0xf0
 8004a3a:	ea43 1305 	orr.w	r3, r3, r5, lsl #4
 8004a3e:	6183      	str	r3, [r0, #24]
 8004a40:	6202      	str	r2, [r0, #32]
 8004a42:	6883      	ldr	r3, [r0, #8]
 8004a44:	f023 0370 	bic.w	r3, r3, #112	; 0x70
 8004a48:	f043 0357 	orr.w	r3, r3, #87	; 0x57
 8004a4c:	e00f      	b.n	8004a6e <HAL_TIM_ConfigClockSource+0xb8>
 8004a4e:	f5b3 5f80 	cmp.w	r3, #4096	; 0x1000
 8004a52:	d00d      	beq.n	8004a70 <HAL_TIM_ConfigClockSource+0xba>
 8004a54:	f5b3 5f00 	cmp.w	r3, #8192	; 0x2000
 8004a58:	d00c      	beq.n	8004a74 <HAL_TIM_ConfigClockSource+0xbe>
 8004a5a:	2b70      	cmp	r3, #112	; 0x70
 8004a5c:	d1cd      	bne.n	80049fa <HAL_TIM_ConfigClockSource+0x44>
 8004a5e:	68cb      	ldr	r3, [r1, #12]
 8004a60:	e9d1 2101 	ldrd	r2, r1, [r1, #4]
 8004a64:	f7ff ff9d 	bl	80049a2 <TIM_ETR_SetConfig>
 8004a68:	6883      	ldr	r3, [r0, #8]
 8004a6a:	f043 0377 	orr.w	r3, r3, #119	; 0x77
 8004a6e:	6083      	str	r3, [r0, #8]
 8004a70:	2200      	movs	r2, #0
 8004a72:	e7c2      	b.n	80049fa <HAL_TIM_ConfigClockSource+0x44>
 8004a74:	68cb      	ldr	r3, [r1, #12]
 8004a76:	e9d1 2101 	ldrd	r2, r1, [r1, #4]
 8004a7a:	f7ff ff92 	bl	80049a2 <TIM_ETR_SetConfig>
 8004a7e:	6883      	ldr	r3, [r0, #8]
 8004a80:	f443 4380 	orr.w	r3, r3, #16384	; 0x4000
 8004a84:	e7f3      	b.n	8004a6e <HAL_TIM_ConfigClockSource+0xb8>
 8004a86:	6a03      	ldr	r3, [r0, #32]
 8004a88:	6a02      	ldr	r2, [r0, #32]
 8004a8a:	684d      	ldr	r5, [r1, #4]
 8004a8c:	f022 0210 	bic.w	r2, r2, #16
 8004a90:	68c9      	ldr	r1, [r1, #12]
 8004a92:	6202      	str	r2, [r0, #32]
 8004a94:	6982      	ldr	r2, [r0, #24]
 8004a96:	f023 03a0 	bic.w	r3, r3, #160	; 0xa0
 8004a9a:	f422 4270 	bic.w	r2, r2, #61440	; 0xf000
 8004a9e:	ea43 1305 	orr.w	r3, r3, r5, lsl #4
 8004aa2:	ea42 3201 	orr.w	r2, r2, r1, lsl #12
 8004aa6:	6182      	str	r2, [r0, #24]
 8004aa8:	6203      	str	r3, [r0, #32]
 8004aaa:	6883      	ldr	r3, [r0, #8]
 8004aac:	f023 0370 	bic.w	r3, r3, #112	; 0x70
 8004ab0:	f043 0367 	orr.w	r3, r3, #103	; 0x67
 8004ab4:	e7db      	b.n	8004a6e <HAL_TIM_ConfigClockSource+0xb8>
 8004ab6:	684a      	ldr	r2, [r1, #4]
 8004ab8:	68cd      	ldr	r5, [r1, #12]
 8004aba:	6a01      	ldr	r1, [r0, #32]
 8004abc:	6a03      	ldr	r3, [r0, #32]
 8004abe:	f021 010a 	bic.w	r1, r1, #10
 8004ac2:	f023 0301 	bic.w	r3, r3, #1
 8004ac6:	6203      	str	r3, [r0, #32]
 8004ac8:	6983      	ldr	r3, [r0, #24]
 8004aca:	430a      	orrs	r2, r1
 8004acc:	f023 03f0 	bic.w	r3, r3, #240	; 0xf0
 8004ad0:	ea43 1305 	orr.w	r3, r3, r5, lsl #4
 8004ad4:	6183      	str	r3, [r0, #24]
 8004ad6:	6202      	str	r2, [r0, #32]
 8004ad8:	6883      	ldr	r3, [r0, #8]
 8004ada:	f023 0370 	bic.w	r3, r3, #112	; 0x70
 8004ade:	f043 0347 	orr.w	r3, r3, #71	; 0x47
 8004ae2:	e7c4      	b.n	8004a6e <HAL_TIM_ConfigClockSource+0xb8>
 8004ae4:	4602      	mov	r2, r0
 8004ae6:	e78e      	b.n	8004a06 <HAL_TIM_ConfigClockSource+0x50>

08004ae8 <HAL_TIMEx_MasterConfigSynchronization>:
 8004ae8:	b530      	push	{r4, r5, lr}
 8004aea:	f890 303c 	ldrb.w	r3, [r0, #60]	; 0x3c
 8004aee:	4602      	mov	r2, r0
 8004af0:	2b01      	cmp	r3, #1
 8004af2:	f04f 0002 	mov.w	r0, #2
 8004af6:	d022      	beq.n	8004b3e <HAL_TIMEx_MasterConfigSynchronization+0x56>
 8004af8:	6813      	ldr	r3, [r2, #0]
 8004afa:	f882 003d 	strb.w	r0, [r2, #61]	; 0x3d
 8004afe:	685c      	ldr	r4, [r3, #4]
 8004b00:	680d      	ldr	r5, [r1, #0]
 8004b02:	f024 0470 	bic.w	r4, r4, #112	; 0x70
 8004b06:	432c      	orrs	r4, r5
 8004b08:	6898      	ldr	r0, [r3, #8]
 8004b0a:	605c      	str	r4, [r3, #4]
 8004b0c:	4c0c      	ldr	r4, [pc, #48]	; (8004b40 <HAL_TIMEx_MasterConfigSynchronization+0x58>)
 8004b0e:	42a3      	cmp	r3, r4
 8004b10:	d00a      	beq.n	8004b28 <HAL_TIMEx_MasterConfigSynchronization+0x40>
 8004b12:	f1b3 4f80 	cmp.w	r3, #1073741824	; 0x40000000
 8004b16:	d007      	beq.n	8004b28 <HAL_TIMEx_MasterConfigSynchronization+0x40>
 8004b18:	f5a4 3494 	sub.w	r4, r4, #75776	; 0x12800
 8004b1c:	42a3      	cmp	r3, r4
 8004b1e:	d003      	beq.n	8004b28 <HAL_TIMEx_MasterConfigSynchronization+0x40>
 8004b20:	f504 6480 	add.w	r4, r4, #1024	; 0x400
 8004b24:	42a3      	cmp	r3, r4
 8004b26:	d104      	bne.n	8004b32 <HAL_TIMEx_MasterConfigSynchronization+0x4a>
 8004b28:	6849      	ldr	r1, [r1, #4]
 8004b2a:	f020 0080 	bic.w	r0, r0, #128	; 0x80
 8004b2e:	4301      	orrs	r1, r0
 8004b30:	6099      	str	r1, [r3, #8]
 8004b32:	2301      	movs	r3, #1
 8004b34:	2000      	movs	r0, #0
 8004b36:	f882 303d 	strb.w	r3, [r2, #61]	; 0x3d
 8004b3a:	f882 003c 	strb.w	r0, [r2, #60]	; 0x3c
 8004b3e:	bd30      	pop	{r4, r5, pc}
 8004b40:	40012c00 	.word	0x40012c00

08004b44 <HAL_TIMEx_ConfigBreakDeadTime>:
 8004b44:	f890 303c 	ldrb.w	r3, [r0, #60]	; 0x3c
 8004b48:	4602      	mov	r2, r0
 8004b4a:	2b01      	cmp	r3, #1
 8004b4c:	d01e      	beq.n	8004b8c <HAL_TIMEx_ConfigBreakDeadTime+0x48>
 8004b4e:	68cb      	ldr	r3, [r1, #12]
 8004b50:	6888      	ldr	r0, [r1, #8]
 8004b52:	f423 7340 	bic.w	r3, r3, #768	; 0x300
 8004b56:	4303      	orrs	r3, r0
 8004b58:	6848      	ldr	r0, [r1, #4]
 8004b5a:	f423 6380 	bic.w	r3, r3, #1024	; 0x400
 8004b5e:	4303      	orrs	r3, r0
 8004b60:	6808      	ldr	r0, [r1, #0]
 8004b62:	f423 6300 	bic.w	r3, r3, #2048	; 0x800
 8004b66:	4303      	orrs	r3, r0
 8004b68:	6908      	ldr	r0, [r1, #16]
 8004b6a:	f423 5380 	bic.w	r3, r3, #4096	; 0x1000
 8004b6e:	4303      	orrs	r3, r0
 8004b70:	6948      	ldr	r0, [r1, #20]
 8004b72:	f423 5300 	bic.w	r3, r3, #8192	; 0x2000
 8004b76:	4303      	orrs	r3, r0
 8004b78:	2000      	movs	r0, #0
 8004b7a:	69c9      	ldr	r1, [r1, #28]
 8004b7c:	f423 4380 	bic.w	r3, r3, #16384	; 0x4000
 8004b80:	430b      	orrs	r3, r1
 8004b82:	6811      	ldr	r1, [r2, #0]
 8004b84:	644b      	str	r3, [r1, #68]	; 0x44
 8004b86:	f882 003c 	strb.w	r0, [r2, #60]	; 0x3c
 8004b8a:	4770      	bx	lr
 8004b8c:	2002      	movs	r0, #2
 8004b8e:	4770      	bx	lr

08004b90 <HAL_TIMEx_CommutCallback>:
 8004b90:	4770      	bx	lr

08004b92 <HAL_TIMEx_BreakCallback>:
 8004b92:	4770      	bx	lr

08004b94 <UART_EndRxTransfer>:
 8004b94:	6802      	ldr	r2, [r0, #0]
 8004b96:	f102 030c 	add.w	r3, r2, #12
 8004b9a:	e853 3f00 	ldrex	r3, [r3]
 8004b9e:	f423 7390 	bic.w	r3, r3, #288	; 0x120
 8004ba2:	320c      	adds	r2, #12
 8004ba4:	e842 3100 	strex	r1, r3, [r2]
 8004ba8:	6802      	ldr	r2, [r0, #0]
 8004baa:	2900      	cmp	r1, #0
 8004bac:	d1f2      	bne.n	8004b94 <UART_EndRxTransfer>
 8004bae:	f102 0314 	add.w	r3, r2, #20
 8004bb2:	e853 3f00 	ldrex	r3, [r3]
 8004bb6:	f023 0301 	bic.w	r3, r3, #1
 8004bba:	f102 0c14 	add.w	ip, r2, #20
 8004bbe:	e84c 3100 	strex	r1, r3, [ip]
 8004bc2:	2900      	cmp	r1, #0
 8004bc4:	d1f3      	bne.n	8004bae <UART_EndRxTransfer+0x1a>
 8004bc6:	6b03      	ldr	r3, [r0, #48]	; 0x30
 8004bc8:	2b01      	cmp	r3, #1
 8004bca:	d10b      	bne.n	8004be4 <UART_EndRxTransfer+0x50>
 8004bcc:	f102 030c 	add.w	r3, r2, #12
 8004bd0:	e853 3f00 	ldrex	r3, [r3]
 8004bd4:	f023 0310 	bic.w	r3, r3, #16
 8004bd8:	f102 0c0c 	add.w	ip, r2, #12
 8004bdc:	e84c 3100 	strex	r1, r3, [ip]
 8004be0:	2900      	cmp	r1, #0
 8004be2:	d1f3      	bne.n	8004bcc <UART_EndRxTransfer+0x38>
 8004be4:	2320      	movs	r3, #32
 8004be6:	f880 3042 	strb.w	r3, [r0, #66]	; 0x42
 8004bea:	2300      	movs	r3, #0
 8004bec:	6303      	str	r3, [r0, #48]	; 0x30
 8004bee:	4770      	bx	lr

08004bf0 <UART_SetConfig>:
 8004bf0:	b510      	push	{r4, lr}
 8004bf2:	4604      	mov	r4, r0
 8004bf4:	6803      	ldr	r3, [r0, #0]
 8004bf6:	68c1      	ldr	r1, [r0, #12]
 8004bf8:	691a      	ldr	r2, [r3, #16]
 8004bfa:	f422 5240 	bic.w	r2, r2, #12288	; 0x3000
 8004bfe:	430a      	orrs	r2, r1
 8004c00:	611a      	str	r2, [r3, #16]
 8004c02:	6882      	ldr	r2, [r0, #8]
 8004c04:	6900      	ldr	r0, [r0, #16]
 8004c06:	68d9      	ldr	r1, [r3, #12]
 8004c08:	4302      	orrs	r2, r0
 8004c0a:	6960      	ldr	r0, [r4, #20]
 8004c0c:	f421 51b0 	bic.w	r1, r1, #5632	; 0x1600
 8004c10:	f021 010c 	bic.w	r1, r1, #12
 8004c14:	4302      	orrs	r2, r0
 8004c16:	430a      	orrs	r2, r1
 8004c18:	60da      	str	r2, [r3, #12]
 8004c1a:	695a      	ldr	r2, [r3, #20]
 8004c1c:	69a1      	ldr	r1, [r4, #24]
 8004c1e:	f422 7240 	bic.w	r2, r2, #768	; 0x300
 8004c22:	430a      	orrs	r2, r1
 8004c24:	615a      	str	r2, [r3, #20]
 8004c26:	4a0e      	ldr	r2, [pc, #56]	; (8004c60 <UART_SetConfig+0x70>)
 8004c28:	4293      	cmp	r3, r2
 8004c2a:	d115      	bne.n	8004c58 <UART_SetConfig+0x68>
 8004c2c:	f7ff fbb6 	bl	800439c <HAL_RCC_GetPCLK2Freq>
 8004c30:	2319      	movs	r3, #25
 8004c32:	4343      	muls	r3, r0
 8004c34:	6862      	ldr	r2, [r4, #4]
 8004c36:	6820      	ldr	r0, [r4, #0]
 8004c38:	0092      	lsls	r2, r2, #2
 8004c3a:	fbb3 f3f2 	udiv	r3, r3, r2
 8004c3e:	2264      	movs	r2, #100	; 0x64
 8004c40:	fbb3 f1f2 	udiv	r1, r3, r2
 8004c44:	fb02 3311 	mls	r3, r2, r1, r3
 8004c48:	011b      	lsls	r3, r3, #4
 8004c4a:	3332      	adds	r3, #50	; 0x32
 8004c4c:	fbb3 f3f2 	udiv	r3, r3, r2
 8004c50:	eb03 1301 	add.w	r3, r3, r1, lsl #4
 8004c54:	6083      	str	r3, [r0, #8]
 8004c56:	bd10      	pop	{r4, pc}
 8004c58:	f7ff fb90 	bl	800437c <HAL_RCC_GetPCLK1Freq>
 8004c5c:	e7e8      	b.n	8004c30 <UART_SetConfig+0x40>
 8004c5e:	bf00      	nop
 8004c60:	40013800 	.word	0x40013800

08004c64 <UART_WaitOnFlagUntilTimeout.constprop.0>:
 8004c64:	b5f7      	push	{r0, r1, r2, r4, r5, r6, r7, lr}
 8004c66:	4605      	mov	r5, r0
 8004c68:	460c      	mov	r4, r1
 8004c6a:	4617      	mov	r7, r2
 8004c6c:	461e      	mov	r6, r3
 8004c6e:	682a      	ldr	r2, [r5, #0]
 8004c70:	6813      	ldr	r3, [r2, #0]
 8004c72:	ea34 0303 	bics.w	r3, r4, r3
 8004c76:	d101      	bne.n	8004c7c <UART_WaitOnFlagUntilTimeout.constprop.0+0x18>
 8004c78:	2000      	movs	r0, #0
 8004c7a:	e021      	b.n	8004cc0 <UART_WaitOnFlagUntilTimeout.constprop.0+0x5c>
 8004c7c:	1c70      	adds	r0, r6, #1
 8004c7e:	d0f7      	beq.n	8004c70 <UART_WaitOnFlagUntilTimeout.constprop.0+0xc>
 8004c80:	f7fe f922 	bl	8002ec8 <HAL_GetTick>
 8004c84:	1bc0      	subs	r0, r0, r7
 8004c86:	4286      	cmp	r6, r0
 8004c88:	d31c      	bcc.n	8004cc4 <UART_WaitOnFlagUntilTimeout.constprop.0+0x60>
 8004c8a:	b1de      	cbz	r6, 8004cc4 <UART_WaitOnFlagUntilTimeout.constprop.0+0x60>
 8004c8c:	682b      	ldr	r3, [r5, #0]
 8004c8e:	68da      	ldr	r2, [r3, #12]
 8004c90:	0751      	lsls	r1, r2, #29
 8004c92:	d5ec      	bpl.n	8004c6e <UART_WaitOnFlagUntilTimeout.constprop.0+0xa>
 8004c94:	2c80      	cmp	r4, #128	; 0x80
 8004c96:	d0ea      	beq.n	8004c6e <UART_WaitOnFlagUntilTimeout.constprop.0+0xa>
 8004c98:	2c40      	cmp	r4, #64	; 0x40
 8004c9a:	d0e8      	beq.n	8004c6e <UART_WaitOnFlagUntilTimeout.constprop.0+0xa>
 8004c9c:	681a      	ldr	r2, [r3, #0]
 8004c9e:	0712      	lsls	r2, r2, #28
 8004ca0:	d5e5      	bpl.n	8004c6e <UART_WaitOnFlagUntilTimeout.constprop.0+0xa>
 8004ca2:	2400      	movs	r4, #0
 8004ca4:	9401      	str	r4, [sp, #4]
 8004ca6:	681a      	ldr	r2, [r3, #0]
 8004ca8:	4628      	mov	r0, r5
 8004caa:	9201      	str	r2, [sp, #4]
 8004cac:	685b      	ldr	r3, [r3, #4]
 8004cae:	9301      	str	r3, [sp, #4]
 8004cb0:	9b01      	ldr	r3, [sp, #4]
 8004cb2:	f7ff ff6f 	bl	8004b94 <UART_EndRxTransfer>
 8004cb6:	2308      	movs	r3, #8
 8004cb8:	2001      	movs	r0, #1
 8004cba:	646b      	str	r3, [r5, #68]	; 0x44
 8004cbc:	f885 4040 	strb.w	r4, [r5, #64]	; 0x40
 8004cc0:	b003      	add	sp, #12
 8004cc2:	bdf0      	pop	{r4, r5, r6, r7, pc}
 8004cc4:	2003      	movs	r0, #3
 8004cc6:	e7fb      	b.n	8004cc0 <UART_WaitOnFlagUntilTimeout.constprop.0+0x5c>

08004cc8 <HAL_UART_Init>:
 8004cc8:	b510      	push	{r4, lr}
 8004cca:	4604      	mov	r4, r0
 8004ccc:	b348      	cbz	r0, 8004d22 <HAL_UART_Init+0x5a>
 8004cce:	f890 3041 	ldrb.w	r3, [r0, #65]	; 0x41
 8004cd2:	f003 02ff 	and.w	r2, r3, #255	; 0xff
 8004cd6:	b91b      	cbnz	r3, 8004ce0 <HAL_UART_Init+0x18>
 8004cd8:	f880 2040 	strb.w	r2, [r0, #64]	; 0x40
 8004cdc:	f7fc fe04 	bl	80018e8 <HAL_UART_MspInit>
 8004ce0:	2324      	movs	r3, #36	; 0x24
 8004ce2:	6822      	ldr	r2, [r4, #0]
 8004ce4:	f884 3041 	strb.w	r3, [r4, #65]	; 0x41
 8004ce8:	68d3      	ldr	r3, [r2, #12]
 8004cea:	4620      	mov	r0, r4
 8004cec:	f423 5300 	bic.w	r3, r3, #8192	; 0x2000
 8004cf0:	60d3      	str	r3, [r2, #12]
 8004cf2:	f7ff ff7d 	bl	8004bf0 <UART_SetConfig>
 8004cf6:	6823      	ldr	r3, [r4, #0]
 8004cf8:	2000      	movs	r0, #0
 8004cfa:	691a      	ldr	r2, [r3, #16]
 8004cfc:	f422 4290 	bic.w	r2, r2, #18432	; 0x4800
 8004d00:	611a      	str	r2, [r3, #16]
 8004d02:	695a      	ldr	r2, [r3, #20]
 8004d04:	f022 022a 	bic.w	r2, r2, #42	; 0x2a
 8004d08:	615a      	str	r2, [r3, #20]
 8004d0a:	68da      	ldr	r2, [r3, #12]
 8004d0c:	f442 5200 	orr.w	r2, r2, #8192	; 0x2000
 8004d10:	60da      	str	r2, [r3, #12]
 8004d12:	2320      	movs	r3, #32
 8004d14:	6460      	str	r0, [r4, #68]	; 0x44
 8004d16:	f884 3041 	strb.w	r3, [r4, #65]	; 0x41
 8004d1a:	f884 3042 	strb.w	r3, [r4, #66]	; 0x42
 8004d1e:	6360      	str	r0, [r4, #52]	; 0x34
 8004d20:	bd10      	pop	{r4, pc}
 8004d22:	2001      	movs	r0, #1
 8004d24:	e7fc      	b.n	8004d20 <HAL_UART_Init+0x58>

08004d26 <HAL_UART_Transmit>:
 8004d26:	e92d 43f8 	stmdb	sp!, {r3, r4, r5, r6, r7, r8, r9, lr}
 8004d2a:	4699      	mov	r9, r3
 8004d2c:	f890 3041 	ldrb.w	r3, [r0, #65]	; 0x41
 8004d30:	4604      	mov	r4, r0
 8004d32:	2b20      	cmp	r3, #32
 8004d34:	460e      	mov	r6, r1
 8004d36:	4617      	mov	r7, r2
 8004d38:	d13f      	bne.n	8004dba <HAL_UART_Transmit+0x94>
 8004d3a:	2900      	cmp	r1, #0
 8004d3c:	d03f      	beq.n	8004dbe <HAL_UART_Transmit+0x98>
 8004d3e:	2a00      	cmp	r2, #0
 8004d40:	d03d      	beq.n	8004dbe <HAL_UART_Transmit+0x98>
 8004d42:	2321      	movs	r3, #33	; 0x21
 8004d44:	2500      	movs	r5, #0
 8004d46:	6445      	str	r5, [r0, #68]	; 0x44
 8004d48:	f880 3041 	strb.w	r3, [r0, #65]	; 0x41
 8004d4c:	f7fe f8bc 	bl	8002ec8 <HAL_GetTick>
 8004d50:	68a3      	ldr	r3, [r4, #8]
 8004d52:	4680      	mov	r8, r0
 8004d54:	f5b3 5f80 	cmp.w	r3, #4096	; 0x1000
 8004d58:	84a7      	strh	r7, [r4, #36]	; 0x24
 8004d5a:	84e7      	strh	r7, [r4, #38]	; 0x26
 8004d5c:	d103      	bne.n	8004d66 <HAL_UART_Transmit+0x40>
 8004d5e:	6923      	ldr	r3, [r4, #16]
 8004d60:	b90b      	cbnz	r3, 8004d66 <HAL_UART_Transmit+0x40>
 8004d62:	4635      	mov	r5, r6
 8004d64:	461e      	mov	r6, r3
 8004d66:	8ce3      	ldrh	r3, [r4, #38]	; 0x26
 8004d68:	b29b      	uxth	r3, r3
 8004d6a:	b95b      	cbnz	r3, 8004d84 <HAL_UART_Transmit+0x5e>
 8004d6c:	464b      	mov	r3, r9
 8004d6e:	4642      	mov	r2, r8
 8004d70:	2140      	movs	r1, #64	; 0x40
 8004d72:	4620      	mov	r0, r4
 8004d74:	f7ff ff76 	bl	8004c64 <UART_WaitOnFlagUntilTimeout.constprop.0>
 8004d78:	2320      	movs	r3, #32
 8004d7a:	f884 3041 	strb.w	r3, [r4, #65]	; 0x41
 8004d7e:	b958      	cbnz	r0, 8004d98 <HAL_UART_Transmit+0x72>
 8004d80:	e8bd 83f8 	ldmia.w	sp!, {r3, r4, r5, r6, r7, r8, r9, pc}
 8004d84:	464b      	mov	r3, r9
 8004d86:	4642      	mov	r2, r8
 8004d88:	2180      	movs	r1, #128	; 0x80
 8004d8a:	4620      	mov	r0, r4
 8004d8c:	f7ff ff6a 	bl	8004c64 <UART_WaitOnFlagUntilTimeout.constprop.0>
 8004d90:	b120      	cbz	r0, 8004d9c <HAL_UART_Transmit+0x76>
 8004d92:	2320      	movs	r3, #32
 8004d94:	f884 3041 	strb.w	r3, [r4, #65]	; 0x41
 8004d98:	2003      	movs	r0, #3
 8004d9a:	e7f1      	b.n	8004d80 <HAL_UART_Transmit+0x5a>
 8004d9c:	6822      	ldr	r2, [r4, #0]
 8004d9e:	b94e      	cbnz	r6, 8004db4 <HAL_UART_Transmit+0x8e>
 8004da0:	f835 3b02 	ldrh.w	r3, [r5], #2
 8004da4:	f3c3 0308 	ubfx	r3, r3, #0, #9
 8004da8:	6053      	str	r3, [r2, #4]
 8004daa:	8ce1      	ldrh	r1, [r4, #38]	; 0x26
 8004dac:	3901      	subs	r1, #1
 8004dae:	b289      	uxth	r1, r1
 8004db0:	84e1      	strh	r1, [r4, #38]	; 0x26
 8004db2:	e7d8      	b.n	8004d66 <HAL_UART_Transmit+0x40>
 8004db4:	f816 3b01 	ldrb.w	r3, [r6], #1
 8004db8:	e7f6      	b.n	8004da8 <HAL_UART_Transmit+0x82>
 8004dba:	2002      	movs	r0, #2
 8004dbc:	e7e0      	b.n	8004d80 <HAL_UART_Transmit+0x5a>
 8004dbe:	2001      	movs	r0, #1
 8004dc0:	e7de      	b.n	8004d80 <HAL_UART_Transmit+0x5a>

08004dc2 <HAL_UART_Abort>:
 8004dc2:	b510      	push	{r4, lr}
 8004dc4:	4604      	mov	r4, r0
 8004dc6:	6822      	ldr	r2, [r4, #0]
 8004dc8:	f102 030c 	add.w	r3, r2, #12
 8004dcc:	e853 3f00 	ldrex	r3, [r3]
 8004dd0:	f423 73f0 	bic.w	r3, r3, #480	; 0x1e0
 8004dd4:	320c      	adds	r2, #12
 8004dd6:	e842 3100 	strex	r1, r3, [r2]
 8004dda:	6823      	ldr	r3, [r4, #0]
 8004ddc:	2900      	cmp	r1, #0
 8004dde:	d1f2      	bne.n	8004dc6 <HAL_UART_Abort+0x4>
 8004de0:	f103 0214 	add.w	r2, r3, #20
 8004de4:	e852 2f00 	ldrex	r2, [r2]
 8004de8:	f022 0201 	bic.w	r2, r2, #1
 8004dec:	f103 0014 	add.w	r0, r3, #20
 8004df0:	e840 2100 	strex	r1, r2, [r0]
 8004df4:	2900      	cmp	r1, #0
 8004df6:	d1f3      	bne.n	8004de0 <HAL_UART_Abort+0x1e>
 8004df8:	6b22      	ldr	r2, [r4, #48]	; 0x30
 8004dfa:	2a01      	cmp	r2, #1
 8004dfc:	d10b      	bne.n	8004e16 <HAL_UART_Abort+0x54>
 8004dfe:	f103 020c 	add.w	r2, r3, #12
 8004e02:	e852 2f00 	ldrex	r2, [r2]
 8004e06:	f022 0210 	bic.w	r2, r2, #16
 8004e0a:	f103 000c 	add.w	r0, r3, #12
 8004e0e:	e840 2100 	strex	r1, r2, [r0]
 8004e12:	2900      	cmp	r1, #0
 8004e14:	d1f3      	bne.n	8004dfe <HAL_UART_Abort+0x3c>
 8004e16:	695a      	ldr	r2, [r3, #20]
 8004e18:	0612      	lsls	r2, r2, #24
 8004e1a:	d51a      	bpl.n	8004e52 <HAL_UART_Abort+0x90>
 8004e1c:	f103 0214 	add.w	r2, r3, #20
 8004e20:	e852 2f00 	ldrex	r2, [r2]
 8004e24:	f022 0280 	bic.w	r2, r2, #128	; 0x80
 8004e28:	f103 0014 	add.w	r0, r3, #20
 8004e2c:	e840 2100 	strex	r1, r2, [r0]
 8004e30:	2900      	cmp	r1, #0
 8004e32:	d1f3      	bne.n	8004e1c <HAL_UART_Abort+0x5a>
 8004e34:	6ba0      	ldr	r0, [r4, #56]	; 0x38
 8004e36:	b160      	cbz	r0, 8004e52 <HAL_UART_Abort+0x90>
 8004e38:	6341      	str	r1, [r0, #52]	; 0x34
 8004e3a:	f7fe fd23 	bl	8003884 <HAL_DMA_Abort>
 8004e3e:	b140      	cbz	r0, 8004e52 <HAL_UART_Abort+0x90>
 8004e40:	6ba0      	ldr	r0, [r4, #56]	; 0x38
 8004e42:	f7fe fe1b 	bl	8003a7c <HAL_DMA_GetError>
 8004e46:	2820      	cmp	r0, #32
 8004e48:	d103      	bne.n	8004e52 <HAL_UART_Abort+0x90>
 8004e4a:	2310      	movs	r3, #16
 8004e4c:	2003      	movs	r0, #3
 8004e4e:	6463      	str	r3, [r4, #68]	; 0x44
 8004e50:	bd10      	pop	{r4, pc}
 8004e52:	6822      	ldr	r2, [r4, #0]
 8004e54:	6953      	ldr	r3, [r2, #20]
 8004e56:	065b      	lsls	r3, r3, #25
 8004e58:	d516      	bpl.n	8004e88 <HAL_UART_Abort+0xc6>
 8004e5a:	f102 0314 	add.w	r3, r2, #20
 8004e5e:	e853 3f00 	ldrex	r3, [r3]
 8004e62:	f023 0340 	bic.w	r3, r3, #64	; 0x40
 8004e66:	f102 0014 	add.w	r0, r2, #20
 8004e6a:	e840 3100 	strex	r1, r3, [r0]
 8004e6e:	2900      	cmp	r1, #0
 8004e70:	d1f3      	bne.n	8004e5a <HAL_UART_Abort+0x98>
 8004e72:	6be0      	ldr	r0, [r4, #60]	; 0x3c
 8004e74:	b140      	cbz	r0, 8004e88 <HAL_UART_Abort+0xc6>
 8004e76:	6341      	str	r1, [r0, #52]	; 0x34
 8004e78:	f7fe fd04 	bl	8003884 <HAL_DMA_Abort>
 8004e7c:	b120      	cbz	r0, 8004e88 <HAL_UART_Abort+0xc6>
 8004e7e:	6be0      	ldr	r0, [r4, #60]	; 0x3c
 8004e80:	f7fe fdfc 	bl	8003a7c <HAL_DMA_GetError>
 8004e84:	2820      	cmp	r0, #32
 8004e86:	d0e0      	beq.n	8004e4a <HAL_UART_Abort+0x88>
 8004e88:	2000      	movs	r0, #0
 8004e8a:	2320      	movs	r3, #32
 8004e8c:	84e0      	strh	r0, [r4, #38]	; 0x26
 8004e8e:	85e0      	strh	r0, [r4, #46]	; 0x2e
 8004e90:	6460      	str	r0, [r4, #68]	; 0x44
 8004e92:	f884 3042 	strb.w	r3, [r4, #66]	; 0x42
 8004e96:	f884 3041 	strb.w	r3, [r4, #65]	; 0x41
 8004e9a:	6320      	str	r0, [r4, #48]	; 0x30
 8004e9c:	e7d8      	b.n	8004e50 <HAL_UART_Abort+0x8e>

08004e9e <HAL_UART_TxCpltCallback>:
 8004e9e:	4770      	bx	lr

08004ea0 <UART_DMAAbortOnError>:
 8004ea0:	b508      	push	{r3, lr}
 8004ea2:	2300      	movs	r3, #0
 8004ea4:	6a40      	ldr	r0, [r0, #36]	; 0x24
 8004ea6:	85c3      	strh	r3, [r0, #46]	; 0x2e
 8004ea8:	84c3      	strh	r3, [r0, #38]	; 0x26
 8004eaa:	f7fd fc7d 	bl	80027a8 <HAL_UART_ErrorCallback>
 8004eae:	bd08      	pop	{r3, pc}

08004eb0 <UART_Receive_IT.isra.0>:
 8004eb0:	f890 3042 	ldrb.w	r3, [r0, #66]	; 0x42
 8004eb4:	b507      	push	{r0, r1, r2, lr}
 8004eb6:	2b22      	cmp	r3, #34	; 0x22
 8004eb8:	d142      	bne.n	8004f40 <UART_Receive_IT.isra.0+0x90>
 8004eba:	6881      	ldr	r1, [r0, #8]
 8004ebc:	6a83      	ldr	r3, [r0, #40]	; 0x28
 8004ebe:	f5b1 5f80 	cmp.w	r1, #4096	; 0x1000
 8004ec2:	6802      	ldr	r2, [r0, #0]
 8004ec4:	d13f      	bne.n	8004f46 <UART_Receive_IT.isra.0+0x96>
 8004ec6:	6901      	ldr	r1, [r0, #16]
 8004ec8:	2900      	cmp	r1, #0
 8004eca:	d13f      	bne.n	8004f4c <UART_Receive_IT.isra.0+0x9c>
 8004ecc:	6852      	ldr	r2, [r2, #4]
 8004ece:	f3c2 0208 	ubfx	r2, r2, #0, #9
 8004ed2:	f823 2b02 	strh.w	r2, [r3], #2
 8004ed6:	6283      	str	r3, [r0, #40]	; 0x28
 8004ed8:	8dc3      	ldrh	r3, [r0, #46]	; 0x2e
 8004eda:	3b01      	subs	r3, #1
 8004edc:	b29b      	uxth	r3, r3
 8004ede:	85c3      	strh	r3, [r0, #46]	; 0x2e
 8004ee0:	2b00      	cmp	r3, #0
 8004ee2:	d12d      	bne.n	8004f40 <UART_Receive_IT.isra.0+0x90>
 8004ee4:	6802      	ldr	r2, [r0, #0]
 8004ee6:	68d1      	ldr	r1, [r2, #12]
 8004ee8:	f021 0120 	bic.w	r1, r1, #32
 8004eec:	60d1      	str	r1, [r2, #12]
 8004eee:	68d1      	ldr	r1, [r2, #12]
 8004ef0:	f421 7180 	bic.w	r1, r1, #256	; 0x100
 8004ef4:	60d1      	str	r1, [r2, #12]
 8004ef6:	6951      	ldr	r1, [r2, #20]
 8004ef8:	f021 0101 	bic.w	r1, r1, #1
 8004efc:	6151      	str	r1, [r2, #20]
 8004efe:	2220      	movs	r2, #32
 8004f00:	f880 2042 	strb.w	r2, [r0, #66]	; 0x42
 8004f04:	6343      	str	r3, [r0, #52]	; 0x34
 8004f06:	6b02      	ldr	r2, [r0, #48]	; 0x30
 8004f08:	2a01      	cmp	r2, #1
 8004f0a:	6802      	ldr	r2, [r0, #0]
 8004f0c:	d128      	bne.n	8004f60 <UART_Receive_IT.isra.0+0xb0>
 8004f0e:	6303      	str	r3, [r0, #48]	; 0x30
 8004f10:	f102 030c 	add.w	r3, r2, #12
 8004f14:	e853 3f00 	ldrex	r3, [r3]
 8004f18:	f023 0310 	bic.w	r3, r3, #16
 8004f1c:	f102 0c0c 	add.w	ip, r2, #12
 8004f20:	e84c 3100 	strex	r1, r3, [ip]
 8004f24:	2900      	cmp	r1, #0
 8004f26:	d1f3      	bne.n	8004f10 <UART_Receive_IT.isra.0+0x60>
 8004f28:	6813      	ldr	r3, [r2, #0]
 8004f2a:	06db      	lsls	r3, r3, #27
 8004f2c:	d505      	bpl.n	8004f3a <UART_Receive_IT.isra.0+0x8a>
 8004f2e:	9101      	str	r1, [sp, #4]
 8004f30:	6813      	ldr	r3, [r2, #0]
 8004f32:	9301      	str	r3, [sp, #4]
 8004f34:	6853      	ldr	r3, [r2, #4]
 8004f36:	9301      	str	r3, [sp, #4]
 8004f38:	9b01      	ldr	r3, [sp, #4]
 8004f3a:	8d81      	ldrh	r1, [r0, #44]	; 0x2c
 8004f3c:	f7fd fdec 	bl	8002b18 <HAL_UARTEx_RxEventCallback>
 8004f40:	b003      	add	sp, #12
 8004f42:	f85d fb04 	ldr.w	pc, [sp], #4
 8004f46:	b939      	cbnz	r1, 8004f58 <UART_Receive_IT.isra.0+0xa8>
 8004f48:	6901      	ldr	r1, [r0, #16]
 8004f4a:	b929      	cbnz	r1, 8004f58 <UART_Receive_IT.isra.0+0xa8>
 8004f4c:	6852      	ldr	r2, [r2, #4]
 8004f4e:	b2d2      	uxtb	r2, r2
 8004f50:	701a      	strb	r2, [r3, #0]
 8004f52:	6a83      	ldr	r3, [r0, #40]	; 0x28
 8004f54:	3301      	adds	r3, #1
 8004f56:	e7be      	b.n	8004ed6 <UART_Receive_IT.isra.0+0x26>
 8004f58:	6852      	ldr	r2, [r2, #4]
 8004f5a:	f002 027f 	and.w	r2, r2, #127	; 0x7f
 8004f5e:	e7f7      	b.n	8004f50 <UART_Receive_IT.isra.0+0xa0>
 8004f60:	f7fd fbfc 	bl	800275c <HAL_UART_RxCpltCallback>
 8004f64:	e7ec      	b.n	8004f40 <UART_Receive_IT.isra.0+0x90>
	...

08004f68 <HAL_UART_IRQHandler>:
 8004f68:	6803      	ldr	r3, [r0, #0]
 8004f6a:	b573      	push	{r0, r1, r4, r5, r6, lr}
 8004f6c:	681a      	ldr	r2, [r3, #0]
 8004f6e:	4604      	mov	r4, r0
 8004f70:	0716      	lsls	r6, r2, #28
 8004f72:	68d9      	ldr	r1, [r3, #12]
 8004f74:	695d      	ldr	r5, [r3, #20]
 8004f76:	d108      	bne.n	8004f8a <HAL_UART_IRQHandler+0x22>
 8004f78:	0696      	lsls	r6, r2, #26
 8004f7a:	d568      	bpl.n	800504e <HAL_UART_IRQHandler+0xe6>
 8004f7c:	068d      	lsls	r5, r1, #26
 8004f7e:	d566      	bpl.n	800504e <HAL_UART_IRQHandler+0xe6>
 8004f80:	b002      	add	sp, #8
 8004f82:	e8bd 4070 	ldmia.w	sp!, {r4, r5, r6, lr}
 8004f86:	f7ff bf93 	b.w	8004eb0 <UART_Receive_IT.isra.0>
 8004f8a:	f005 0001 	and.w	r0, r5, #1
 8004f8e:	f401 7590 	and.w	r5, r1, #288	; 0x120
 8004f92:	4305      	orrs	r5, r0
 8004f94:	d05b      	beq.n	800504e <HAL_UART_IRQHandler+0xe6>
 8004f96:	07d6      	lsls	r6, r2, #31
 8004f98:	d505      	bpl.n	8004fa6 <HAL_UART_IRQHandler+0x3e>
 8004f9a:	05cd      	lsls	r5, r1, #23
 8004f9c:	bf42      	ittt	mi
 8004f9e:	6c63      	ldrmi	r3, [r4, #68]	; 0x44
 8004fa0:	f043 0301 	orrmi.w	r3, r3, #1
 8004fa4:	6463      	strmi	r3, [r4, #68]	; 0x44
 8004fa6:	0753      	lsls	r3, r2, #29
 8004fa8:	d504      	bpl.n	8004fb4 <HAL_UART_IRQHandler+0x4c>
 8004faa:	b118      	cbz	r0, 8004fb4 <HAL_UART_IRQHandler+0x4c>
 8004fac:	6c63      	ldr	r3, [r4, #68]	; 0x44
 8004fae:	f043 0302 	orr.w	r3, r3, #2
 8004fb2:	6463      	str	r3, [r4, #68]	; 0x44
 8004fb4:	0796      	lsls	r6, r2, #30
 8004fb6:	d504      	bpl.n	8004fc2 <HAL_UART_IRQHandler+0x5a>
 8004fb8:	b118      	cbz	r0, 8004fc2 <HAL_UART_IRQHandler+0x5a>
 8004fba:	6c63      	ldr	r3, [r4, #68]	; 0x44
 8004fbc:	f043 0304 	orr.w	r3, r3, #4
 8004fc0:	6463      	str	r3, [r4, #68]	; 0x44
 8004fc2:	0715      	lsls	r5, r2, #28
 8004fc4:	d507      	bpl.n	8004fd6 <HAL_UART_IRQHandler+0x6e>
 8004fc6:	f001 0320 	and.w	r3, r1, #32
 8004fca:	4303      	orrs	r3, r0
 8004fcc:	bf1e      	ittt	ne
 8004fce:	6c63      	ldrne	r3, [r4, #68]	; 0x44
 8004fd0:	f043 0308 	orrne.w	r3, r3, #8
 8004fd4:	6463      	strne	r3, [r4, #68]	; 0x44
 8004fd6:	6c63      	ldr	r3, [r4, #68]	; 0x44
 8004fd8:	2b00      	cmp	r3, #0
 8004fda:	d032      	beq.n	8005042 <HAL_UART_IRQHandler+0xda>
 8004fdc:	0692      	lsls	r2, r2, #26
 8004fde:	d504      	bpl.n	8004fea <HAL_UART_IRQHandler+0x82>
 8004fe0:	068b      	lsls	r3, r1, #26
 8004fe2:	d502      	bpl.n	8004fea <HAL_UART_IRQHandler+0x82>
 8004fe4:	4620      	mov	r0, r4
 8004fe6:	f7ff ff63 	bl	8004eb0 <UART_Receive_IT.isra.0>
 8004fea:	6826      	ldr	r6, [r4, #0]
 8004fec:	4620      	mov	r0, r4
 8004fee:	6973      	ldr	r3, [r6, #20]
 8004ff0:	6c62      	ldr	r2, [r4, #68]	; 0x44
 8004ff2:	f003 0340 	and.w	r3, r3, #64	; 0x40
 8004ff6:	f002 0208 	and.w	r2, r2, #8
 8004ffa:	ea53 0502 	orrs.w	r5, r3, r2
 8004ffe:	d022      	beq.n	8005046 <HAL_UART_IRQHandler+0xde>
 8005000:	f7ff fdc8 	bl	8004b94 <UART_EndRxTransfer>
 8005004:	6973      	ldr	r3, [r6, #20]
 8005006:	065e      	lsls	r6, r3, #25
 8005008:	d518      	bpl.n	800503c <HAL_UART_IRQHandler+0xd4>
 800500a:	6822      	ldr	r2, [r4, #0]
 800500c:	f102 0314 	add.w	r3, r2, #20
 8005010:	e853 3f00 	ldrex	r3, [r3]
 8005014:	f023 0340 	bic.w	r3, r3, #64	; 0x40
 8005018:	3214      	adds	r2, #20
 800501a:	e842 3100 	strex	r1, r3, [r2]
 800501e:	2900      	cmp	r1, #0
 8005020:	d1f3      	bne.n	800500a <HAL_UART_IRQHandler+0xa2>
 8005022:	6be0      	ldr	r0, [r4, #60]	; 0x3c
 8005024:	b150      	cbz	r0, 800503c <HAL_UART_IRQHandler+0xd4>
 8005026:	4b74      	ldr	r3, [pc, #464]	; (80051f8 <HAL_UART_IRQHandler+0x290>)
 8005028:	6343      	str	r3, [r0, #52]	; 0x34
 800502a:	f7fe fc4b 	bl	80038c4 <HAL_DMA_Abort_IT>
 800502e:	b140      	cbz	r0, 8005042 <HAL_UART_IRQHandler+0xda>
 8005030:	6be0      	ldr	r0, [r4, #60]	; 0x3c
 8005032:	6b43      	ldr	r3, [r0, #52]	; 0x34
 8005034:	b002      	add	sp, #8
 8005036:	e8bd 4070 	ldmia.w	sp!, {r4, r5, r6, lr}
 800503a:	4718      	bx	r3
 800503c:	4620      	mov	r0, r4
 800503e:	f7fd fbb3 	bl	80027a8 <HAL_UART_ErrorCallback>
 8005042:	b002      	add	sp, #8
 8005044:	bd70      	pop	{r4, r5, r6, pc}
 8005046:	f7fd fbaf 	bl	80027a8 <HAL_UART_ErrorCallback>
 800504a:	6465      	str	r5, [r4, #68]	; 0x44
 800504c:	e7f9      	b.n	8005042 <HAL_UART_IRQHandler+0xda>
 800504e:	6b20      	ldr	r0, [r4, #48]	; 0x30
 8005050:	2801      	cmp	r0, #1
 8005052:	f040 8094 	bne.w	800517e <HAL_UART_IRQHandler+0x216>
 8005056:	06d5      	lsls	r5, r2, #27
 8005058:	f140 8091 	bpl.w	800517e <HAL_UART_IRQHandler+0x216>
 800505c:	06c8      	lsls	r0, r1, #27
 800505e:	f140 808e 	bpl.w	800517e <HAL_UART_IRQHandler+0x216>
 8005062:	2200      	movs	r2, #0
 8005064:	9201      	str	r2, [sp, #4]
 8005066:	681a      	ldr	r2, [r3, #0]
 8005068:	9201      	str	r2, [sp, #4]
 800506a:	685a      	ldr	r2, [r3, #4]
 800506c:	9201      	str	r2, [sp, #4]
 800506e:	9a01      	ldr	r2, [sp, #4]
 8005070:	695a      	ldr	r2, [r3, #20]
 8005072:	0652      	lsls	r2, r2, #25
 8005074:	d54d      	bpl.n	8005112 <HAL_UART_IRQHandler+0x1aa>
 8005076:	6be1      	ldr	r1, [r4, #60]	; 0x3c
 8005078:	680a      	ldr	r2, [r1, #0]
 800507a:	6852      	ldr	r2, [r2, #4]
 800507c:	b292      	uxth	r2, r2
 800507e:	2a00      	cmp	r2, #0
 8005080:	d0df      	beq.n	8005042 <HAL_UART_IRQHandler+0xda>
 8005082:	8da0      	ldrh	r0, [r4, #44]	; 0x2c
 8005084:	4290      	cmp	r0, r2
 8005086:	d9dc      	bls.n	8005042 <HAL_UART_IRQHandler+0xda>
 8005088:	85e2      	strh	r2, [r4, #46]	; 0x2e
 800508a:	698a      	ldr	r2, [r1, #24]
 800508c:	2a20      	cmp	r2, #32
 800508e:	d036      	beq.n	80050fe <HAL_UART_IRQHandler+0x196>
 8005090:	f103 020c 	add.w	r2, r3, #12
 8005094:	e852 2f00 	ldrex	r2, [r2]
 8005098:	f422 7280 	bic.w	r2, r2, #256	; 0x100
 800509c:	f103 000c 	add.w	r0, r3, #12
 80050a0:	e840 2100 	strex	r1, r2, [r0]
 80050a4:	2900      	cmp	r1, #0
 80050a6:	d1f3      	bne.n	8005090 <HAL_UART_IRQHandler+0x128>
 80050a8:	f103 0214 	add.w	r2, r3, #20
 80050ac:	e852 2f00 	ldrex	r2, [r2]
 80050b0:	f022 0201 	bic.w	r2, r2, #1
 80050b4:	f103 0014 	add.w	r0, r3, #20
 80050b8:	e840 2100 	strex	r1, r2, [r0]
 80050bc:	2900      	cmp	r1, #0
 80050be:	d1f3      	bne.n	80050a8 <HAL_UART_IRQHandler+0x140>
 80050c0:	f103 0214 	add.w	r2, r3, #20
 80050c4:	e852 2f00 	ldrex	r2, [r2]
 80050c8:	f022 0240 	bic.w	r2, r2, #64	; 0x40
 80050cc:	f103 0014 	add.w	r0, r3, #20
 80050d0:	e840 2100 	strex	r1, r2, [r0]
 80050d4:	2900      	cmp	r1, #0
 80050d6:	d1f3      	bne.n	80050c0 <HAL_UART_IRQHandler+0x158>
 80050d8:	2220      	movs	r2, #32
 80050da:	f884 2042 	strb.w	r2, [r4, #66]	; 0x42
 80050de:	6321      	str	r1, [r4, #48]	; 0x30
 80050e0:	f103 020c 	add.w	r2, r3, #12
 80050e4:	e852 2f00 	ldrex	r2, [r2]
 80050e8:	f022 0210 	bic.w	r2, r2, #16
 80050ec:	f103 000c 	add.w	r0, r3, #12
 80050f0:	e840 2100 	strex	r1, r2, [r0]
 80050f4:	2900      	cmp	r1, #0
 80050f6:	d1f3      	bne.n	80050e0 <HAL_UART_IRQHandler+0x178>
 80050f8:	6be0      	ldr	r0, [r4, #60]	; 0x3c
 80050fa:	f7fe fbc3 	bl	8003884 <HAL_DMA_Abort>
 80050fe:	2302      	movs	r3, #2
 8005100:	6363      	str	r3, [r4, #52]	; 0x34
 8005102:	8de3      	ldrh	r3, [r4, #46]	; 0x2e
 8005104:	8da1      	ldrh	r1, [r4, #44]	; 0x2c
 8005106:	1ac9      	subs	r1, r1, r3
 8005108:	b289      	uxth	r1, r1
 800510a:	4620      	mov	r0, r4
 800510c:	f7fd fd04 	bl	8002b18 <HAL_UARTEx_RxEventCallback>
 8005110:	e797      	b.n	8005042 <HAL_UART_IRQHandler+0xda>
 8005112:	8de2      	ldrh	r2, [r4, #46]	; 0x2e
 8005114:	8de0      	ldrh	r0, [r4, #46]	; 0x2e
 8005116:	8da1      	ldrh	r1, [r4, #44]	; 0x2c
 8005118:	b280      	uxth	r0, r0
 800511a:	b292      	uxth	r2, r2
 800511c:	2800      	cmp	r0, #0
 800511e:	d090      	beq.n	8005042 <HAL_UART_IRQHandler+0xda>
 8005120:	1a89      	subs	r1, r1, r2
 8005122:	b289      	uxth	r1, r1
 8005124:	2900      	cmp	r1, #0
 8005126:	d08c      	beq.n	8005042 <HAL_UART_IRQHandler+0xda>
 8005128:	f103 020c 	add.w	r2, r3, #12
 800512c:	e852 2f00 	ldrex	r2, [r2]
 8005130:	f422 7290 	bic.w	r2, r2, #288	; 0x120
 8005134:	f103 050c 	add.w	r5, r3, #12
 8005138:	e845 2000 	strex	r0, r2, [r5]
 800513c:	2800      	cmp	r0, #0
 800513e:	d1f3      	bne.n	8005128 <HAL_UART_IRQHandler+0x1c0>
 8005140:	f103 0214 	add.w	r2, r3, #20
 8005144:	e852 2f00 	ldrex	r2, [r2]
 8005148:	f022 0201 	bic.w	r2, r2, #1
 800514c:	f103 0514 	add.w	r5, r3, #20
 8005150:	e845 2000 	strex	r0, r2, [r5]
 8005154:	2800      	cmp	r0, #0
 8005156:	d1f3      	bne.n	8005140 <HAL_UART_IRQHandler+0x1d8>
 8005158:	2220      	movs	r2, #32
 800515a:	f884 2042 	strb.w	r2, [r4, #66]	; 0x42
 800515e:	6320      	str	r0, [r4, #48]	; 0x30
 8005160:	f103 020c 	add.w	r2, r3, #12
 8005164:	e852 2f00 	ldrex	r2, [r2]
 8005168:	f022 0210 	bic.w	r2, r2, #16
 800516c:	f103 050c 	add.w	r5, r3, #12
 8005170:	e845 2000 	strex	r0, r2, [r5]
 8005174:	2800      	cmp	r0, #0
 8005176:	d1f3      	bne.n	8005160 <HAL_UART_IRQHandler+0x1f8>
 8005178:	2302      	movs	r3, #2
 800517a:	6363      	str	r3, [r4, #52]	; 0x34
 800517c:	e7c5      	b.n	800510a <HAL_UART_IRQHandler+0x1a2>
 800517e:	0616      	lsls	r6, r2, #24
 8005180:	d528      	bpl.n	80051d4 <HAL_UART_IRQHandler+0x26c>
 8005182:	060d      	lsls	r5, r1, #24
 8005184:	d526      	bpl.n	80051d4 <HAL_UART_IRQHandler+0x26c>
 8005186:	f894 2041 	ldrb.w	r2, [r4, #65]	; 0x41
 800518a:	2a21      	cmp	r2, #33	; 0x21
 800518c:	f47f af59 	bne.w	8005042 <HAL_UART_IRQHandler+0xda>
 8005190:	68a1      	ldr	r1, [r4, #8]
 8005192:	6a22      	ldr	r2, [r4, #32]
 8005194:	f5b1 5f80 	cmp.w	r1, #4096	; 0x1000
 8005198:	d117      	bne.n	80051ca <HAL_UART_IRQHandler+0x262>
 800519a:	6921      	ldr	r1, [r4, #16]
 800519c:	b9a9      	cbnz	r1, 80051ca <HAL_UART_IRQHandler+0x262>
 800519e:	f832 1b02 	ldrh.w	r1, [r2], #2
 80051a2:	f3c1 0108 	ubfx	r1, r1, #0, #9
 80051a6:	6059      	str	r1, [r3, #4]
 80051a8:	6222      	str	r2, [r4, #32]
 80051aa:	8ce2      	ldrh	r2, [r4, #38]	; 0x26
 80051ac:	3a01      	subs	r2, #1
 80051ae:	b292      	uxth	r2, r2
 80051b0:	84e2      	strh	r2, [r4, #38]	; 0x26
 80051b2:	2a00      	cmp	r2, #0
 80051b4:	f47f af45 	bne.w	8005042 <HAL_UART_IRQHandler+0xda>
 80051b8:	68da      	ldr	r2, [r3, #12]
 80051ba:	f022 0280 	bic.w	r2, r2, #128	; 0x80
 80051be:	60da      	str	r2, [r3, #12]
 80051c0:	68da      	ldr	r2, [r3, #12]
 80051c2:	f042 0240 	orr.w	r2, r2, #64	; 0x40
 80051c6:	60da      	str	r2, [r3, #12]
 80051c8:	e73b      	b.n	8005042 <HAL_UART_IRQHandler+0xda>
 80051ca:	1c51      	adds	r1, r2, #1
 80051cc:	6221      	str	r1, [r4, #32]
 80051ce:	7812      	ldrb	r2, [r2, #0]
 80051d0:	605a      	str	r2, [r3, #4]
 80051d2:	e7ea      	b.n	80051aa <HAL_UART_IRQHandler+0x242>
 80051d4:	0650      	lsls	r0, r2, #25
 80051d6:	f57f af34 	bpl.w	8005042 <HAL_UART_IRQHandler+0xda>
 80051da:	064a      	lsls	r2, r1, #25
 80051dc:	f57f af31 	bpl.w	8005042 <HAL_UART_IRQHandler+0xda>
 80051e0:	68da      	ldr	r2, [r3, #12]
 80051e2:	4620      	mov	r0, r4
 80051e4:	f022 0240 	bic.w	r2, r2, #64	; 0x40
 80051e8:	60da      	str	r2, [r3, #12]
 80051ea:	2320      	movs	r3, #32
 80051ec:	f884 3041 	strb.w	r3, [r4, #65]	; 0x41
 80051f0:	f7ff fe55 	bl	8004e9e <HAL_UART_TxCpltCallback>
 80051f4:	e725      	b.n	8005042 <HAL_UART_IRQHandler+0xda>
 80051f6:	bf00      	nop
 80051f8:	08004ea1 	.word	0x08004ea1

080051fc <UART_Start_Receive_IT>:
 80051fc:	2300      	movs	r3, #0
 80051fe:	85c2      	strh	r2, [r0, #46]	; 0x2e
 8005200:	6443      	str	r3, [r0, #68]	; 0x44
 8005202:	2322      	movs	r3, #34	; 0x22
 8005204:	8582      	strh	r2, [r0, #44]	; 0x2c
 8005206:	6902      	ldr	r2, [r0, #16]
 8005208:	f880 3042 	strb.w	r3, [r0, #66]	; 0x42
 800520c:	6281      	str	r1, [r0, #40]	; 0x28
 800520e:	6803      	ldr	r3, [r0, #0]
 8005210:	b11a      	cbz	r2, 800521a <UART_Start_Receive_IT+0x1e>
 8005212:	68da      	ldr	r2, [r3, #12]
 8005214:	f442 7280 	orr.w	r2, r2, #256	; 0x100
 8005218:	60da      	str	r2, [r3, #12]
 800521a:	695a      	ldr	r2, [r3, #20]
 800521c:	2000      	movs	r0, #0
 800521e:	f042 0201 	orr.w	r2, r2, #1
 8005222:	615a      	str	r2, [r3, #20]
 8005224:	68da      	ldr	r2, [r3, #12]
 8005226:	f042 0220 	orr.w	r2, r2, #32
 800522a:	60da      	str	r2, [r3, #12]
 800522c:	4770      	bx	lr

0800522e <HAL_UART_Receive_IT>:
 800522e:	b470      	push	{r4, r5, r6}
 8005230:	f890 6042 	ldrb.w	r6, [r0, #66]	; 0x42
 8005234:	2e20      	cmp	r6, #32
 8005236:	d106      	bne.n	8005246 <HAL_UART_Receive_IT+0x18>
 8005238:	b141      	cbz	r1, 800524c <HAL_UART_Receive_IT+0x1e>
 800523a:	b13a      	cbz	r2, 800524c <HAL_UART_Receive_IT+0x1e>
 800523c:	2400      	movs	r4, #0
 800523e:	6304      	str	r4, [r0, #48]	; 0x30
 8005240:	bc70      	pop	{r4, r5, r6}
 8005242:	f7ff bfdb 	b.w	80051fc <UART_Start_Receive_IT>
 8005246:	2002      	movs	r0, #2
 8005248:	bc70      	pop	{r4, r5, r6}
 800524a:	4770      	bx	lr
 800524c:	2001      	movs	r0, #1
 800524e:	e7fb      	b.n	8005248 <HAL_UART_Receive_IT+0x1a>

08005250 <HAL_UARTEx_ReceiveToIdle_IT>:
 8005250:	b573      	push	{r0, r1, r4, r5, r6, lr}
 8005252:	f890 6042 	ldrb.w	r6, [r0, #66]	; 0x42
 8005256:	4604      	mov	r4, r0
 8005258:	2e20      	cmp	r6, #32
 800525a:	d124      	bne.n	80052a6 <HAL_UARTEx_ReceiveToIdle_IT+0x56>
 800525c:	b911      	cbnz	r1, 8005264 <HAL_UARTEx_ReceiveToIdle_IT+0x14>
 800525e:	2001      	movs	r0, #1
 8005260:	b002      	add	sp, #8
 8005262:	bd70      	pop	{r4, r5, r6, pc}
 8005264:	2a00      	cmp	r2, #0
 8005266:	d0fa      	beq.n	800525e <HAL_UARTEx_ReceiveToIdle_IT+0xe>
 8005268:	2301      	movs	r3, #1
 800526a:	6303      	str	r3, [r0, #48]	; 0x30
 800526c:	2300      	movs	r3, #0
 800526e:	6343      	str	r3, [r0, #52]	; 0x34
 8005270:	f7ff ffc4 	bl	80051fc <UART_Start_Receive_IT>
 8005274:	2800      	cmp	r0, #0
 8005276:	d1f3      	bne.n	8005260 <HAL_UARTEx_ReceiveToIdle_IT+0x10>
 8005278:	6b23      	ldr	r3, [r4, #48]	; 0x30
 800527a:	2b01      	cmp	r3, #1
 800527c:	d1ef      	bne.n	800525e <HAL_UARTEx_ReceiveToIdle_IT+0xe>
 800527e:	6822      	ldr	r2, [r4, #0]
 8005280:	9001      	str	r0, [sp, #4]
 8005282:	6813      	ldr	r3, [r2, #0]
 8005284:	9301      	str	r3, [sp, #4]
 8005286:	6853      	ldr	r3, [r2, #4]
 8005288:	9301      	str	r3, [sp, #4]
 800528a:	9b01      	ldr	r3, [sp, #4]
 800528c:	f102 030c 	add.w	r3, r2, #12
 8005290:	e853 3f00 	ldrex	r3, [r3]
 8005294:	f043 0310 	orr.w	r3, r3, #16
 8005298:	f102 040c 	add.w	r4, r2, #12
 800529c:	e844 3100 	strex	r1, r3, [r4]
 80052a0:	2900      	cmp	r1, #0
 80052a2:	d1f3      	bne.n	800528c <HAL_UARTEx_ReceiveToIdle_IT+0x3c>
 80052a4:	e7dc      	b.n	8005260 <HAL_UARTEx_ReceiveToIdle_IT+0x10>
 80052a6:	2002      	movs	r0, #2
 80052a8:	e7da      	b.n	8005260 <HAL_UARTEx_ReceiveToIdle_IT+0x10>

080052aa <__cvt>:
 80052aa:	2b00      	cmp	r3, #0
 80052ac:	e92d 47f0 	stmdb	sp!, {r4, r5, r6, r7, r8, r9, sl, lr}
 80052b0:	461f      	mov	r7, r3
 80052b2:	bfbb      	ittet	lt
 80052b4:	f103 4300 	addlt.w	r3, r3, #2147483648	; 0x80000000
 80052b8:	461f      	movlt	r7, r3
 80052ba:	2300      	movge	r3, #0
 80052bc:	232d      	movlt	r3, #45	; 0x2d
 80052be:	b088      	sub	sp, #32
 80052c0:	4614      	mov	r4, r2
 80052c2:	9a12      	ldr	r2, [sp, #72]	; 0x48
 80052c4:	9d10      	ldr	r5, [sp, #64]	; 0x40
 80052c6:	7013      	strb	r3, [r2, #0]
 80052c8:	9b14      	ldr	r3, [sp, #80]	; 0x50
 80052ca:	f8dd a04c 	ldr.w	sl, [sp, #76]	; 0x4c
 80052ce:	f023 0820 	bic.w	r8, r3, #32
 80052d2:	f1b8 0f46 	cmp.w	r8, #70	; 0x46
 80052d6:	d005      	beq.n	80052e4 <__cvt+0x3a>
 80052d8:	f1b8 0f45 	cmp.w	r8, #69	; 0x45
 80052dc:	d100      	bne.n	80052e0 <__cvt+0x36>
 80052de:	3501      	adds	r5, #1
 80052e0:	2302      	movs	r3, #2
 80052e2:	e000      	b.n	80052e6 <__cvt+0x3c>
 80052e4:	2303      	movs	r3, #3
 80052e6:	aa07      	add	r2, sp, #28
 80052e8:	9204      	str	r2, [sp, #16]
 80052ea:	aa06      	add	r2, sp, #24
 80052ec:	e9cd a202 	strd	sl, r2, [sp, #8]
 80052f0:	e9cd 3500 	strd	r3, r5, [sp]
 80052f4:	4622      	mov	r2, r4
 80052f6:	463b      	mov	r3, r7
 80052f8:	f000 fe42 	bl	8005f80 <_dtoa_r>
 80052fc:	f1b8 0f47 	cmp.w	r8, #71	; 0x47
 8005300:	4606      	mov	r6, r0
 8005302:	d102      	bne.n	800530a <__cvt+0x60>
 8005304:	9b11      	ldr	r3, [sp, #68]	; 0x44
 8005306:	07db      	lsls	r3, r3, #31
 8005308:	d522      	bpl.n	8005350 <__cvt+0xa6>
 800530a:	f1b8 0f46 	cmp.w	r8, #70	; 0x46
 800530e:	eb06 0905 	add.w	r9, r6, r5
 8005312:	d110      	bne.n	8005336 <__cvt+0x8c>
 8005314:	7833      	ldrb	r3, [r6, #0]
 8005316:	2b30      	cmp	r3, #48	; 0x30
 8005318:	d10a      	bne.n	8005330 <__cvt+0x86>
 800531a:	2200      	movs	r2, #0
 800531c:	2300      	movs	r3, #0
 800531e:	4620      	mov	r0, r4
 8005320:	4639      	mov	r1, r7
 8005322:	f7fb fb41 	bl	80009a8 <__aeabi_dcmpeq>
 8005326:	b918      	cbnz	r0, 8005330 <__cvt+0x86>
 8005328:	f1c5 0501 	rsb	r5, r5, #1
 800532c:	f8ca 5000 	str.w	r5, [sl]
 8005330:	f8da 3000 	ldr.w	r3, [sl]
 8005334:	4499      	add	r9, r3
 8005336:	2200      	movs	r2, #0
 8005338:	2300      	movs	r3, #0
 800533a:	4620      	mov	r0, r4
 800533c:	4639      	mov	r1, r7
 800533e:	f7fb fb33 	bl	80009a8 <__aeabi_dcmpeq>
 8005342:	b108      	cbz	r0, 8005348 <__cvt+0x9e>
 8005344:	f8cd 901c 	str.w	r9, [sp, #28]
 8005348:	2230      	movs	r2, #48	; 0x30
 800534a:	9b07      	ldr	r3, [sp, #28]
 800534c:	454b      	cmp	r3, r9
 800534e:	d307      	bcc.n	8005360 <__cvt+0xb6>
 8005350:	4630      	mov	r0, r6
 8005352:	9b07      	ldr	r3, [sp, #28]
 8005354:	9a15      	ldr	r2, [sp, #84]	; 0x54
 8005356:	1b9b      	subs	r3, r3, r6
 8005358:	6013      	str	r3, [r2, #0]
 800535a:	b008      	add	sp, #32
 800535c:	e8bd 87f0 	ldmia.w	sp!, {r4, r5, r6, r7, r8, r9, sl, pc}
 8005360:	1c59      	adds	r1, r3, #1
 8005362:	9107      	str	r1, [sp, #28]
 8005364:	701a      	strb	r2, [r3, #0]
 8005366:	e7f0      	b.n	800534a <__cvt+0xa0>

08005368 <__exponent>:
 8005368:	4603      	mov	r3, r0
 800536a:	b5f7      	push	{r0, r1, r2, r4, r5, r6, r7, lr}
 800536c:	2900      	cmp	r1, #0
 800536e:	f803 2b02 	strb.w	r2, [r3], #2
 8005372:	bfb6      	itet	lt
 8005374:	222d      	movlt	r2, #45	; 0x2d
 8005376:	222b      	movge	r2, #43	; 0x2b
 8005378:	4249      	neglt	r1, r1
 800537a:	2909      	cmp	r1, #9
 800537c:	7042      	strb	r2, [r0, #1]
 800537e:	dd2a      	ble.n	80053d6 <__exponent+0x6e>
 8005380:	f10d 0207 	add.w	r2, sp, #7
 8005384:	4617      	mov	r7, r2
 8005386:	260a      	movs	r6, #10
 8005388:	fb91 f5f6 	sdiv	r5, r1, r6
 800538c:	4694      	mov	ip, r2
 800538e:	fb06 1415 	mls	r4, r6, r5, r1
 8005392:	3430      	adds	r4, #48	; 0x30
 8005394:	f80c 4c01 	strb.w	r4, [ip, #-1]
 8005398:	460c      	mov	r4, r1
 800539a:	2c63      	cmp	r4, #99	; 0x63
 800539c:	4629      	mov	r1, r5
 800539e:	f102 32ff 	add.w	r2, r2, #4294967295
 80053a2:	dcf1      	bgt.n	8005388 <__exponent+0x20>
 80053a4:	3130      	adds	r1, #48	; 0x30
 80053a6:	f1ac 0402 	sub.w	r4, ip, #2
 80053aa:	f802 1c01 	strb.w	r1, [r2, #-1]
 80053ae:	4622      	mov	r2, r4
 80053b0:	1c41      	adds	r1, r0, #1
 80053b2:	42ba      	cmp	r2, r7
 80053b4:	d30a      	bcc.n	80053cc <__exponent+0x64>
 80053b6:	f10d 0209 	add.w	r2, sp, #9
 80053ba:	eba2 020c 	sub.w	r2, r2, ip
 80053be:	42bc      	cmp	r4, r7
 80053c0:	bf88      	it	hi
 80053c2:	2200      	movhi	r2, #0
 80053c4:	4413      	add	r3, r2
 80053c6:	1a18      	subs	r0, r3, r0
 80053c8:	b003      	add	sp, #12
 80053ca:	bdf0      	pop	{r4, r5, r6, r7, pc}
 80053cc:	f812 5b01 	ldrb.w	r5, [r2], #1
 80053d0:	f801 5f01 	strb.w	r5, [r1, #1]!
 80053d4:	e7ed      	b.n	80053b2 <__exponent+0x4a>
 80053d6:	2330      	movs	r3, #48	; 0x30
 80053d8:	3130      	adds	r1, #48	; 0x30
 80053da:	7083      	strb	r3, [r0, #2]
 80053dc:	70c1      	strb	r1, [r0, #3]
 80053de:	1d03      	adds	r3, r0, #4
 80053e0:	e7f1      	b.n	80053c6 <__exponent+0x5e>
	...

080053e4 <_printf_float>:
 80053e4:	e92d 4ff0 	stmdb	sp!, {r4, r5, r6, r7, r8, r9, sl, fp, lr}
 80053e8:	b091      	sub	sp, #68	; 0x44
 80053ea:	460c      	mov	r4, r1
 80053ec:	f8dd 8068 	ldr.w	r8, [sp, #104]	; 0x68
 80053f0:	4616      	mov	r6, r2
 80053f2:	461f      	mov	r7, r3
 80053f4:	4605      	mov	r5, r0
 80053f6:	f000 fcb3 	bl	8005d60 <_localeconv_r>
 80053fa:	6803      	ldr	r3, [r0, #0]
 80053fc:	4618      	mov	r0, r3
 80053fe:	9309      	str	r3, [sp, #36]	; 0x24
 8005400:	f7fa fea6 	bl	8000150 <strlen>
 8005404:	2300      	movs	r3, #0
 8005406:	930e      	str	r3, [sp, #56]	; 0x38
 8005408:	f8d8 3000 	ldr.w	r3, [r8]
 800540c:	900a      	str	r0, [sp, #40]	; 0x28
 800540e:	3307      	adds	r3, #7
 8005410:	f023 0307 	bic.w	r3, r3, #7
 8005414:	f103 0208 	add.w	r2, r3, #8
 8005418:	f894 9018 	ldrb.w	r9, [r4, #24]
 800541c:	f8d4 b000 	ldr.w	fp, [r4]
 8005420:	f8c8 2000 	str.w	r2, [r8]
 8005424:	e9d3 a800 	ldrd	sl, r8, [r3]
 8005428:	4652      	mov	r2, sl
 800542a:	4643      	mov	r3, r8
 800542c:	e9c4 2312 	strd	r2, r3, [r4, #72]	; 0x48
 8005430:	f028 4300 	bic.w	r3, r8, #2147483648	; 0x80000000
 8005434:	930b      	str	r3, [sp, #44]	; 0x2c
 8005436:	f04f 32ff 	mov.w	r2, #4294967295
 800543a:	4650      	mov	r0, sl
 800543c:	4b9c      	ldr	r3, [pc, #624]	; (80056b0 <_printf_float+0x2cc>)
 800543e:	990b      	ldr	r1, [sp, #44]	; 0x2c
 8005440:	f7fb fae4 	bl	8000a0c <__aeabi_dcmpun>
 8005444:	bb70      	cbnz	r0, 80054a4 <_printf_float+0xc0>
 8005446:	f04f 32ff 	mov.w	r2, #4294967295
 800544a:	4650      	mov	r0, sl
 800544c:	4b98      	ldr	r3, [pc, #608]	; (80056b0 <_printf_float+0x2cc>)
 800544e:	990b      	ldr	r1, [sp, #44]	; 0x2c
 8005450:	f7fb fabe 	bl	80009d0 <__aeabi_dcmple>
 8005454:	bb30      	cbnz	r0, 80054a4 <_printf_float+0xc0>
 8005456:	2200      	movs	r2, #0
 8005458:	2300      	movs	r3, #0
 800545a:	4650      	mov	r0, sl
 800545c:	4641      	mov	r1, r8
 800545e:	f7fb faad 	bl	80009bc <__aeabi_dcmplt>
 8005462:	b110      	cbz	r0, 800546a <_printf_float+0x86>
 8005464:	232d      	movs	r3, #45	; 0x2d
 8005466:	f884 3043 	strb.w	r3, [r4, #67]	; 0x43
 800546a:	4a92      	ldr	r2, [pc, #584]	; (80056b4 <_printf_float+0x2d0>)
 800546c:	4b92      	ldr	r3, [pc, #584]	; (80056b8 <_printf_float+0x2d4>)
 800546e:	f1b9 0f47 	cmp.w	r9, #71	; 0x47
 8005472:	bf94      	ite	ls
 8005474:	4690      	movls	r8, r2
 8005476:	4698      	movhi	r8, r3
 8005478:	2303      	movs	r3, #3
 800547a:	f04f 0a00 	mov.w	sl, #0
 800547e:	6123      	str	r3, [r4, #16]
 8005480:	f02b 0304 	bic.w	r3, fp, #4
 8005484:	6023      	str	r3, [r4, #0]
 8005486:	4633      	mov	r3, r6
 8005488:	4621      	mov	r1, r4
 800548a:	4628      	mov	r0, r5
 800548c:	9700      	str	r7, [sp, #0]
 800548e:	aa0f      	add	r2, sp, #60	; 0x3c
 8005490:	f000 f9d6 	bl	8005840 <_printf_common>
 8005494:	3001      	adds	r0, #1
 8005496:	f040 8090 	bne.w	80055ba <_printf_float+0x1d6>
 800549a:	f04f 30ff 	mov.w	r0, #4294967295
 800549e:	b011      	add	sp, #68	; 0x44
 80054a0:	e8bd 8ff0 	ldmia.w	sp!, {r4, r5, r6, r7, r8, r9, sl, fp, pc}
 80054a4:	4652      	mov	r2, sl
 80054a6:	4643      	mov	r3, r8
 80054a8:	4650      	mov	r0, sl
 80054aa:	4641      	mov	r1, r8
 80054ac:	f7fb faae 	bl	8000a0c <__aeabi_dcmpun>
 80054b0:	b148      	cbz	r0, 80054c6 <_printf_float+0xe2>
 80054b2:	f1b8 0f00 	cmp.w	r8, #0
 80054b6:	bfb8      	it	lt
 80054b8:	232d      	movlt	r3, #45	; 0x2d
 80054ba:	4a80      	ldr	r2, [pc, #512]	; (80056bc <_printf_float+0x2d8>)
 80054bc:	bfb8      	it	lt
 80054be:	f884 3043 	strblt.w	r3, [r4, #67]	; 0x43
 80054c2:	4b7f      	ldr	r3, [pc, #508]	; (80056c0 <_printf_float+0x2dc>)
 80054c4:	e7d3      	b.n	800546e <_printf_float+0x8a>
 80054c6:	6863      	ldr	r3, [r4, #4]
 80054c8:	f009 01df 	and.w	r1, r9, #223	; 0xdf
 80054cc:	1c5a      	adds	r2, r3, #1
 80054ce:	d142      	bne.n	8005556 <_printf_float+0x172>
 80054d0:	2306      	movs	r3, #6
 80054d2:	6063      	str	r3, [r4, #4]
 80054d4:	2200      	movs	r2, #0
 80054d6:	9206      	str	r2, [sp, #24]
 80054d8:	aa0e      	add	r2, sp, #56	; 0x38
 80054da:	e9cd 9204 	strd	r9, r2, [sp, #16]
 80054de:	aa0d      	add	r2, sp, #52	; 0x34
 80054e0:	f44b 6380 	orr.w	r3, fp, #1024	; 0x400
 80054e4:	9203      	str	r2, [sp, #12]
 80054e6:	f10d 0233 	add.w	r2, sp, #51	; 0x33
 80054ea:	e9cd 3201 	strd	r3, r2, [sp, #4]
 80054ee:	6023      	str	r3, [r4, #0]
 80054f0:	6863      	ldr	r3, [r4, #4]
 80054f2:	4652      	mov	r2, sl
 80054f4:	9300      	str	r3, [sp, #0]
 80054f6:	4628      	mov	r0, r5
 80054f8:	4643      	mov	r3, r8
 80054fa:	910b      	str	r1, [sp, #44]	; 0x2c
 80054fc:	f7ff fed5 	bl	80052aa <__cvt>
 8005500:	990b      	ldr	r1, [sp, #44]	; 0x2c
 8005502:	4680      	mov	r8, r0
 8005504:	2947      	cmp	r1, #71	; 0x47
 8005506:	990d      	ldr	r1, [sp, #52]	; 0x34
 8005508:	d108      	bne.n	800551c <_printf_float+0x138>
 800550a:	1cc8      	adds	r0, r1, #3
 800550c:	db02      	blt.n	8005514 <_printf_float+0x130>
 800550e:	6863      	ldr	r3, [r4, #4]
 8005510:	4299      	cmp	r1, r3
 8005512:	dd40      	ble.n	8005596 <_printf_float+0x1b2>
 8005514:	f1a9 0902 	sub.w	r9, r9, #2
 8005518:	fa5f f989 	uxtb.w	r9, r9
 800551c:	f1b9 0f65 	cmp.w	r9, #101	; 0x65
 8005520:	d81f      	bhi.n	8005562 <_printf_float+0x17e>
 8005522:	464a      	mov	r2, r9
 8005524:	3901      	subs	r1, #1
 8005526:	f104 0050 	add.w	r0, r4, #80	; 0x50
 800552a:	910d      	str	r1, [sp, #52]	; 0x34
 800552c:	f7ff ff1c 	bl	8005368 <__exponent>
 8005530:	9a0e      	ldr	r2, [sp, #56]	; 0x38
 8005532:	4682      	mov	sl, r0
 8005534:	1813      	adds	r3, r2, r0
 8005536:	2a01      	cmp	r2, #1
 8005538:	6123      	str	r3, [r4, #16]
 800553a:	dc02      	bgt.n	8005542 <_printf_float+0x15e>
 800553c:	6822      	ldr	r2, [r4, #0]
 800553e:	07d2      	lsls	r2, r2, #31
 8005540:	d501      	bpl.n	8005546 <_printf_float+0x162>
 8005542:	3301      	adds	r3, #1
 8005544:	6123      	str	r3, [r4, #16]
 8005546:	f89d 3033 	ldrb.w	r3, [sp, #51]	; 0x33
 800554a:	2b00      	cmp	r3, #0
 800554c:	d09b      	beq.n	8005486 <_printf_float+0xa2>
 800554e:	232d      	movs	r3, #45	; 0x2d
 8005550:	f884 3043 	strb.w	r3, [r4, #67]	; 0x43
 8005554:	e797      	b.n	8005486 <_printf_float+0xa2>
 8005556:	2947      	cmp	r1, #71	; 0x47
 8005558:	d1bc      	bne.n	80054d4 <_printf_float+0xf0>
 800555a:	2b00      	cmp	r3, #0
 800555c:	d1ba      	bne.n	80054d4 <_printf_float+0xf0>
 800555e:	2301      	movs	r3, #1
 8005560:	e7b7      	b.n	80054d2 <_printf_float+0xee>
 8005562:	f1b9 0f66 	cmp.w	r9, #102	; 0x66
 8005566:	d118      	bne.n	800559a <_printf_float+0x1b6>
 8005568:	2900      	cmp	r1, #0
 800556a:	6863      	ldr	r3, [r4, #4]
 800556c:	dd0b      	ble.n	8005586 <_printf_float+0x1a2>
 800556e:	6121      	str	r1, [r4, #16]
 8005570:	b913      	cbnz	r3, 8005578 <_printf_float+0x194>
 8005572:	6822      	ldr	r2, [r4, #0]
 8005574:	07d0      	lsls	r0, r2, #31
 8005576:	d502      	bpl.n	800557e <_printf_float+0x19a>
 8005578:	3301      	adds	r3, #1
 800557a:	440b      	add	r3, r1
 800557c:	6123      	str	r3, [r4, #16]
 800557e:	f04f 0a00 	mov.w	sl, #0
 8005582:	65a1      	str	r1, [r4, #88]	; 0x58
 8005584:	e7df      	b.n	8005546 <_printf_float+0x162>
 8005586:	b913      	cbnz	r3, 800558e <_printf_float+0x1aa>
 8005588:	6822      	ldr	r2, [r4, #0]
 800558a:	07d2      	lsls	r2, r2, #31
 800558c:	d501      	bpl.n	8005592 <_printf_float+0x1ae>
 800558e:	3302      	adds	r3, #2
 8005590:	e7f4      	b.n	800557c <_printf_float+0x198>
 8005592:	2301      	movs	r3, #1
 8005594:	e7f2      	b.n	800557c <_printf_float+0x198>
 8005596:	f04f 0967 	mov.w	r9, #103	; 0x67
 800559a:	9b0e      	ldr	r3, [sp, #56]	; 0x38
 800559c:	4299      	cmp	r1, r3
 800559e:	db05      	blt.n	80055ac <_printf_float+0x1c8>
 80055a0:	6823      	ldr	r3, [r4, #0]
 80055a2:	6121      	str	r1, [r4, #16]
 80055a4:	07d8      	lsls	r0, r3, #31
 80055a6:	d5ea      	bpl.n	800557e <_printf_float+0x19a>
 80055a8:	1c4b      	adds	r3, r1, #1
 80055aa:	e7e7      	b.n	800557c <_printf_float+0x198>
 80055ac:	2900      	cmp	r1, #0
 80055ae:	bfcc      	ite	gt
 80055b0:	2201      	movgt	r2, #1
 80055b2:	f1c1 0202 	rsble	r2, r1, #2
 80055b6:	4413      	add	r3, r2
 80055b8:	e7e0      	b.n	800557c <_printf_float+0x198>
 80055ba:	6823      	ldr	r3, [r4, #0]
 80055bc:	055a      	lsls	r2, r3, #21
 80055be:	d407      	bmi.n	80055d0 <_printf_float+0x1ec>
 80055c0:	6923      	ldr	r3, [r4, #16]
 80055c2:	4642      	mov	r2, r8
 80055c4:	4631      	mov	r1, r6
 80055c6:	4628      	mov	r0, r5
 80055c8:	47b8      	blx	r7
 80055ca:	3001      	adds	r0, #1
 80055cc:	d12b      	bne.n	8005626 <_printf_float+0x242>
 80055ce:	e764      	b.n	800549a <_printf_float+0xb6>
 80055d0:	f1b9 0f65 	cmp.w	r9, #101	; 0x65
 80055d4:	f240 80dd 	bls.w	8005792 <_printf_float+0x3ae>
 80055d8:	e9d4 0112 	ldrd	r0, r1, [r4, #72]	; 0x48
 80055dc:	2200      	movs	r2, #0
 80055de:	2300      	movs	r3, #0
 80055e0:	f7fb f9e2 	bl	80009a8 <__aeabi_dcmpeq>
 80055e4:	2800      	cmp	r0, #0
 80055e6:	d033      	beq.n	8005650 <_printf_float+0x26c>
 80055e8:	2301      	movs	r3, #1
 80055ea:	4631      	mov	r1, r6
 80055ec:	4628      	mov	r0, r5
 80055ee:	4a35      	ldr	r2, [pc, #212]	; (80056c4 <_printf_float+0x2e0>)
 80055f0:	47b8      	blx	r7
 80055f2:	3001      	adds	r0, #1
 80055f4:	f43f af51 	beq.w	800549a <_printf_float+0xb6>
 80055f8:	e9dd 230d 	ldrd	r2, r3, [sp, #52]	; 0x34
 80055fc:	429a      	cmp	r2, r3
 80055fe:	db02      	blt.n	8005606 <_printf_float+0x222>
 8005600:	6823      	ldr	r3, [r4, #0]
 8005602:	07d8      	lsls	r0, r3, #31
 8005604:	d50f      	bpl.n	8005626 <_printf_float+0x242>
 8005606:	e9dd 2309 	ldrd	r2, r3, [sp, #36]	; 0x24
 800560a:	4631      	mov	r1, r6
 800560c:	4628      	mov	r0, r5
 800560e:	47b8      	blx	r7
 8005610:	3001      	adds	r0, #1
 8005612:	f43f af42 	beq.w	800549a <_printf_float+0xb6>
 8005616:	f04f 0800 	mov.w	r8, #0
 800561a:	f104 091a 	add.w	r9, r4, #26
 800561e:	9b0e      	ldr	r3, [sp, #56]	; 0x38
 8005620:	3b01      	subs	r3, #1
 8005622:	4543      	cmp	r3, r8
 8005624:	dc09      	bgt.n	800563a <_printf_float+0x256>
 8005626:	6823      	ldr	r3, [r4, #0]
 8005628:	079b      	lsls	r3, r3, #30
 800562a:	f100 8104 	bmi.w	8005836 <_printf_float+0x452>
 800562e:	68e0      	ldr	r0, [r4, #12]
 8005630:	9b0f      	ldr	r3, [sp, #60]	; 0x3c
 8005632:	4298      	cmp	r0, r3
 8005634:	bfb8      	it	lt
 8005636:	4618      	movlt	r0, r3
 8005638:	e731      	b.n	800549e <_printf_float+0xba>
 800563a:	2301      	movs	r3, #1
 800563c:	464a      	mov	r2, r9
 800563e:	4631      	mov	r1, r6
 8005640:	4628      	mov	r0, r5
 8005642:	47b8      	blx	r7
 8005644:	3001      	adds	r0, #1
 8005646:	f43f af28 	beq.w	800549a <_printf_float+0xb6>
 800564a:	f108 0801 	add.w	r8, r8, #1
 800564e:	e7e6      	b.n	800561e <_printf_float+0x23a>
 8005650:	9b0d      	ldr	r3, [sp, #52]	; 0x34
 8005652:	2b00      	cmp	r3, #0
 8005654:	dc38      	bgt.n	80056c8 <_printf_float+0x2e4>
 8005656:	2301      	movs	r3, #1
 8005658:	4631      	mov	r1, r6
 800565a:	4628      	mov	r0, r5
 800565c:	4a19      	ldr	r2, [pc, #100]	; (80056c4 <_printf_float+0x2e0>)
 800565e:	47b8      	blx	r7
 8005660:	3001      	adds	r0, #1
 8005662:	f43f af1a 	beq.w	800549a <_printf_float+0xb6>
 8005666:	e9dd 320d 	ldrd	r3, r2, [sp, #52]	; 0x34
 800566a:	4313      	orrs	r3, r2
 800566c:	d102      	bne.n	8005674 <_printf_float+0x290>
 800566e:	6823      	ldr	r3, [r4, #0]
 8005670:	07d9      	lsls	r1, r3, #31
 8005672:	d5d8      	bpl.n	8005626 <_printf_float+0x242>
 8005674:	e9dd 2309 	ldrd	r2, r3, [sp, #36]	; 0x24
 8005678:	4631      	mov	r1, r6
 800567a:	4628      	mov	r0, r5
 800567c:	47b8      	blx	r7
 800567e:	3001      	adds	r0, #1
 8005680:	f43f af0b 	beq.w	800549a <_printf_float+0xb6>
 8005684:	f04f 0900 	mov.w	r9, #0
 8005688:	f104 0a1a 	add.w	sl, r4, #26
 800568c:	9b0d      	ldr	r3, [sp, #52]	; 0x34
 800568e:	425b      	negs	r3, r3
 8005690:	454b      	cmp	r3, r9
 8005692:	dc01      	bgt.n	8005698 <_printf_float+0x2b4>
 8005694:	9b0e      	ldr	r3, [sp, #56]	; 0x38
 8005696:	e794      	b.n	80055c2 <_printf_float+0x1de>
 8005698:	2301      	movs	r3, #1
 800569a:	4652      	mov	r2, sl
 800569c:	4631      	mov	r1, r6
 800569e:	4628      	mov	r0, r5
 80056a0:	47b8      	blx	r7
 80056a2:	3001      	adds	r0, #1
 80056a4:	f43f aef9 	beq.w	800549a <_printf_float+0xb6>
 80056a8:	f109 0901 	add.w	r9, r9, #1
 80056ac:	e7ee      	b.n	800568c <_printf_float+0x2a8>
 80056ae:	bf00      	nop
 80056b0:	7fefffff 	.word	0x7fefffff
 80056b4:	08007c1a 	.word	0x08007c1a
 80056b8:	08007c1e 	.word	0x08007c1e
 80056bc:	08007c22 	.word	0x08007c22
 80056c0:	08007c26 	.word	0x08007c26
 80056c4:	08007c2a 	.word	0x08007c2a
 80056c8:	9a0e      	ldr	r2, [sp, #56]	; 0x38
 80056ca:	6da3      	ldr	r3, [r4, #88]	; 0x58
 80056cc:	429a      	cmp	r2, r3
 80056ce:	bfa8      	it	ge
 80056d0:	461a      	movge	r2, r3
 80056d2:	2a00      	cmp	r2, #0
 80056d4:	4691      	mov	r9, r2
 80056d6:	dc37      	bgt.n	8005748 <_printf_float+0x364>
 80056d8:	f04f 0b00 	mov.w	fp, #0
 80056dc:	ea29 79e9 	bic.w	r9, r9, r9, asr #31
 80056e0:	f104 021a 	add.w	r2, r4, #26
 80056e4:	f8d4 a058 	ldr.w	sl, [r4, #88]	; 0x58
 80056e8:	ebaa 0309 	sub.w	r3, sl, r9
 80056ec:	455b      	cmp	r3, fp
 80056ee:	dc33      	bgt.n	8005758 <_printf_float+0x374>
 80056f0:	e9dd 230d 	ldrd	r2, r3, [sp, #52]	; 0x34
 80056f4:	429a      	cmp	r2, r3
 80056f6:	db3b      	blt.n	8005770 <_printf_float+0x38c>
 80056f8:	6823      	ldr	r3, [r4, #0]
 80056fa:	07da      	lsls	r2, r3, #31
 80056fc:	d438      	bmi.n	8005770 <_printf_float+0x38c>
 80056fe:	e9dd 320d 	ldrd	r3, r2, [sp, #52]	; 0x34
 8005702:	eba2 0903 	sub.w	r9, r2, r3
 8005706:	eba2 020a 	sub.w	r2, r2, sl
 800570a:	4591      	cmp	r9, r2
 800570c:	bfa8      	it	ge
 800570e:	4691      	movge	r9, r2
 8005710:	f1b9 0f00 	cmp.w	r9, #0
 8005714:	dc34      	bgt.n	8005780 <_printf_float+0x39c>
 8005716:	f04f 0800 	mov.w	r8, #0
 800571a:	ea29 79e9 	bic.w	r9, r9, r9, asr #31
 800571e:	f104 0a1a 	add.w	sl, r4, #26
 8005722:	e9dd 230d 	ldrd	r2, r3, [sp, #52]	; 0x34
 8005726:	1a9b      	subs	r3, r3, r2
 8005728:	eba3 0309 	sub.w	r3, r3, r9
 800572c:	4543      	cmp	r3, r8
 800572e:	f77f af7a 	ble.w	8005626 <_printf_float+0x242>
 8005732:	2301      	movs	r3, #1
 8005734:	4652      	mov	r2, sl
 8005736:	4631      	mov	r1, r6
 8005738:	4628      	mov	r0, r5
 800573a:	47b8      	blx	r7
 800573c:	3001      	adds	r0, #1
 800573e:	f43f aeac 	beq.w	800549a <_printf_float+0xb6>
 8005742:	f108 0801 	add.w	r8, r8, #1
 8005746:	e7ec      	b.n	8005722 <_printf_float+0x33e>
 8005748:	4613      	mov	r3, r2
 800574a:	4631      	mov	r1, r6
 800574c:	4642      	mov	r2, r8
 800574e:	4628      	mov	r0, r5
 8005750:	47b8      	blx	r7
 8005752:	3001      	adds	r0, #1
 8005754:	d1c0      	bne.n	80056d8 <_printf_float+0x2f4>
 8005756:	e6a0      	b.n	800549a <_printf_float+0xb6>
 8005758:	2301      	movs	r3, #1
 800575a:	4631      	mov	r1, r6
 800575c:	4628      	mov	r0, r5
 800575e:	920b      	str	r2, [sp, #44]	; 0x2c
 8005760:	47b8      	blx	r7
 8005762:	3001      	adds	r0, #1
 8005764:	f43f ae99 	beq.w	800549a <_printf_float+0xb6>
 8005768:	9a0b      	ldr	r2, [sp, #44]	; 0x2c
 800576a:	f10b 0b01 	add.w	fp, fp, #1
 800576e:	e7b9      	b.n	80056e4 <_printf_float+0x300>
 8005770:	4631      	mov	r1, r6
 8005772:	e9dd 2309 	ldrd	r2, r3, [sp, #36]	; 0x24
 8005776:	4628      	mov	r0, r5
 8005778:	47b8      	blx	r7
 800577a:	3001      	adds	r0, #1
 800577c:	d1bf      	bne.n	80056fe <_printf_float+0x31a>
 800577e:	e68c      	b.n	800549a <_printf_float+0xb6>
 8005780:	464b      	mov	r3, r9
 8005782:	4631      	mov	r1, r6
 8005784:	4628      	mov	r0, r5
 8005786:	eb08 020a 	add.w	r2, r8, sl
 800578a:	47b8      	blx	r7
 800578c:	3001      	adds	r0, #1
 800578e:	d1c2      	bne.n	8005716 <_printf_float+0x332>
 8005790:	e683      	b.n	800549a <_printf_float+0xb6>
 8005792:	9a0e      	ldr	r2, [sp, #56]	; 0x38
 8005794:	2a01      	cmp	r2, #1
 8005796:	dc01      	bgt.n	800579c <_printf_float+0x3b8>
 8005798:	07db      	lsls	r3, r3, #31
 800579a:	d539      	bpl.n	8005810 <_printf_float+0x42c>
 800579c:	2301      	movs	r3, #1
 800579e:	4642      	mov	r2, r8
 80057a0:	4631      	mov	r1, r6
 80057a2:	4628      	mov	r0, r5
 80057a4:	47b8      	blx	r7
 80057a6:	3001      	adds	r0, #1
 80057a8:	f43f ae77 	beq.w	800549a <_printf_float+0xb6>
 80057ac:	e9dd 2309 	ldrd	r2, r3, [sp, #36]	; 0x24
 80057b0:	4631      	mov	r1, r6
 80057b2:	4628      	mov	r0, r5
 80057b4:	47b8      	blx	r7
 80057b6:	3001      	adds	r0, #1
 80057b8:	f43f ae6f 	beq.w	800549a <_printf_float+0xb6>
 80057bc:	e9d4 0112 	ldrd	r0, r1, [r4, #72]	; 0x48
 80057c0:	2200      	movs	r2, #0
 80057c2:	2300      	movs	r3, #0
 80057c4:	f8dd 9038 	ldr.w	r9, [sp, #56]	; 0x38
 80057c8:	f7fb f8ee 	bl	80009a8 <__aeabi_dcmpeq>
 80057cc:	b9d8      	cbnz	r0, 8005806 <_printf_float+0x422>
 80057ce:	f109 33ff 	add.w	r3, r9, #4294967295
 80057d2:	f108 0201 	add.w	r2, r8, #1
 80057d6:	4631      	mov	r1, r6
 80057d8:	4628      	mov	r0, r5
 80057da:	47b8      	blx	r7
 80057dc:	3001      	adds	r0, #1
 80057de:	d10e      	bne.n	80057fe <_printf_float+0x41a>
 80057e0:	e65b      	b.n	800549a <_printf_float+0xb6>
 80057e2:	2301      	movs	r3, #1
 80057e4:	464a      	mov	r2, r9
 80057e6:	4631      	mov	r1, r6
 80057e8:	4628      	mov	r0, r5
 80057ea:	47b8      	blx	r7
 80057ec:	3001      	adds	r0, #1
 80057ee:	f43f ae54 	beq.w	800549a <_printf_float+0xb6>
 80057f2:	f108 0801 	add.w	r8, r8, #1
 80057f6:	9b0e      	ldr	r3, [sp, #56]	; 0x38
 80057f8:	3b01      	subs	r3, #1
 80057fa:	4543      	cmp	r3, r8
 80057fc:	dcf1      	bgt.n	80057e2 <_printf_float+0x3fe>
 80057fe:	4653      	mov	r3, sl
 8005800:	f104 0250 	add.w	r2, r4, #80	; 0x50
 8005804:	e6de      	b.n	80055c4 <_printf_float+0x1e0>
 8005806:	f04f 0800 	mov.w	r8, #0
 800580a:	f104 091a 	add.w	r9, r4, #26
 800580e:	e7f2      	b.n	80057f6 <_printf_float+0x412>
 8005810:	2301      	movs	r3, #1
 8005812:	4642      	mov	r2, r8
 8005814:	e7df      	b.n	80057d6 <_printf_float+0x3f2>
 8005816:	2301      	movs	r3, #1
 8005818:	464a      	mov	r2, r9
 800581a:	4631      	mov	r1, r6
 800581c:	4628      	mov	r0, r5
 800581e:	47b8      	blx	r7
 8005820:	3001      	adds	r0, #1
 8005822:	f43f ae3a 	beq.w	800549a <_printf_float+0xb6>
 8005826:	f108 0801 	add.w	r8, r8, #1
 800582a:	68e3      	ldr	r3, [r4, #12]
 800582c:	990f      	ldr	r1, [sp, #60]	; 0x3c
 800582e:	1a5b      	subs	r3, r3, r1
 8005830:	4543      	cmp	r3, r8
 8005832:	dcf0      	bgt.n	8005816 <_printf_float+0x432>
 8005834:	e6fb      	b.n	800562e <_printf_float+0x24a>
 8005836:	f04f 0800 	mov.w	r8, #0
 800583a:	f104 0919 	add.w	r9, r4, #25
 800583e:	e7f4      	b.n	800582a <_printf_float+0x446>

08005840 <_printf_common>:
 8005840:	e92d 47f0 	stmdb	sp!, {r4, r5, r6, r7, r8, r9, sl, lr}
 8005844:	4616      	mov	r6, r2
 8005846:	4699      	mov	r9, r3
 8005848:	688a      	ldr	r2, [r1, #8]
 800584a:	690b      	ldr	r3, [r1, #16]
 800584c:	4607      	mov	r7, r0
 800584e:	4293      	cmp	r3, r2
 8005850:	bfb8      	it	lt
 8005852:	4613      	movlt	r3, r2
 8005854:	6033      	str	r3, [r6, #0]
 8005856:	f891 2043 	ldrb.w	r2, [r1, #67]	; 0x43
 800585a:	460c      	mov	r4, r1
 800585c:	f8dd 8020 	ldr.w	r8, [sp, #32]
 8005860:	b10a      	cbz	r2, 8005866 <_printf_common+0x26>
 8005862:	3301      	adds	r3, #1
 8005864:	6033      	str	r3, [r6, #0]
 8005866:	6823      	ldr	r3, [r4, #0]
 8005868:	0699      	lsls	r1, r3, #26
 800586a:	bf42      	ittt	mi
 800586c:	6833      	ldrmi	r3, [r6, #0]
 800586e:	3302      	addmi	r3, #2
 8005870:	6033      	strmi	r3, [r6, #0]
 8005872:	6825      	ldr	r5, [r4, #0]
 8005874:	f015 0506 	ands.w	r5, r5, #6
 8005878:	d106      	bne.n	8005888 <_printf_common+0x48>
 800587a:	f104 0a19 	add.w	sl, r4, #25
 800587e:	68e3      	ldr	r3, [r4, #12]
 8005880:	6832      	ldr	r2, [r6, #0]
 8005882:	1a9b      	subs	r3, r3, r2
 8005884:	42ab      	cmp	r3, r5
 8005886:	dc2b      	bgt.n	80058e0 <_printf_common+0xa0>
 8005888:	f894 2043 	ldrb.w	r2, [r4, #67]	; 0x43
 800588c:	1e13      	subs	r3, r2, #0
 800588e:	6822      	ldr	r2, [r4, #0]
 8005890:	bf18      	it	ne
 8005892:	2301      	movne	r3, #1
 8005894:	0692      	lsls	r2, r2, #26
 8005896:	d430      	bmi.n	80058fa <_printf_common+0xba>
 8005898:	4649      	mov	r1, r9
 800589a:	4638      	mov	r0, r7
 800589c:	f104 0243 	add.w	r2, r4, #67	; 0x43
 80058a0:	47c0      	blx	r8
 80058a2:	3001      	adds	r0, #1
 80058a4:	d023      	beq.n	80058ee <_printf_common+0xae>
 80058a6:	6823      	ldr	r3, [r4, #0]
 80058a8:	6922      	ldr	r2, [r4, #16]
 80058aa:	f003 0306 	and.w	r3, r3, #6
 80058ae:	2b04      	cmp	r3, #4
 80058b0:	bf14      	ite	ne
 80058b2:	2500      	movne	r5, #0
 80058b4:	6833      	ldreq	r3, [r6, #0]
 80058b6:	f04f 0600 	mov.w	r6, #0
 80058ba:	bf08      	it	eq
 80058bc:	68e5      	ldreq	r5, [r4, #12]
 80058be:	f104 041a 	add.w	r4, r4, #26
 80058c2:	bf08      	it	eq
 80058c4:	1aed      	subeq	r5, r5, r3
 80058c6:	f854 3c12 	ldr.w	r3, [r4, #-18]
 80058ca:	bf08      	it	eq
 80058cc:	ea25 75e5 	biceq.w	r5, r5, r5, asr #31
 80058d0:	4293      	cmp	r3, r2
 80058d2:	bfc4      	itt	gt
 80058d4:	1a9b      	subgt	r3, r3, r2
 80058d6:	18ed      	addgt	r5, r5, r3
 80058d8:	42b5      	cmp	r5, r6
 80058da:	d11a      	bne.n	8005912 <_printf_common+0xd2>
 80058dc:	2000      	movs	r0, #0
 80058de:	e008      	b.n	80058f2 <_printf_common+0xb2>
 80058e0:	2301      	movs	r3, #1
 80058e2:	4652      	mov	r2, sl
 80058e4:	4649      	mov	r1, r9
 80058e6:	4638      	mov	r0, r7
 80058e8:	47c0      	blx	r8
 80058ea:	3001      	adds	r0, #1
 80058ec:	d103      	bne.n	80058f6 <_printf_common+0xb6>
 80058ee:	f04f 30ff 	mov.w	r0, #4294967295
 80058f2:	e8bd 87f0 	ldmia.w	sp!, {r4, r5, r6, r7, r8, r9, sl, pc}
 80058f6:	3501      	adds	r5, #1
 80058f8:	e7c1      	b.n	800587e <_printf_common+0x3e>
 80058fa:	2030      	movs	r0, #48	; 0x30
 80058fc:	18e1      	adds	r1, r4, r3
 80058fe:	f881 0043 	strb.w	r0, [r1, #67]	; 0x43
 8005902:	1c5a      	adds	r2, r3, #1
 8005904:	f894 1045 	ldrb.w	r1, [r4, #69]	; 0x45
 8005908:	4422      	add	r2, r4
 800590a:	3302      	adds	r3, #2
 800590c:	f882 1043 	strb.w	r1, [r2, #67]	; 0x43
 8005910:	e7c2      	b.n	8005898 <_printf_common+0x58>
 8005912:	2301      	movs	r3, #1
 8005914:	4622      	mov	r2, r4
 8005916:	4649      	mov	r1, r9
 8005918:	4638      	mov	r0, r7
 800591a:	47c0      	blx	r8
 800591c:	3001      	adds	r0, #1
 800591e:	d0e6      	beq.n	80058ee <_printf_common+0xae>
 8005920:	3601      	adds	r6, #1
 8005922:	e7d9      	b.n	80058d8 <_printf_common+0x98>

08005924 <_printf_i>:
 8005924:	e92d 47ff 	stmdb	sp!, {r0, r1, r2, r3, r4, r5, r6, r7, r8, r9, sl, lr}
 8005928:	7e0f      	ldrb	r7, [r1, #24]
 800592a:	4691      	mov	r9, r2
 800592c:	2f78      	cmp	r7, #120	; 0x78
 800592e:	4680      	mov	r8, r0
 8005930:	460c      	mov	r4, r1
 8005932:	469a      	mov	sl, r3
 8005934:	9d0c      	ldr	r5, [sp, #48]	; 0x30
 8005936:	f101 0243 	add.w	r2, r1, #67	; 0x43
 800593a:	d807      	bhi.n	800594c <_printf_i+0x28>
 800593c:	2f62      	cmp	r7, #98	; 0x62
 800593e:	d80a      	bhi.n	8005956 <_printf_i+0x32>
 8005940:	2f00      	cmp	r7, #0
 8005942:	f000 80d5 	beq.w	8005af0 <_printf_i+0x1cc>
 8005946:	2f58      	cmp	r7, #88	; 0x58
 8005948:	f000 80c1 	beq.w	8005ace <_printf_i+0x1aa>
 800594c:	f104 0542 	add.w	r5, r4, #66	; 0x42
 8005950:	f884 7042 	strb.w	r7, [r4, #66]	; 0x42
 8005954:	e03a      	b.n	80059cc <_printf_i+0xa8>
 8005956:	f1a7 0363 	sub.w	r3, r7, #99	; 0x63
 800595a:	2b15      	cmp	r3, #21
 800595c:	d8f6      	bhi.n	800594c <_printf_i+0x28>
 800595e:	a101      	add	r1, pc, #4	; (adr r1, 8005964 <_printf_i+0x40>)
 8005960:	f851 f023 	ldr.w	pc, [r1, r3, lsl #2]
 8005964:	080059bd 	.word	0x080059bd
 8005968:	080059d1 	.word	0x080059d1
 800596c:	0800594d 	.word	0x0800594d
 8005970:	0800594d 	.word	0x0800594d
 8005974:	0800594d 	.word	0x0800594d
 8005978:	0800594d 	.word	0x0800594d
 800597c:	080059d1 	.word	0x080059d1
 8005980:	0800594d 	.word	0x0800594d
 8005984:	0800594d 	.word	0x0800594d
 8005988:	0800594d 	.word	0x0800594d
 800598c:	0800594d 	.word	0x0800594d
 8005990:	08005ad7 	.word	0x08005ad7
 8005994:	080059fd 	.word	0x080059fd
 8005998:	08005a91 	.word	0x08005a91
 800599c:	0800594d 	.word	0x0800594d
 80059a0:	0800594d 	.word	0x0800594d
 80059a4:	08005af9 	.word	0x08005af9
 80059a8:	0800594d 	.word	0x0800594d
 80059ac:	080059fd 	.word	0x080059fd
 80059b0:	0800594d 	.word	0x0800594d
 80059b4:	0800594d 	.word	0x0800594d
 80059b8:	08005a99 	.word	0x08005a99
 80059bc:	682b      	ldr	r3, [r5, #0]
 80059be:	1d1a      	adds	r2, r3, #4
 80059c0:	681b      	ldr	r3, [r3, #0]
 80059c2:	602a      	str	r2, [r5, #0]
 80059c4:	f104 0542 	add.w	r5, r4, #66	; 0x42
 80059c8:	f884 3042 	strb.w	r3, [r4, #66]	; 0x42
 80059cc:	2301      	movs	r3, #1
 80059ce:	e0a0      	b.n	8005b12 <_printf_i+0x1ee>
 80059d0:	6820      	ldr	r0, [r4, #0]
 80059d2:	682b      	ldr	r3, [r5, #0]
 80059d4:	0607      	lsls	r7, r0, #24
 80059d6:	f103 0104 	add.w	r1, r3, #4
 80059da:	6029      	str	r1, [r5, #0]
 80059dc:	d501      	bpl.n	80059e2 <_printf_i+0xbe>
 80059de:	681e      	ldr	r6, [r3, #0]
 80059e0:	e003      	b.n	80059ea <_printf_i+0xc6>
 80059e2:	0646      	lsls	r6, r0, #25
 80059e4:	d5fb      	bpl.n	80059de <_printf_i+0xba>
 80059e6:	f9b3 6000 	ldrsh.w	r6, [r3]
 80059ea:	2e00      	cmp	r6, #0
 80059ec:	da03      	bge.n	80059f6 <_printf_i+0xd2>
 80059ee:	232d      	movs	r3, #45	; 0x2d
 80059f0:	4276      	negs	r6, r6
 80059f2:	f884 3043 	strb.w	r3, [r4, #67]	; 0x43
 80059f6:	230a      	movs	r3, #10
 80059f8:	4859      	ldr	r0, [pc, #356]	; (8005b60 <_printf_i+0x23c>)
 80059fa:	e012      	b.n	8005a22 <_printf_i+0xfe>
 80059fc:	682b      	ldr	r3, [r5, #0]
 80059fe:	6820      	ldr	r0, [r4, #0]
 8005a00:	1d19      	adds	r1, r3, #4
 8005a02:	6029      	str	r1, [r5, #0]
 8005a04:	0605      	lsls	r5, r0, #24
 8005a06:	d501      	bpl.n	8005a0c <_printf_i+0xe8>
 8005a08:	681e      	ldr	r6, [r3, #0]
 8005a0a:	e002      	b.n	8005a12 <_printf_i+0xee>
 8005a0c:	0641      	lsls	r1, r0, #25
 8005a0e:	d5fb      	bpl.n	8005a08 <_printf_i+0xe4>
 8005a10:	881e      	ldrh	r6, [r3, #0]
 8005a12:	2f6f      	cmp	r7, #111	; 0x6f
 8005a14:	bf0c      	ite	eq
 8005a16:	2308      	moveq	r3, #8
 8005a18:	230a      	movne	r3, #10
 8005a1a:	4851      	ldr	r0, [pc, #324]	; (8005b60 <_printf_i+0x23c>)
 8005a1c:	2100      	movs	r1, #0
 8005a1e:	f884 1043 	strb.w	r1, [r4, #67]	; 0x43
 8005a22:	6865      	ldr	r5, [r4, #4]
 8005a24:	2d00      	cmp	r5, #0
 8005a26:	bfa8      	it	ge
 8005a28:	6821      	ldrge	r1, [r4, #0]
 8005a2a:	60a5      	str	r5, [r4, #8]
 8005a2c:	bfa4      	itt	ge
 8005a2e:	f021 0104 	bicge.w	r1, r1, #4
 8005a32:	6021      	strge	r1, [r4, #0]
 8005a34:	b90e      	cbnz	r6, 8005a3a <_printf_i+0x116>
 8005a36:	2d00      	cmp	r5, #0
 8005a38:	d04b      	beq.n	8005ad2 <_printf_i+0x1ae>
 8005a3a:	4615      	mov	r5, r2
 8005a3c:	fbb6 f1f3 	udiv	r1, r6, r3
 8005a40:	fb03 6711 	mls	r7, r3, r1, r6
 8005a44:	5dc7      	ldrb	r7, [r0, r7]
 8005a46:	f805 7d01 	strb.w	r7, [r5, #-1]!
 8005a4a:	4637      	mov	r7, r6
 8005a4c:	42bb      	cmp	r3, r7
 8005a4e:	460e      	mov	r6, r1
 8005a50:	d9f4      	bls.n	8005a3c <_printf_i+0x118>
 8005a52:	2b08      	cmp	r3, #8
 8005a54:	d10b      	bne.n	8005a6e <_printf_i+0x14a>
 8005a56:	6823      	ldr	r3, [r4, #0]
 8005a58:	07de      	lsls	r6, r3, #31
 8005a5a:	d508      	bpl.n	8005a6e <_printf_i+0x14a>
 8005a5c:	6923      	ldr	r3, [r4, #16]
 8005a5e:	6861      	ldr	r1, [r4, #4]
 8005a60:	4299      	cmp	r1, r3
 8005a62:	bfde      	ittt	le
 8005a64:	2330      	movle	r3, #48	; 0x30
 8005a66:	f805 3c01 	strble.w	r3, [r5, #-1]
 8005a6a:	f105 35ff 	addle.w	r5, r5, #4294967295
 8005a6e:	1b52      	subs	r2, r2, r5
 8005a70:	6122      	str	r2, [r4, #16]
 8005a72:	464b      	mov	r3, r9
 8005a74:	4621      	mov	r1, r4
 8005a76:	4640      	mov	r0, r8
 8005a78:	f8cd a000 	str.w	sl, [sp]
 8005a7c:	aa03      	add	r2, sp, #12
 8005a7e:	f7ff fedf 	bl	8005840 <_printf_common>
 8005a82:	3001      	adds	r0, #1
 8005a84:	d14a      	bne.n	8005b1c <_printf_i+0x1f8>
 8005a86:	f04f 30ff 	mov.w	r0, #4294967295
 8005a8a:	b004      	add	sp, #16
 8005a8c:	e8bd 87f0 	ldmia.w	sp!, {r4, r5, r6, r7, r8, r9, sl, pc}
 8005a90:	6823      	ldr	r3, [r4, #0]
 8005a92:	f043 0320 	orr.w	r3, r3, #32
 8005a96:	6023      	str	r3, [r4, #0]
 8005a98:	2778      	movs	r7, #120	; 0x78
 8005a9a:	4832      	ldr	r0, [pc, #200]	; (8005b64 <_printf_i+0x240>)
 8005a9c:	f884 7045 	strb.w	r7, [r4, #69]	; 0x45
 8005aa0:	6823      	ldr	r3, [r4, #0]
 8005aa2:	6829      	ldr	r1, [r5, #0]
 8005aa4:	061f      	lsls	r7, r3, #24
 8005aa6:	f851 6b04 	ldr.w	r6, [r1], #4
 8005aaa:	d402      	bmi.n	8005ab2 <_printf_i+0x18e>
 8005aac:	065f      	lsls	r7, r3, #25
 8005aae:	bf48      	it	mi
 8005ab0:	b2b6      	uxthmi	r6, r6
 8005ab2:	07df      	lsls	r7, r3, #31
 8005ab4:	bf48      	it	mi
 8005ab6:	f043 0320 	orrmi.w	r3, r3, #32
 8005aba:	6029      	str	r1, [r5, #0]
 8005abc:	bf48      	it	mi
 8005abe:	6023      	strmi	r3, [r4, #0]
 8005ac0:	b91e      	cbnz	r6, 8005aca <_printf_i+0x1a6>
 8005ac2:	6823      	ldr	r3, [r4, #0]
 8005ac4:	f023 0320 	bic.w	r3, r3, #32
 8005ac8:	6023      	str	r3, [r4, #0]
 8005aca:	2310      	movs	r3, #16
 8005acc:	e7a6      	b.n	8005a1c <_printf_i+0xf8>
 8005ace:	4824      	ldr	r0, [pc, #144]	; (8005b60 <_printf_i+0x23c>)
 8005ad0:	e7e4      	b.n	8005a9c <_printf_i+0x178>
 8005ad2:	4615      	mov	r5, r2
 8005ad4:	e7bd      	b.n	8005a52 <_printf_i+0x12e>
 8005ad6:	682b      	ldr	r3, [r5, #0]
 8005ad8:	6826      	ldr	r6, [r4, #0]
 8005ada:	1d18      	adds	r0, r3, #4
 8005adc:	6961      	ldr	r1, [r4, #20]
 8005ade:	6028      	str	r0, [r5, #0]
 8005ae0:	0635      	lsls	r5, r6, #24
 8005ae2:	681b      	ldr	r3, [r3, #0]
 8005ae4:	d501      	bpl.n	8005aea <_printf_i+0x1c6>
 8005ae6:	6019      	str	r1, [r3, #0]
 8005ae8:	e002      	b.n	8005af0 <_printf_i+0x1cc>
 8005aea:	0670      	lsls	r0, r6, #25
 8005aec:	d5fb      	bpl.n	8005ae6 <_printf_i+0x1c2>
 8005aee:	8019      	strh	r1, [r3, #0]
 8005af0:	2300      	movs	r3, #0
 8005af2:	4615      	mov	r5, r2
 8005af4:	6123      	str	r3, [r4, #16]
 8005af6:	e7bc      	b.n	8005a72 <_printf_i+0x14e>
 8005af8:	682b      	ldr	r3, [r5, #0]
 8005afa:	2100      	movs	r1, #0
 8005afc:	1d1a      	adds	r2, r3, #4
 8005afe:	602a      	str	r2, [r5, #0]
 8005b00:	681d      	ldr	r5, [r3, #0]
 8005b02:	6862      	ldr	r2, [r4, #4]
 8005b04:	4628      	mov	r0, r5
 8005b06:	f000 f9a1 	bl	8005e4c <memchr>
 8005b0a:	b108      	cbz	r0, 8005b10 <_printf_i+0x1ec>
 8005b0c:	1b40      	subs	r0, r0, r5
 8005b0e:	6060      	str	r0, [r4, #4]
 8005b10:	6863      	ldr	r3, [r4, #4]
 8005b12:	6123      	str	r3, [r4, #16]
 8005b14:	2300      	movs	r3, #0
 8005b16:	f884 3043 	strb.w	r3, [r4, #67]	; 0x43
 8005b1a:	e7aa      	b.n	8005a72 <_printf_i+0x14e>
 8005b1c:	462a      	mov	r2, r5
 8005b1e:	4649      	mov	r1, r9
 8005b20:	4640      	mov	r0, r8
 8005b22:	6923      	ldr	r3, [r4, #16]
 8005b24:	47d0      	blx	sl
 8005b26:	3001      	adds	r0, #1
 8005b28:	d0ad      	beq.n	8005a86 <_printf_i+0x162>
 8005b2a:	6823      	ldr	r3, [r4, #0]
 8005b2c:	079b      	lsls	r3, r3, #30
 8005b2e:	d413      	bmi.n	8005b58 <_printf_i+0x234>
 8005b30:	68e0      	ldr	r0, [r4, #12]
 8005b32:	9b03      	ldr	r3, [sp, #12]
 8005b34:	4298      	cmp	r0, r3
 8005b36:	bfb8      	it	lt
 8005b38:	4618      	movlt	r0, r3
 8005b3a:	e7a6      	b.n	8005a8a <_printf_i+0x166>
 8005b3c:	2301      	movs	r3, #1
 8005b3e:	4632      	mov	r2, r6
 8005b40:	4649      	mov	r1, r9
 8005b42:	4640      	mov	r0, r8
 8005b44:	47d0      	blx	sl
 8005b46:	3001      	adds	r0, #1
 8005b48:	d09d      	beq.n	8005a86 <_printf_i+0x162>
 8005b4a:	3501      	adds	r5, #1
 8005b4c:	68e3      	ldr	r3, [r4, #12]
 8005b4e:	9903      	ldr	r1, [sp, #12]
 8005b50:	1a5b      	subs	r3, r3, r1
 8005b52:	42ab      	cmp	r3, r5
 8005b54:	dcf2      	bgt.n	8005b3c <_printf_i+0x218>
 8005b56:	e7eb      	b.n	8005b30 <_printf_i+0x20c>
 8005b58:	2500      	movs	r5, #0
 8005b5a:	f104 0619 	add.w	r6, r4, #25
 8005b5e:	e7f5      	b.n	8005b4c <_printf_i+0x228>
 8005b60:	08007c2c 	.word	0x08007c2c
 8005b64:	08007c3d 	.word	0x08007c3d

08005b68 <std>:
 8005b68:	2300      	movs	r3, #0
 8005b6a:	b510      	push	{r4, lr}
 8005b6c:	4604      	mov	r4, r0
 8005b6e:	e9c0 3300 	strd	r3, r3, [r0]
 8005b72:	e9c0 3304 	strd	r3, r3, [r0, #16]
 8005b76:	6083      	str	r3, [r0, #8]
 8005b78:	8181      	strh	r1, [r0, #12]
 8005b7a:	6643      	str	r3, [r0, #100]	; 0x64
 8005b7c:	81c2      	strh	r2, [r0, #14]
 8005b7e:	6183      	str	r3, [r0, #24]
 8005b80:	4619      	mov	r1, r3
 8005b82:	2208      	movs	r2, #8
 8005b84:	305c      	adds	r0, #92	; 0x5c
 8005b86:	f000 f8e2 	bl	8005d4e <memset>
 8005b8a:	4b05      	ldr	r3, [pc, #20]	; (8005ba0 <std+0x38>)
 8005b8c:	6224      	str	r4, [r4, #32]
 8005b8e:	6263      	str	r3, [r4, #36]	; 0x24
 8005b90:	4b04      	ldr	r3, [pc, #16]	; (8005ba4 <std+0x3c>)
 8005b92:	62a3      	str	r3, [r4, #40]	; 0x28
 8005b94:	4b04      	ldr	r3, [pc, #16]	; (8005ba8 <std+0x40>)
 8005b96:	62e3      	str	r3, [r4, #44]	; 0x2c
 8005b98:	4b04      	ldr	r3, [pc, #16]	; (8005bac <std+0x44>)
 8005b9a:	6323      	str	r3, [r4, #48]	; 0x30
 8005b9c:	bd10      	pop	{r4, pc}
 8005b9e:	bf00      	nop
 8005ba0:	08005cc9 	.word	0x08005cc9
 8005ba4:	08005ceb 	.word	0x08005ceb
 8005ba8:	08005d23 	.word	0x08005d23
 8005bac:	08005d47 	.word	0x08005d47

08005bb0 <stdio_exit_handler>:
 8005bb0:	4a02      	ldr	r2, [pc, #8]	; (8005bbc <stdio_exit_handler+0xc>)
 8005bb2:	4903      	ldr	r1, [pc, #12]	; (8005bc0 <stdio_exit_handler+0x10>)
 8005bb4:	4803      	ldr	r0, [pc, #12]	; (8005bc4 <stdio_exit_handler+0x14>)
 8005bb6:	f000 b869 	b.w	8005c8c <_fwalk_sglue>
 8005bba:	bf00      	nop
 8005bbc:	200000b0 	.word	0x200000b0
 8005bc0:	08007535 	.word	0x08007535
 8005bc4:	200000bc 	.word	0x200000bc

08005bc8 <cleanup_stdio>:
 8005bc8:	6841      	ldr	r1, [r0, #4]
 8005bca:	4b0c      	ldr	r3, [pc, #48]	; (8005bfc <cleanup_stdio+0x34>)
 8005bcc:	b510      	push	{r4, lr}
 8005bce:	4299      	cmp	r1, r3
 8005bd0:	4604      	mov	r4, r0
 8005bd2:	d001      	beq.n	8005bd8 <cleanup_stdio+0x10>
 8005bd4:	f001 fcae 	bl	8007534 <_fflush_r>
 8005bd8:	68a1      	ldr	r1, [r4, #8]
 8005bda:	4b09      	ldr	r3, [pc, #36]	; (8005c00 <cleanup_stdio+0x38>)
 8005bdc:	4299      	cmp	r1, r3
 8005bde:	d002      	beq.n	8005be6 <cleanup_stdio+0x1e>
 8005be0:	4620      	mov	r0, r4
 8005be2:	f001 fca7 	bl	8007534 <_fflush_r>
 8005be6:	68e1      	ldr	r1, [r4, #12]
 8005be8:	4b06      	ldr	r3, [pc, #24]	; (8005c04 <cleanup_stdio+0x3c>)
 8005bea:	4299      	cmp	r1, r3
 8005bec:	d004      	beq.n	8005bf8 <cleanup_stdio+0x30>
 8005bee:	4620      	mov	r0, r4
 8005bf0:	e8bd 4010 	ldmia.w	sp!, {r4, lr}
 8005bf4:	f001 bc9e 	b.w	8007534 <_fflush_r>
 8005bf8:	bd10      	pop	{r4, pc}
 8005bfa:	bf00      	nop
 8005bfc:	200008d0 	.word	0x200008d0
 8005c00:	20000938 	.word	0x20000938
 8005c04:	200009a0 	.word	0x200009a0

08005c08 <global_stdio_init.part.0>:
 8005c08:	b510      	push	{r4, lr}
 8005c0a:	4b0b      	ldr	r3, [pc, #44]	; (8005c38 <global_stdio_init.part.0+0x30>)
 8005c0c:	4c0b      	ldr	r4, [pc, #44]	; (8005c3c <global_stdio_init.part.0+0x34>)
 8005c0e:	4a0c      	ldr	r2, [pc, #48]	; (8005c40 <global_stdio_init.part.0+0x38>)
 8005c10:	4620      	mov	r0, r4
 8005c12:	601a      	str	r2, [r3, #0]
 8005c14:	2104      	movs	r1, #4
 8005c16:	2200      	movs	r2, #0
 8005c18:	f7ff ffa6 	bl	8005b68 <std>
 8005c1c:	f104 0068 	add.w	r0, r4, #104	; 0x68
 8005c20:	2201      	movs	r2, #1
 8005c22:	2109      	movs	r1, #9
 8005c24:	f7ff ffa0 	bl	8005b68 <std>
 8005c28:	f104 00d0 	add.w	r0, r4, #208	; 0xd0
 8005c2c:	2202      	movs	r2, #2
 8005c2e:	e8bd 4010 	ldmia.w	sp!, {r4, lr}
 8005c32:	2112      	movs	r1, #18
 8005c34:	f7ff bf98 	b.w	8005b68 <std>
 8005c38:	20000a08 	.word	0x20000a08
 8005c3c:	200008d0 	.word	0x200008d0
 8005c40:	08005bb1 	.word	0x08005bb1

08005c44 <__sfp_lock_acquire>:
 8005c44:	4801      	ldr	r0, [pc, #4]	; (8005c4c <__sfp_lock_acquire+0x8>)
 8005c46:	f000 b8ff 	b.w	8005e48 <__retarget_lock_acquire_recursive>
 8005c4a:	bf00      	nop
 8005c4c:	20000a11 	.word	0x20000a11

08005c50 <__sfp_lock_release>:
 8005c50:	4801      	ldr	r0, [pc, #4]	; (8005c58 <__sfp_lock_release+0x8>)
 8005c52:	f000 b8fa 	b.w	8005e4a <__retarget_lock_release_recursive>
 8005c56:	bf00      	nop
 8005c58:	20000a11 	.word	0x20000a11

08005c5c <__sinit>:
 8005c5c:	b510      	push	{r4, lr}
 8005c5e:	4604      	mov	r4, r0
 8005c60:	f7ff fff0 	bl	8005c44 <__sfp_lock_acquire>
 8005c64:	6a23      	ldr	r3, [r4, #32]
 8005c66:	b11b      	cbz	r3, 8005c70 <__sinit+0x14>
 8005c68:	e8bd 4010 	ldmia.w	sp!, {r4, lr}
 8005c6c:	f7ff bff0 	b.w	8005c50 <__sfp_lock_release>
 8005c70:	4b04      	ldr	r3, [pc, #16]	; (8005c84 <__sinit+0x28>)
 8005c72:	6223      	str	r3, [r4, #32]
 8005c74:	4b04      	ldr	r3, [pc, #16]	; (8005c88 <__sinit+0x2c>)
 8005c76:	681b      	ldr	r3, [r3, #0]
 8005c78:	2b00      	cmp	r3, #0
 8005c7a:	d1f5      	bne.n	8005c68 <__sinit+0xc>
 8005c7c:	f7ff ffc4 	bl	8005c08 <global_stdio_init.part.0>
 8005c80:	e7f2      	b.n	8005c68 <__sinit+0xc>
 8005c82:	bf00      	nop
 8005c84:	08005bc9 	.word	0x08005bc9
 8005c88:	20000a08 	.word	0x20000a08

08005c8c <_fwalk_sglue>:
 8005c8c:	e92d 43f8 	stmdb	sp!, {r3, r4, r5, r6, r7, r8, r9, lr}
 8005c90:	4607      	mov	r7, r0
 8005c92:	4688      	mov	r8, r1
 8005c94:	4614      	mov	r4, r2
 8005c96:	2600      	movs	r6, #0
 8005c98:	e9d4 9501 	ldrd	r9, r5, [r4, #4]
 8005c9c:	f1b9 0901 	subs.w	r9, r9, #1
 8005ca0:	d505      	bpl.n	8005cae <_fwalk_sglue+0x22>
 8005ca2:	6824      	ldr	r4, [r4, #0]
 8005ca4:	2c00      	cmp	r4, #0
 8005ca6:	d1f7      	bne.n	8005c98 <_fwalk_sglue+0xc>
 8005ca8:	4630      	mov	r0, r6
 8005caa:	e8bd 83f8 	ldmia.w	sp!, {r3, r4, r5, r6, r7, r8, r9, pc}
 8005cae:	89ab      	ldrh	r3, [r5, #12]
 8005cb0:	2b01      	cmp	r3, #1
 8005cb2:	d907      	bls.n	8005cc4 <_fwalk_sglue+0x38>
 8005cb4:	f9b5 300e 	ldrsh.w	r3, [r5, #14]
 8005cb8:	3301      	adds	r3, #1
 8005cba:	d003      	beq.n	8005cc4 <_fwalk_sglue+0x38>
 8005cbc:	4629      	mov	r1, r5
 8005cbe:	4638      	mov	r0, r7
 8005cc0:	47c0      	blx	r8
 8005cc2:	4306      	orrs	r6, r0
 8005cc4:	3568      	adds	r5, #104	; 0x68
 8005cc6:	e7e9      	b.n	8005c9c <_fwalk_sglue+0x10>

08005cc8 <__sread>:
 8005cc8:	b510      	push	{r4, lr}
 8005cca:	460c      	mov	r4, r1
 8005ccc:	f9b1 100e 	ldrsh.w	r1, [r1, #14]
 8005cd0:	f000 f86c 	bl	8005dac <_read_r>
 8005cd4:	2800      	cmp	r0, #0
 8005cd6:	bfab      	itete	ge
 8005cd8:	6d63      	ldrge	r3, [r4, #84]	; 0x54
 8005cda:	89a3      	ldrhlt	r3, [r4, #12]
 8005cdc:	181b      	addge	r3, r3, r0
 8005cde:	f423 5380 	biclt.w	r3, r3, #4096	; 0x1000
 8005ce2:	bfac      	ite	ge
 8005ce4:	6563      	strge	r3, [r4, #84]	; 0x54
 8005ce6:	81a3      	strhlt	r3, [r4, #12]
 8005ce8:	bd10      	pop	{r4, pc}

08005cea <__swrite>:
 8005cea:	e92d 41f0 	stmdb	sp!, {r4, r5, r6, r7, r8, lr}
 8005cee:	461f      	mov	r7, r3
 8005cf0:	898b      	ldrh	r3, [r1, #12]
 8005cf2:	4605      	mov	r5, r0
 8005cf4:	05db      	lsls	r3, r3, #23
 8005cf6:	460c      	mov	r4, r1
 8005cf8:	4616      	mov	r6, r2
 8005cfa:	d505      	bpl.n	8005d08 <__swrite+0x1e>
 8005cfc:	2302      	movs	r3, #2
 8005cfe:	2200      	movs	r2, #0
 8005d00:	f9b1 100e 	ldrsh.w	r1, [r1, #14]
 8005d04:	f000 f840 	bl	8005d88 <_lseek_r>
 8005d08:	89a3      	ldrh	r3, [r4, #12]
 8005d0a:	4632      	mov	r2, r6
 8005d0c:	f423 5380 	bic.w	r3, r3, #4096	; 0x1000
 8005d10:	81a3      	strh	r3, [r4, #12]
 8005d12:	4628      	mov	r0, r5
 8005d14:	463b      	mov	r3, r7
 8005d16:	f9b4 100e 	ldrsh.w	r1, [r4, #14]
 8005d1a:	e8bd 41f0 	ldmia.w	sp!, {r4, r5, r6, r7, r8, lr}
 8005d1e:	f000 b857 	b.w	8005dd0 <_write_r>

08005d22 <__sseek>:
 8005d22:	b510      	push	{r4, lr}
 8005d24:	460c      	mov	r4, r1
 8005d26:	f9b1 100e 	ldrsh.w	r1, [r1, #14]
 8005d2a:	f000 f82d 	bl	8005d88 <_lseek_r>
 8005d2e:	1c43      	adds	r3, r0, #1
 8005d30:	89a3      	ldrh	r3, [r4, #12]
 8005d32:	bf15      	itete	ne
 8005d34:	6560      	strne	r0, [r4, #84]	; 0x54
 8005d36:	f423 5380 	biceq.w	r3, r3, #4096	; 0x1000
 8005d3a:	f443 5380 	orrne.w	r3, r3, #4096	; 0x1000
 8005d3e:	81a3      	strheq	r3, [r4, #12]
 8005d40:	bf18      	it	ne
 8005d42:	81a3      	strhne	r3, [r4, #12]
 8005d44:	bd10      	pop	{r4, pc}

08005d46 <__sclose>:
 8005d46:	f9b1 100e 	ldrsh.w	r1, [r1, #14]
 8005d4a:	f000 b80d 	b.w	8005d68 <_close_r>

08005d4e <memset>:
 8005d4e:	4603      	mov	r3, r0
 8005d50:	4402      	add	r2, r0
 8005d52:	4293      	cmp	r3, r2
 8005d54:	d100      	bne.n	8005d58 <memset+0xa>
 8005d56:	4770      	bx	lr
 8005d58:	f803 1b01 	strb.w	r1, [r3], #1
 8005d5c:	e7f9      	b.n	8005d52 <memset+0x4>
	...

08005d60 <_localeconv_r>:
 8005d60:	4800      	ldr	r0, [pc, #0]	; (8005d64 <_localeconv_r+0x4>)
 8005d62:	4770      	bx	lr
 8005d64:	200001fc 	.word	0x200001fc

08005d68 <_close_r>:
 8005d68:	b538      	push	{r3, r4, r5, lr}
 8005d6a:	2300      	movs	r3, #0
 8005d6c:	4d05      	ldr	r5, [pc, #20]	; (8005d84 <_close_r+0x1c>)
 8005d6e:	4604      	mov	r4, r0
 8005d70:	4608      	mov	r0, r1
 8005d72:	602b      	str	r3, [r5, #0]
 8005d74:	f7fb fc03 	bl	800157e <_close>
 8005d78:	1c43      	adds	r3, r0, #1
 8005d7a:	d102      	bne.n	8005d82 <_close_r+0x1a>
 8005d7c:	682b      	ldr	r3, [r5, #0]
 8005d7e:	b103      	cbz	r3, 8005d82 <_close_r+0x1a>
 8005d80:	6023      	str	r3, [r4, #0]
 8005d82:	bd38      	pop	{r3, r4, r5, pc}
 8005d84:	20000a0c 	.word	0x20000a0c

08005d88 <_lseek_r>:
 8005d88:	b538      	push	{r3, r4, r5, lr}
 8005d8a:	4604      	mov	r4, r0
 8005d8c:	4608      	mov	r0, r1
 8005d8e:	4611      	mov	r1, r2
 8005d90:	2200      	movs	r2, #0
 8005d92:	4d05      	ldr	r5, [pc, #20]	; (8005da8 <_lseek_r+0x20>)
 8005d94:	602a      	str	r2, [r5, #0]
 8005d96:	461a      	mov	r2, r3
 8005d98:	f7fb fbfb 	bl	8001592 <_lseek>
 8005d9c:	1c43      	adds	r3, r0, #1
 8005d9e:	d102      	bne.n	8005da6 <_lseek_r+0x1e>
 8005da0:	682b      	ldr	r3, [r5, #0]
 8005da2:	b103      	cbz	r3, 8005da6 <_lseek_r+0x1e>
 8005da4:	6023      	str	r3, [r4, #0]
 8005da6:	bd38      	pop	{r3, r4, r5, pc}
 8005da8:	20000a0c 	.word	0x20000a0c

08005dac <_read_r>:
 8005dac:	b538      	push	{r3, r4, r5, lr}
 8005dae:	4604      	mov	r4, r0
 8005db0:	4608      	mov	r0, r1
 8005db2:	4611      	mov	r1, r2
 8005db4:	2200      	movs	r2, #0
 8005db6:	4d05      	ldr	r5, [pc, #20]	; (8005dcc <_read_r+0x20>)
 8005db8:	602a      	str	r2, [r5, #0]
 8005dba:	461a      	mov	r2, r3
 8005dbc:	f7fb fbc3 	bl	8001546 <_read>
 8005dc0:	1c43      	adds	r3, r0, #1
 8005dc2:	d102      	bne.n	8005dca <_read_r+0x1e>
 8005dc4:	682b      	ldr	r3, [r5, #0]
 8005dc6:	b103      	cbz	r3, 8005dca <_read_r+0x1e>
 8005dc8:	6023      	str	r3, [r4, #0]
 8005dca:	bd38      	pop	{r3, r4, r5, pc}
 8005dcc:	20000a0c 	.word	0x20000a0c

08005dd0 <_write_r>:
 8005dd0:	b538      	push	{r3, r4, r5, lr}
 8005dd2:	4604      	mov	r4, r0
 8005dd4:	4608      	mov	r0, r1
 8005dd6:	4611      	mov	r1, r2
 8005dd8:	2200      	movs	r2, #0
 8005dda:	4d05      	ldr	r5, [pc, #20]	; (8005df0 <_write_r+0x20>)
 8005ddc:	602a      	str	r2, [r5, #0]
 8005dde:	461a      	mov	r2, r3
 8005de0:	f7fb fbbf 	bl	8001562 <_write>
 8005de4:	1c43      	adds	r3, r0, #1
 8005de6:	d102      	bne.n	8005dee <_write_r+0x1e>
 8005de8:	682b      	ldr	r3, [r5, #0]
 8005dea:	b103      	cbz	r3, 8005dee <_write_r+0x1e>
 8005dec:	6023      	str	r3, [r4, #0]
 8005dee:	bd38      	pop	{r3, r4, r5, pc}
 8005df0:	20000a0c 	.word	0x20000a0c

08005df4 <__errno>:
 8005df4:	4b01      	ldr	r3, [pc, #4]	; (8005dfc <__errno+0x8>)
 8005df6:	6818      	ldr	r0, [r3, #0]
 8005df8:	4770      	bx	lr
 8005dfa:	bf00      	nop
 8005dfc:	20000108 	.word	0x20000108

08005e00 <__libc_init_array>:
 8005e00:	b570      	push	{r4, r5, r6, lr}
 8005e02:	2600      	movs	r6, #0
 8005e04:	4d0c      	ldr	r5, [pc, #48]	; (8005e38 <__libc_init_array+0x38>)
 8005e06:	4c0d      	ldr	r4, [pc, #52]	; (8005e3c <__libc_init_array+0x3c>)
 8005e08:	1b64      	subs	r4, r4, r5
 8005e0a:	10a4      	asrs	r4, r4, #2
 8005e0c:	42a6      	cmp	r6, r4
 8005e0e:	d109      	bne.n	8005e24 <__libc_init_array+0x24>
 8005e10:	f001 fee0 	bl	8007bd4 <_init>
 8005e14:	2600      	movs	r6, #0
 8005e16:	4d0a      	ldr	r5, [pc, #40]	; (8005e40 <__libc_init_array+0x40>)
 8005e18:	4c0a      	ldr	r4, [pc, #40]	; (8005e44 <__libc_init_array+0x44>)
 8005e1a:	1b64      	subs	r4, r4, r5
 8005e1c:	10a4      	asrs	r4, r4, #2
 8005e1e:	42a6      	cmp	r6, r4
 8005e20:	d105      	bne.n	8005e2e <__libc_init_array+0x2e>
 8005e22:	bd70      	pop	{r4, r5, r6, pc}
 8005e24:	f855 3b04 	ldr.w	r3, [r5], #4
 8005e28:	4798      	blx	r3
 8005e2a:	3601      	adds	r6, #1
 8005e2c:	e7ee      	b.n	8005e0c <__libc_init_array+0xc>
 8005e2e:	f855 3b04 	ldr.w	r3, [r5], #4
 8005e32:	4798      	blx	r3
 8005e34:	3601      	adds	r6, #1
 8005e36:	e7f2      	b.n	8005e1e <__libc_init_array+0x1e>
 8005e38:	08007f8c 	.word	0x08007f8c
 8005e3c:	08007f8c 	.word	0x08007f8c
 8005e40:	08007f8c 	.word	0x08007f8c
 8005e44:	08007f90 	.word	0x08007f90

08005e48 <__retarget_lock_acquire_recursive>:
 8005e48:	4770      	bx	lr

08005e4a <__retarget_lock_release_recursive>:
 8005e4a:	4770      	bx	lr

08005e4c <memchr>:
 8005e4c:	4603      	mov	r3, r0
 8005e4e:	b510      	push	{r4, lr}
 8005e50:	b2c9      	uxtb	r1, r1
 8005e52:	4402      	add	r2, r0
 8005e54:	4293      	cmp	r3, r2
 8005e56:	4618      	mov	r0, r3
 8005e58:	d101      	bne.n	8005e5e <memchr+0x12>
 8005e5a:	2000      	movs	r0, #0
 8005e5c:	e003      	b.n	8005e66 <memchr+0x1a>
 8005e5e:	7804      	ldrb	r4, [r0, #0]
 8005e60:	3301      	adds	r3, #1
 8005e62:	428c      	cmp	r4, r1
 8005e64:	d1f6      	bne.n	8005e54 <memchr+0x8>
 8005e66:	bd10      	pop	{r4, pc}

08005e68 <quorem>:
 8005e68:	e92d 4ff7 	stmdb	sp!, {r0, r1, r2, r4, r5, r6, r7, r8, r9, sl, fp, lr}
 8005e6c:	6903      	ldr	r3, [r0, #16]
 8005e6e:	690c      	ldr	r4, [r1, #16]
 8005e70:	4607      	mov	r7, r0
 8005e72:	42a3      	cmp	r3, r4
 8005e74:	db7f      	blt.n	8005f76 <quorem+0x10e>
 8005e76:	3c01      	subs	r4, #1
 8005e78:	f100 0514 	add.w	r5, r0, #20
 8005e7c:	f101 0814 	add.w	r8, r1, #20
 8005e80:	eb05 0384 	add.w	r3, r5, r4, lsl #2
 8005e84:	9301      	str	r3, [sp, #4]
 8005e86:	f858 3024 	ldr.w	r3, [r8, r4, lsl #2]
 8005e8a:	f855 2024 	ldr.w	r2, [r5, r4, lsl #2]
 8005e8e:	3301      	adds	r3, #1
 8005e90:	429a      	cmp	r2, r3
 8005e92:	fbb2 f6f3 	udiv	r6, r2, r3
 8005e96:	ea4f 0b84 	mov.w	fp, r4, lsl #2
 8005e9a:	eb08 0984 	add.w	r9, r8, r4, lsl #2
 8005e9e:	d331      	bcc.n	8005f04 <quorem+0x9c>
 8005ea0:	f04f 0e00 	mov.w	lr, #0
 8005ea4:	4640      	mov	r0, r8
 8005ea6:	46ac      	mov	ip, r5
 8005ea8:	46f2      	mov	sl, lr
 8005eaa:	f850 2b04 	ldr.w	r2, [r0], #4
 8005eae:	b293      	uxth	r3, r2
 8005eb0:	fb06 e303 	mla	r3, r6, r3, lr
 8005eb4:	ea4f 4e12 	mov.w	lr, r2, lsr #16
 8005eb8:	0c1a      	lsrs	r2, r3, #16
 8005eba:	b29b      	uxth	r3, r3
 8005ebc:	fb06 220e 	mla	r2, r6, lr, r2
 8005ec0:	ebaa 0303 	sub.w	r3, sl, r3
 8005ec4:	f8dc a000 	ldr.w	sl, [ip]
 8005ec8:	ea4f 4e12 	mov.w	lr, r2, lsr #16
 8005ecc:	fa1f fa8a 	uxth.w	sl, sl
 8005ed0:	4453      	add	r3, sl
 8005ed2:	f8dc a000 	ldr.w	sl, [ip]
 8005ed6:	b292      	uxth	r2, r2
 8005ed8:	ebc2 421a 	rsb	r2, r2, sl, lsr #16
 8005edc:	eb02 4223 	add.w	r2, r2, r3, asr #16
 8005ee0:	b29b      	uxth	r3, r3
 8005ee2:	ea43 4302 	orr.w	r3, r3, r2, lsl #16
 8005ee6:	4581      	cmp	r9, r0
 8005ee8:	ea4f 4a22 	mov.w	sl, r2, asr #16
 8005eec:	f84c 3b04 	str.w	r3, [ip], #4
 8005ef0:	d2db      	bcs.n	8005eaa <quorem+0x42>
 8005ef2:	f855 300b 	ldr.w	r3, [r5, fp]
 8005ef6:	b92b      	cbnz	r3, 8005f04 <quorem+0x9c>
 8005ef8:	9b01      	ldr	r3, [sp, #4]
 8005efa:	3b04      	subs	r3, #4
 8005efc:	429d      	cmp	r5, r3
 8005efe:	461a      	mov	r2, r3
 8005f00:	d32d      	bcc.n	8005f5e <quorem+0xf6>
 8005f02:	613c      	str	r4, [r7, #16]
 8005f04:	4638      	mov	r0, r7
 8005f06:	f001 f995 	bl	8007234 <__mcmp>
 8005f0a:	2800      	cmp	r0, #0
 8005f0c:	db23      	blt.n	8005f56 <quorem+0xee>
 8005f0e:	4629      	mov	r1, r5
 8005f10:	2000      	movs	r0, #0
 8005f12:	3601      	adds	r6, #1
 8005f14:	f858 2b04 	ldr.w	r2, [r8], #4
 8005f18:	f8d1 c000 	ldr.w	ip, [r1]
 8005f1c:	b293      	uxth	r3, r2
 8005f1e:	1ac3      	subs	r3, r0, r3
 8005f20:	0c12      	lsrs	r2, r2, #16
 8005f22:	fa1f f08c 	uxth.w	r0, ip
 8005f26:	4403      	add	r3, r0
 8005f28:	ebc2 421c 	rsb	r2, r2, ip, lsr #16
 8005f2c:	eb02 4223 	add.w	r2, r2, r3, asr #16
 8005f30:	b29b      	uxth	r3, r3
 8005f32:	ea43 4302 	orr.w	r3, r3, r2, lsl #16
 8005f36:	45c1      	cmp	r9, r8
 8005f38:	ea4f 4022 	mov.w	r0, r2, asr #16
 8005f3c:	f841 3b04 	str.w	r3, [r1], #4
 8005f40:	d2e8      	bcs.n	8005f14 <quorem+0xac>
 8005f42:	f855 2024 	ldr.w	r2, [r5, r4, lsl #2]
 8005f46:	eb05 0384 	add.w	r3, r5, r4, lsl #2
 8005f4a:	b922      	cbnz	r2, 8005f56 <quorem+0xee>
 8005f4c:	3b04      	subs	r3, #4
 8005f4e:	429d      	cmp	r5, r3
 8005f50:	461a      	mov	r2, r3
 8005f52:	d30a      	bcc.n	8005f6a <quorem+0x102>
 8005f54:	613c      	str	r4, [r7, #16]
 8005f56:	4630      	mov	r0, r6
 8005f58:	b003      	add	sp, #12
 8005f5a:	e8bd 8ff0 	ldmia.w	sp!, {r4, r5, r6, r7, r8, r9, sl, fp, pc}
 8005f5e:	6812      	ldr	r2, [r2, #0]
 8005f60:	3b04      	subs	r3, #4
 8005f62:	2a00      	cmp	r2, #0
 8005f64:	d1cd      	bne.n	8005f02 <quorem+0x9a>
 8005f66:	3c01      	subs	r4, #1
 8005f68:	e7c8      	b.n	8005efc <quorem+0x94>
 8005f6a:	6812      	ldr	r2, [r2, #0]
 8005f6c:	3b04      	subs	r3, #4
 8005f6e:	2a00      	cmp	r2, #0
 8005f70:	d1f0      	bne.n	8005f54 <quorem+0xec>
 8005f72:	3c01      	subs	r4, #1
 8005f74:	e7eb      	b.n	8005f4e <quorem+0xe6>
 8005f76:	2000      	movs	r0, #0
 8005f78:	e7ee      	b.n	8005f58 <quorem+0xf0>
 8005f7a:	0000      	movs	r0, r0
 8005f7c:	0000      	movs	r0, r0
	...

08005f80 <_dtoa_r>:
 8005f80:	e92d 4ff0 	stmdb	sp!, {r4, r5, r6, r7, r8, r9, sl, fp, lr}
 8005f84:	4616      	mov	r6, r2
 8005f86:	461f      	mov	r7, r3
 8005f88:	69c4      	ldr	r4, [r0, #28]
 8005f8a:	b099      	sub	sp, #100	; 0x64
 8005f8c:	4605      	mov	r5, r0
 8005f8e:	e9cd 6704 	strd	r6, r7, [sp, #16]
 8005f92:	f8dd 8094 	ldr.w	r8, [sp, #148]	; 0x94
 8005f96:	b974      	cbnz	r4, 8005fb6 <_dtoa_r+0x36>
 8005f98:	2010      	movs	r0, #16
 8005f9a:	f000 fe1d 	bl	8006bd8 <malloc>
 8005f9e:	4602      	mov	r2, r0
 8005fa0:	61e8      	str	r0, [r5, #28]
 8005fa2:	b920      	cbnz	r0, 8005fae <_dtoa_r+0x2e>
 8005fa4:	21ef      	movs	r1, #239	; 0xef
 8005fa6:	4bac      	ldr	r3, [pc, #688]	; (8006258 <_dtoa_r+0x2d8>)
 8005fa8:	48ac      	ldr	r0, [pc, #688]	; (800625c <_dtoa_r+0x2dc>)
 8005faa:	f001 fb09 	bl	80075c0 <__assert_func>
 8005fae:	e9c0 4401 	strd	r4, r4, [r0, #4]
 8005fb2:	6004      	str	r4, [r0, #0]
 8005fb4:	60c4      	str	r4, [r0, #12]
 8005fb6:	69eb      	ldr	r3, [r5, #28]
 8005fb8:	6819      	ldr	r1, [r3, #0]
 8005fba:	b151      	cbz	r1, 8005fd2 <_dtoa_r+0x52>
 8005fbc:	685a      	ldr	r2, [r3, #4]
 8005fbe:	2301      	movs	r3, #1
 8005fc0:	4093      	lsls	r3, r2
 8005fc2:	604a      	str	r2, [r1, #4]
 8005fc4:	608b      	str	r3, [r1, #8]
 8005fc6:	4628      	mov	r0, r5
 8005fc8:	f000 fefa 	bl	8006dc0 <_Bfree>
 8005fcc:	2200      	movs	r2, #0
 8005fce:	69eb      	ldr	r3, [r5, #28]
 8005fd0:	601a      	str	r2, [r3, #0]
 8005fd2:	1e3b      	subs	r3, r7, #0
 8005fd4:	bfaf      	iteee	ge
 8005fd6:	2300      	movge	r3, #0
 8005fd8:	2201      	movlt	r2, #1
 8005fda:	f023 4300 	biclt.w	r3, r3, #2147483648	; 0x80000000
 8005fde:	9305      	strlt	r3, [sp, #20]
 8005fe0:	bfa8      	it	ge
 8005fe2:	f8c8 3000 	strge.w	r3, [r8]
 8005fe6:	f8dd 9014 	ldr.w	r9, [sp, #20]
 8005fea:	4b9d      	ldr	r3, [pc, #628]	; (8006260 <_dtoa_r+0x2e0>)
 8005fec:	bfb8      	it	lt
 8005fee:	f8c8 2000 	strlt.w	r2, [r8]
 8005ff2:	ea33 0309 	bics.w	r3, r3, r9
 8005ff6:	d119      	bne.n	800602c <_dtoa_r+0xac>
 8005ff8:	f242 730f 	movw	r3, #9999	; 0x270f
 8005ffc:	9a24      	ldr	r2, [sp, #144]	; 0x90
 8005ffe:	6013      	str	r3, [r2, #0]
 8006000:	f3c9 0313 	ubfx	r3, r9, #0, #20
 8006004:	4333      	orrs	r3, r6
 8006006:	f000 8589 	beq.w	8006b1c <_dtoa_r+0xb9c>
 800600a:	9b26      	ldr	r3, [sp, #152]	; 0x98
 800600c:	b953      	cbnz	r3, 8006024 <_dtoa_r+0xa4>
 800600e:	4b95      	ldr	r3, [pc, #596]	; (8006264 <_dtoa_r+0x2e4>)
 8006010:	e023      	b.n	800605a <_dtoa_r+0xda>
 8006012:	4b95      	ldr	r3, [pc, #596]	; (8006268 <_dtoa_r+0x2e8>)
 8006014:	9303      	str	r3, [sp, #12]
 8006016:	3308      	adds	r3, #8
 8006018:	9a26      	ldr	r2, [sp, #152]	; 0x98
 800601a:	6013      	str	r3, [r2, #0]
 800601c:	9803      	ldr	r0, [sp, #12]
 800601e:	b019      	add	sp, #100	; 0x64
 8006020:	e8bd 8ff0 	ldmia.w	sp!, {r4, r5, r6, r7, r8, r9, sl, fp, pc}
 8006024:	4b8f      	ldr	r3, [pc, #572]	; (8006264 <_dtoa_r+0x2e4>)
 8006026:	9303      	str	r3, [sp, #12]
 8006028:	3303      	adds	r3, #3
 800602a:	e7f5      	b.n	8006018 <_dtoa_r+0x98>
 800602c:	e9dd 3404 	ldrd	r3, r4, [sp, #16]
 8006030:	e9cd 340c 	strd	r3, r4, [sp, #48]	; 0x30
 8006034:	e9dd 010c 	ldrd	r0, r1, [sp, #48]	; 0x30
 8006038:	2200      	movs	r2, #0
 800603a:	2300      	movs	r3, #0
 800603c:	f7fa fcb4 	bl	80009a8 <__aeabi_dcmpeq>
 8006040:	4680      	mov	r8, r0
 8006042:	b160      	cbz	r0, 800605e <_dtoa_r+0xde>
 8006044:	2301      	movs	r3, #1
 8006046:	9a24      	ldr	r2, [sp, #144]	; 0x90
 8006048:	6013      	str	r3, [r2, #0]
 800604a:	9b26      	ldr	r3, [sp, #152]	; 0x98
 800604c:	2b00      	cmp	r3, #0
 800604e:	f000 8562 	beq.w	8006b16 <_dtoa_r+0xb96>
 8006052:	4b86      	ldr	r3, [pc, #536]	; (800626c <_dtoa_r+0x2ec>)
 8006054:	9a26      	ldr	r2, [sp, #152]	; 0x98
 8006056:	6013      	str	r3, [r2, #0]
 8006058:	3b01      	subs	r3, #1
 800605a:	9303      	str	r3, [sp, #12]
 800605c:	e7de      	b.n	800601c <_dtoa_r+0x9c>
 800605e:	ab16      	add	r3, sp, #88	; 0x58
 8006060:	9301      	str	r3, [sp, #4]
 8006062:	ab17      	add	r3, sp, #92	; 0x5c
 8006064:	9300      	str	r3, [sp, #0]
 8006066:	4628      	mov	r0, r5
 8006068:	e9dd 230c 	ldrd	r2, r3, [sp, #48]	; 0x30
 800606c:	f001 f98a 	bl	8007384 <__d2b>
 8006070:	f3c9 540a 	ubfx	r4, r9, #20, #11
 8006074:	4682      	mov	sl, r0
 8006076:	2c00      	cmp	r4, #0
 8006078:	d07e      	beq.n	8006178 <_dtoa_r+0x1f8>
 800607a:	e9dd 010c 	ldrd	r0, r1, [sp, #48]	; 0x30
 800607e:	9b0d      	ldr	r3, [sp, #52]	; 0x34
 8006080:	f2a4 34ff 	subw	r4, r4, #1023	; 0x3ff
 8006084:	f3c3 0313 	ubfx	r3, r3, #0, #20
 8006088:	f043 537f 	orr.w	r3, r3, #1069547520	; 0x3fc00000
 800608c:	f443 1340 	orr.w	r3, r3, #3145728	; 0x300000
 8006090:	f8cd 804c 	str.w	r8, [sp, #76]	; 0x4c
 8006094:	4619      	mov	r1, r3
 8006096:	2200      	movs	r2, #0
 8006098:	4b75      	ldr	r3, [pc, #468]	; (8006270 <_dtoa_r+0x2f0>)
 800609a:	f7fa f865 	bl	8000168 <__aeabi_dsub>
 800609e:	a368      	add	r3, pc, #416	; (adr r3, 8006240 <_dtoa_r+0x2c0>)
 80060a0:	e9d3 2300 	ldrd	r2, r3, [r3]
 80060a4:	f7fa fa18 	bl	80004d8 <__aeabi_dmul>
 80060a8:	a367      	add	r3, pc, #412	; (adr r3, 8006248 <_dtoa_r+0x2c8>)
 80060aa:	e9d3 2300 	ldrd	r2, r3, [r3]
 80060ae:	f7fa f85d 	bl	800016c <__adddf3>
 80060b2:	4606      	mov	r6, r0
 80060b4:	4620      	mov	r0, r4
 80060b6:	460f      	mov	r7, r1
 80060b8:	f7fa f9a4 	bl	8000404 <__aeabi_i2d>
 80060bc:	a364      	add	r3, pc, #400	; (adr r3, 8006250 <_dtoa_r+0x2d0>)
 80060be:	e9d3 2300 	ldrd	r2, r3, [r3]
 80060c2:	f7fa fa09 	bl	80004d8 <__aeabi_dmul>
 80060c6:	4602      	mov	r2, r0
 80060c8:	460b      	mov	r3, r1
 80060ca:	4630      	mov	r0, r6
 80060cc:	4639      	mov	r1, r7
 80060ce:	f7fa f84d 	bl	800016c <__adddf3>
 80060d2:	4606      	mov	r6, r0
 80060d4:	460f      	mov	r7, r1
 80060d6:	f7fa fcaf 	bl	8000a38 <__aeabi_d2iz>
 80060da:	2200      	movs	r2, #0
 80060dc:	4683      	mov	fp, r0
 80060de:	2300      	movs	r3, #0
 80060e0:	4630      	mov	r0, r6
 80060e2:	4639      	mov	r1, r7
 80060e4:	f7fa fc6a 	bl	80009bc <__aeabi_dcmplt>
 80060e8:	b148      	cbz	r0, 80060fe <_dtoa_r+0x17e>
 80060ea:	4658      	mov	r0, fp
 80060ec:	f7fa f98a 	bl	8000404 <__aeabi_i2d>
 80060f0:	4632      	mov	r2, r6
 80060f2:	463b      	mov	r3, r7
 80060f4:	f7fa fc58 	bl	80009a8 <__aeabi_dcmpeq>
 80060f8:	b908      	cbnz	r0, 80060fe <_dtoa_r+0x17e>
 80060fa:	f10b 3bff 	add.w	fp, fp, #4294967295
 80060fe:	f1bb 0f16 	cmp.w	fp, #22
 8006102:	d857      	bhi.n	80061b4 <_dtoa_r+0x234>
 8006104:	e9dd 010c 	ldrd	r0, r1, [sp, #48]	; 0x30
 8006108:	4b5a      	ldr	r3, [pc, #360]	; (8006274 <_dtoa_r+0x2f4>)
 800610a:	eb03 03cb 	add.w	r3, r3, fp, lsl #3
 800610e:	e9d3 2300 	ldrd	r2, r3, [r3]
 8006112:	f7fa fc53 	bl	80009bc <__aeabi_dcmplt>
 8006116:	2800      	cmp	r0, #0
 8006118:	d04e      	beq.n	80061b8 <_dtoa_r+0x238>
 800611a:	2300      	movs	r3, #0
 800611c:	f10b 3bff 	add.w	fp, fp, #4294967295
 8006120:	930f      	str	r3, [sp, #60]	; 0x3c
 8006122:	9b16      	ldr	r3, [sp, #88]	; 0x58
 8006124:	1b1b      	subs	r3, r3, r4
 8006126:	1e5a      	subs	r2, r3, #1
 8006128:	bf46      	itte	mi
 800612a:	f1c3 0901 	rsbmi	r9, r3, #1
 800612e:	2300      	movmi	r3, #0
 8006130:	f04f 0900 	movpl.w	r9, #0
 8006134:	9209      	str	r2, [sp, #36]	; 0x24
 8006136:	bf48      	it	mi
 8006138:	9309      	strmi	r3, [sp, #36]	; 0x24
 800613a:	f1bb 0f00 	cmp.w	fp, #0
 800613e:	db3d      	blt.n	80061bc <_dtoa_r+0x23c>
 8006140:	9b09      	ldr	r3, [sp, #36]	; 0x24
 8006142:	f8cd b038 	str.w	fp, [sp, #56]	; 0x38
 8006146:	445b      	add	r3, fp
 8006148:	9309      	str	r3, [sp, #36]	; 0x24
 800614a:	2300      	movs	r3, #0
 800614c:	930a      	str	r3, [sp, #40]	; 0x28
 800614e:	9b22      	ldr	r3, [sp, #136]	; 0x88
 8006150:	2b09      	cmp	r3, #9
 8006152:	d867      	bhi.n	8006224 <_dtoa_r+0x2a4>
 8006154:	2b05      	cmp	r3, #5
 8006156:	bfc4      	itt	gt
 8006158:	3b04      	subgt	r3, #4
 800615a:	9322      	strgt	r3, [sp, #136]	; 0x88
 800615c:	9b22      	ldr	r3, [sp, #136]	; 0x88
 800615e:	bfc8      	it	gt
 8006160:	2400      	movgt	r4, #0
 8006162:	f1a3 0302 	sub.w	r3, r3, #2
 8006166:	bfd8      	it	le
 8006168:	2401      	movle	r4, #1
 800616a:	2b03      	cmp	r3, #3
 800616c:	f200 8086 	bhi.w	800627c <_dtoa_r+0x2fc>
 8006170:	e8df f003 	tbb	[pc, r3]
 8006174:	5637392c 	.word	0x5637392c
 8006178:	e9dd 4316 	ldrd	r4, r3, [sp, #88]	; 0x58
 800617c:	441c      	add	r4, r3
 800617e:	f204 4332 	addw	r3, r4, #1074	; 0x432
 8006182:	2b20      	cmp	r3, #32
 8006184:	bfc1      	itttt	gt
 8006186:	f1c3 0340 	rsbgt	r3, r3, #64	; 0x40
 800618a:	fa09 f903 	lslgt.w	r9, r9, r3
 800618e:	f204 4312 	addwgt	r3, r4, #1042	; 0x412
 8006192:	fa26 f303 	lsrgt.w	r3, r6, r3
 8006196:	bfd6      	itet	le
 8006198:	f1c3 0320 	rsble	r3, r3, #32
 800619c:	ea49 0003 	orrgt.w	r0, r9, r3
 80061a0:	fa06 f003 	lslle.w	r0, r6, r3
 80061a4:	f7fa f91e 	bl	80003e4 <__aeabi_ui2d>
 80061a8:	2201      	movs	r2, #1
 80061aa:	f1a1 73f8 	sub.w	r3, r1, #32505856	; 0x1f00000
 80061ae:	3c01      	subs	r4, #1
 80061b0:	9213      	str	r2, [sp, #76]	; 0x4c
 80061b2:	e76f      	b.n	8006094 <_dtoa_r+0x114>
 80061b4:	2301      	movs	r3, #1
 80061b6:	e7b3      	b.n	8006120 <_dtoa_r+0x1a0>
 80061b8:	900f      	str	r0, [sp, #60]	; 0x3c
 80061ba:	e7b2      	b.n	8006122 <_dtoa_r+0x1a2>
 80061bc:	f1cb 0300 	rsb	r3, fp, #0
 80061c0:	930a      	str	r3, [sp, #40]	; 0x28
 80061c2:	2300      	movs	r3, #0
 80061c4:	eba9 090b 	sub.w	r9, r9, fp
 80061c8:	930e      	str	r3, [sp, #56]	; 0x38
 80061ca:	e7c0      	b.n	800614e <_dtoa_r+0x1ce>
 80061cc:	2300      	movs	r3, #0
 80061ce:	930b      	str	r3, [sp, #44]	; 0x2c
 80061d0:	9b23      	ldr	r3, [sp, #140]	; 0x8c
 80061d2:	2b00      	cmp	r3, #0
 80061d4:	dc55      	bgt.n	8006282 <_dtoa_r+0x302>
 80061d6:	2301      	movs	r3, #1
 80061d8:	461a      	mov	r2, r3
 80061da:	9306      	str	r3, [sp, #24]
 80061dc:	9308      	str	r3, [sp, #32]
 80061de:	9223      	str	r2, [sp, #140]	; 0x8c
 80061e0:	e00b      	b.n	80061fa <_dtoa_r+0x27a>
 80061e2:	2301      	movs	r3, #1
 80061e4:	e7f3      	b.n	80061ce <_dtoa_r+0x24e>
 80061e6:	2300      	movs	r3, #0
 80061e8:	930b      	str	r3, [sp, #44]	; 0x2c
 80061ea:	9b23      	ldr	r3, [sp, #140]	; 0x8c
 80061ec:	445b      	add	r3, fp
 80061ee:	9306      	str	r3, [sp, #24]
 80061f0:	3301      	adds	r3, #1
 80061f2:	2b01      	cmp	r3, #1
 80061f4:	9308      	str	r3, [sp, #32]
 80061f6:	bfb8      	it	lt
 80061f8:	2301      	movlt	r3, #1
 80061fa:	2100      	movs	r1, #0
 80061fc:	2204      	movs	r2, #4
 80061fe:	69e8      	ldr	r0, [r5, #28]
 8006200:	f102 0614 	add.w	r6, r2, #20
 8006204:	429e      	cmp	r6, r3
 8006206:	d940      	bls.n	800628a <_dtoa_r+0x30a>
 8006208:	6041      	str	r1, [r0, #4]
 800620a:	4628      	mov	r0, r5
 800620c:	f000 fd98 	bl	8006d40 <_Balloc>
 8006210:	9003      	str	r0, [sp, #12]
 8006212:	2800      	cmp	r0, #0
 8006214:	d13c      	bne.n	8006290 <_dtoa_r+0x310>
 8006216:	4602      	mov	r2, r0
 8006218:	f240 11af 	movw	r1, #431	; 0x1af
 800621c:	4b16      	ldr	r3, [pc, #88]	; (8006278 <_dtoa_r+0x2f8>)
 800621e:	e6c3      	b.n	8005fa8 <_dtoa_r+0x28>
 8006220:	2301      	movs	r3, #1
 8006222:	e7e1      	b.n	80061e8 <_dtoa_r+0x268>
 8006224:	2401      	movs	r4, #1
 8006226:	2300      	movs	r3, #0
 8006228:	940b      	str	r4, [sp, #44]	; 0x2c
 800622a:	9322      	str	r3, [sp, #136]	; 0x88
 800622c:	f04f 33ff 	mov.w	r3, #4294967295
 8006230:	2200      	movs	r2, #0
 8006232:	9306      	str	r3, [sp, #24]
 8006234:	9308      	str	r3, [sp, #32]
 8006236:	2312      	movs	r3, #18
 8006238:	e7d1      	b.n	80061de <_dtoa_r+0x25e>
 800623a:	bf00      	nop
 800623c:	f3af 8000 	nop.w
 8006240:	636f4361 	.word	0x636f4361
 8006244:	3fd287a7 	.word	0x3fd287a7
 8006248:	8b60c8b3 	.word	0x8b60c8b3
 800624c:	3fc68a28 	.word	0x3fc68a28
 8006250:	509f79fb 	.word	0x509f79fb
 8006254:	3fd34413 	.word	0x3fd34413
 8006258:	08007c5b 	.word	0x08007c5b
 800625c:	08007c72 	.word	0x08007c72
 8006260:	7ff00000 	.word	0x7ff00000
 8006264:	08007c57 	.word	0x08007c57
 8006268:	08007c4e 	.word	0x08007c4e
 800626c:	08007c2b 	.word	0x08007c2b
 8006270:	3ff80000 	.word	0x3ff80000
 8006274:	08007d60 	.word	0x08007d60
 8006278:	08007cca 	.word	0x08007cca
 800627c:	2301      	movs	r3, #1
 800627e:	930b      	str	r3, [sp, #44]	; 0x2c
 8006280:	e7d4      	b.n	800622c <_dtoa_r+0x2ac>
 8006282:	9b23      	ldr	r3, [sp, #140]	; 0x8c
 8006284:	9306      	str	r3, [sp, #24]
 8006286:	9308      	str	r3, [sp, #32]
 8006288:	e7b7      	b.n	80061fa <_dtoa_r+0x27a>
 800628a:	3101      	adds	r1, #1
 800628c:	0052      	lsls	r2, r2, #1
 800628e:	e7b7      	b.n	8006200 <_dtoa_r+0x280>
 8006290:	69eb      	ldr	r3, [r5, #28]
 8006292:	9a03      	ldr	r2, [sp, #12]
 8006294:	601a      	str	r2, [r3, #0]
 8006296:	9b08      	ldr	r3, [sp, #32]
 8006298:	2b0e      	cmp	r3, #14
 800629a:	f200 80a8 	bhi.w	80063ee <_dtoa_r+0x46e>
 800629e:	2c00      	cmp	r4, #0
 80062a0:	f000 80a5 	beq.w	80063ee <_dtoa_r+0x46e>
 80062a4:	f1bb 0f00 	cmp.w	fp, #0
 80062a8:	dd34      	ble.n	8006314 <_dtoa_r+0x394>
 80062aa:	4b9a      	ldr	r3, [pc, #616]	; (8006514 <_dtoa_r+0x594>)
 80062ac:	f00b 020f 	and.w	r2, fp, #15
 80062b0:	eb03 03c2 	add.w	r3, r3, r2, lsl #3
 80062b4:	f41b 7f80 	tst.w	fp, #256	; 0x100
 80062b8:	e9d3 3400 	ldrd	r3, r4, [r3]
 80062bc:	e9cd 3410 	strd	r3, r4, [sp, #64]	; 0x40
 80062c0:	ea4f 142b 	mov.w	r4, fp, asr #4
 80062c4:	d016      	beq.n	80062f4 <_dtoa_r+0x374>
 80062c6:	e9dd 010c 	ldrd	r0, r1, [sp, #48]	; 0x30
 80062ca:	4b93      	ldr	r3, [pc, #588]	; (8006518 <_dtoa_r+0x598>)
 80062cc:	2703      	movs	r7, #3
 80062ce:	e9d3 2308 	ldrd	r2, r3, [r3, #32]
 80062d2:	f7fa fa2b 	bl	800072c <__aeabi_ddiv>
 80062d6:	e9cd 0104 	strd	r0, r1, [sp, #16]
 80062da:	f004 040f 	and.w	r4, r4, #15
 80062de:	4e8e      	ldr	r6, [pc, #568]	; (8006518 <_dtoa_r+0x598>)
 80062e0:	b954      	cbnz	r4, 80062f8 <_dtoa_r+0x378>
 80062e2:	e9dd 2310 	ldrd	r2, r3, [sp, #64]	; 0x40
 80062e6:	e9dd 0104 	ldrd	r0, r1, [sp, #16]
 80062ea:	f7fa fa1f 	bl	800072c <__aeabi_ddiv>
 80062ee:	e9cd 0104 	strd	r0, r1, [sp, #16]
 80062f2:	e029      	b.n	8006348 <_dtoa_r+0x3c8>
 80062f4:	2702      	movs	r7, #2
 80062f6:	e7f2      	b.n	80062de <_dtoa_r+0x35e>
 80062f8:	07e1      	lsls	r1, r4, #31
 80062fa:	d508      	bpl.n	800630e <_dtoa_r+0x38e>
 80062fc:	e9dd 0110 	ldrd	r0, r1, [sp, #64]	; 0x40
 8006300:	e9d6 2300 	ldrd	r2, r3, [r6]
 8006304:	f7fa f8e8 	bl	80004d8 <__aeabi_dmul>
 8006308:	e9cd 0110 	strd	r0, r1, [sp, #64]	; 0x40
 800630c:	3701      	adds	r7, #1
 800630e:	1064      	asrs	r4, r4, #1
 8006310:	3608      	adds	r6, #8
 8006312:	e7e5      	b.n	80062e0 <_dtoa_r+0x360>
 8006314:	f000 80a5 	beq.w	8006462 <_dtoa_r+0x4e2>
 8006318:	e9dd 010c 	ldrd	r0, r1, [sp, #48]	; 0x30
 800631c:	f1cb 0400 	rsb	r4, fp, #0
 8006320:	4b7c      	ldr	r3, [pc, #496]	; (8006514 <_dtoa_r+0x594>)
 8006322:	f004 020f 	and.w	r2, r4, #15
 8006326:	eb03 03c2 	add.w	r3, r3, r2, lsl #3
 800632a:	e9d3 2300 	ldrd	r2, r3, [r3]
 800632e:	f7fa f8d3 	bl	80004d8 <__aeabi_dmul>
 8006332:	2702      	movs	r7, #2
 8006334:	2300      	movs	r3, #0
 8006336:	e9cd 0104 	strd	r0, r1, [sp, #16]
 800633a:	4e77      	ldr	r6, [pc, #476]	; (8006518 <_dtoa_r+0x598>)
 800633c:	1124      	asrs	r4, r4, #4
 800633e:	2c00      	cmp	r4, #0
 8006340:	f040 8084 	bne.w	800644c <_dtoa_r+0x4cc>
 8006344:	2b00      	cmp	r3, #0
 8006346:	d1d2      	bne.n	80062ee <_dtoa_r+0x36e>
 8006348:	e9dd 3404 	ldrd	r3, r4, [sp, #16]
 800634c:	e9cd 3410 	strd	r3, r4, [sp, #64]	; 0x40
 8006350:	9b0f      	ldr	r3, [sp, #60]	; 0x3c
 8006352:	2b00      	cmp	r3, #0
 8006354:	f000 8087 	beq.w	8006466 <_dtoa_r+0x4e6>
 8006358:	e9dd 0110 	ldrd	r0, r1, [sp, #64]	; 0x40
 800635c:	2200      	movs	r2, #0
 800635e:	4b6f      	ldr	r3, [pc, #444]	; (800651c <_dtoa_r+0x59c>)
 8006360:	f7fa fb2c 	bl	80009bc <__aeabi_dcmplt>
 8006364:	2800      	cmp	r0, #0
 8006366:	d07e      	beq.n	8006466 <_dtoa_r+0x4e6>
 8006368:	9b08      	ldr	r3, [sp, #32]
 800636a:	2b00      	cmp	r3, #0
 800636c:	d07b      	beq.n	8006466 <_dtoa_r+0x4e6>
 800636e:	9b06      	ldr	r3, [sp, #24]
 8006370:	2b00      	cmp	r3, #0
 8006372:	dd38      	ble.n	80063e6 <_dtoa_r+0x466>
 8006374:	e9dd 0110 	ldrd	r0, r1, [sp, #64]	; 0x40
 8006378:	2200      	movs	r2, #0
 800637a:	4b69      	ldr	r3, [pc, #420]	; (8006520 <_dtoa_r+0x5a0>)
 800637c:	f7fa f8ac 	bl	80004d8 <__aeabi_dmul>
 8006380:	e9cd 0104 	strd	r0, r1, [sp, #16]
 8006384:	9c06      	ldr	r4, [sp, #24]
 8006386:	f10b 38ff 	add.w	r8, fp, #4294967295
 800638a:	3701      	adds	r7, #1
 800638c:	4638      	mov	r0, r7
 800638e:	f7fa f839 	bl	8000404 <__aeabi_i2d>
 8006392:	e9dd 2304 	ldrd	r2, r3, [sp, #16]
 8006396:	f7fa f89f 	bl	80004d8 <__aeabi_dmul>
 800639a:	2200      	movs	r2, #0
 800639c:	4b61      	ldr	r3, [pc, #388]	; (8006524 <_dtoa_r+0x5a4>)
 800639e:	f7f9 fee5 	bl	800016c <__adddf3>
 80063a2:	f1a1 7650 	sub.w	r6, r1, #54525952	; 0x3400000
 80063a6:	e9cd 0110 	strd	r0, r1, [sp, #64]	; 0x40
 80063aa:	9611      	str	r6, [sp, #68]	; 0x44
 80063ac:	2c00      	cmp	r4, #0
 80063ae:	d15d      	bne.n	800646c <_dtoa_r+0x4ec>
 80063b0:	e9dd 0104 	ldrd	r0, r1, [sp, #16]
 80063b4:	2200      	movs	r2, #0
 80063b6:	4b5c      	ldr	r3, [pc, #368]	; (8006528 <_dtoa_r+0x5a8>)
 80063b8:	f7f9 fed6 	bl	8000168 <__aeabi_dsub>
 80063bc:	4602      	mov	r2, r0
 80063be:	460b      	mov	r3, r1
 80063c0:	e9cd 2304 	strd	r2, r3, [sp, #16]
 80063c4:	4633      	mov	r3, r6
 80063c6:	9a10      	ldr	r2, [sp, #64]	; 0x40
 80063c8:	f7fa fb16 	bl	80009f8 <__aeabi_dcmpgt>
 80063cc:	2800      	cmp	r0, #0
 80063ce:	f040 8295 	bne.w	80068fc <_dtoa_r+0x97c>
 80063d2:	e9dd 0104 	ldrd	r0, r1, [sp, #16]
 80063d6:	9a10      	ldr	r2, [sp, #64]	; 0x40
 80063d8:	f106 4300 	add.w	r3, r6, #2147483648	; 0x80000000
 80063dc:	f7fa faee 	bl	80009bc <__aeabi_dcmplt>
 80063e0:	2800      	cmp	r0, #0
 80063e2:	f040 8289 	bne.w	80068f8 <_dtoa_r+0x978>
 80063e6:	e9dd 340c 	ldrd	r3, r4, [sp, #48]	; 0x30
 80063ea:	e9cd 3404 	strd	r3, r4, [sp, #16]
 80063ee:	9b17      	ldr	r3, [sp, #92]	; 0x5c
 80063f0:	2b00      	cmp	r3, #0
 80063f2:	f2c0 8151 	blt.w	8006698 <_dtoa_r+0x718>
 80063f6:	f1bb 0f0e 	cmp.w	fp, #14
 80063fa:	f300 814d 	bgt.w	8006698 <_dtoa_r+0x718>
 80063fe:	4b45      	ldr	r3, [pc, #276]	; (8006514 <_dtoa_r+0x594>)
 8006400:	eb03 03cb 	add.w	r3, r3, fp, lsl #3
 8006404:	e9d3 3400 	ldrd	r3, r4, [r3]
 8006408:	e9cd 3406 	strd	r3, r4, [sp, #24]
 800640c:	9b23      	ldr	r3, [sp, #140]	; 0x8c
 800640e:	2b00      	cmp	r3, #0
 8006410:	f280 80da 	bge.w	80065c8 <_dtoa_r+0x648>
 8006414:	9b08      	ldr	r3, [sp, #32]
 8006416:	2b00      	cmp	r3, #0
 8006418:	f300 80d6 	bgt.w	80065c8 <_dtoa_r+0x648>
 800641c:	f040 826b 	bne.w	80068f6 <_dtoa_r+0x976>
 8006420:	e9dd 0106 	ldrd	r0, r1, [sp, #24]
 8006424:	2200      	movs	r2, #0
 8006426:	4b40      	ldr	r3, [pc, #256]	; (8006528 <_dtoa_r+0x5a8>)
 8006428:	f7fa f856 	bl	80004d8 <__aeabi_dmul>
 800642c:	e9dd 2304 	ldrd	r2, r3, [sp, #16]
 8006430:	f7fa fad8 	bl	80009e4 <__aeabi_dcmpge>
 8006434:	9c08      	ldr	r4, [sp, #32]
 8006436:	4626      	mov	r6, r4
 8006438:	2800      	cmp	r0, #0
 800643a:	f040 8241 	bne.w	80068c0 <_dtoa_r+0x940>
 800643e:	2331      	movs	r3, #49	; 0x31
 8006440:	9f03      	ldr	r7, [sp, #12]
 8006442:	f10b 0b01 	add.w	fp, fp, #1
 8006446:	f807 3b01 	strb.w	r3, [r7], #1
 800644a:	e23d      	b.n	80068c8 <_dtoa_r+0x948>
 800644c:	07e2      	lsls	r2, r4, #31
 800644e:	d505      	bpl.n	800645c <_dtoa_r+0x4dc>
 8006450:	e9d6 2300 	ldrd	r2, r3, [r6]
 8006454:	f7fa f840 	bl	80004d8 <__aeabi_dmul>
 8006458:	2301      	movs	r3, #1
 800645a:	3701      	adds	r7, #1
 800645c:	1064      	asrs	r4, r4, #1
 800645e:	3608      	adds	r6, #8
 8006460:	e76d      	b.n	800633e <_dtoa_r+0x3be>
 8006462:	2702      	movs	r7, #2
 8006464:	e770      	b.n	8006348 <_dtoa_r+0x3c8>
 8006466:	46d8      	mov	r8, fp
 8006468:	9c08      	ldr	r4, [sp, #32]
 800646a:	e78f      	b.n	800638c <_dtoa_r+0x40c>
 800646c:	9903      	ldr	r1, [sp, #12]
 800646e:	4b29      	ldr	r3, [pc, #164]	; (8006514 <_dtoa_r+0x594>)
 8006470:	4421      	add	r1, r4
 8006472:	9112      	str	r1, [sp, #72]	; 0x48
 8006474:	990b      	ldr	r1, [sp, #44]	; 0x2c
 8006476:	eb03 03c4 	add.w	r3, r3, r4, lsl #3
 800647a:	e9dd 6710 	ldrd	r6, r7, [sp, #64]	; 0x40
 800647e:	e953 2302 	ldrd	r2, r3, [r3, #-8]
 8006482:	2900      	cmp	r1, #0
 8006484:	d054      	beq.n	8006530 <_dtoa_r+0x5b0>
 8006486:	2000      	movs	r0, #0
 8006488:	4928      	ldr	r1, [pc, #160]	; (800652c <_dtoa_r+0x5ac>)
 800648a:	f7fa f94f 	bl	800072c <__aeabi_ddiv>
 800648e:	463b      	mov	r3, r7
 8006490:	4632      	mov	r2, r6
 8006492:	f7f9 fe69 	bl	8000168 <__aeabi_dsub>
 8006496:	e9cd 0110 	strd	r0, r1, [sp, #64]	; 0x40
 800649a:	9f03      	ldr	r7, [sp, #12]
 800649c:	e9dd 0104 	ldrd	r0, r1, [sp, #16]
 80064a0:	f7fa faca 	bl	8000a38 <__aeabi_d2iz>
 80064a4:	4604      	mov	r4, r0
 80064a6:	f7f9 ffad 	bl	8000404 <__aeabi_i2d>
 80064aa:	4602      	mov	r2, r0
 80064ac:	460b      	mov	r3, r1
 80064ae:	e9dd 0104 	ldrd	r0, r1, [sp, #16]
 80064b2:	f7f9 fe59 	bl	8000168 <__aeabi_dsub>
 80064b6:	4602      	mov	r2, r0
 80064b8:	460b      	mov	r3, r1
 80064ba:	3430      	adds	r4, #48	; 0x30
 80064bc:	e9cd 2304 	strd	r2, r3, [sp, #16]
 80064c0:	e9dd 2310 	ldrd	r2, r3, [sp, #64]	; 0x40
 80064c4:	f807 4b01 	strb.w	r4, [r7], #1
 80064c8:	f7fa fa78 	bl	80009bc <__aeabi_dcmplt>
 80064cc:	2800      	cmp	r0, #0
 80064ce:	d173      	bne.n	80065b8 <_dtoa_r+0x638>
 80064d0:	e9dd 2304 	ldrd	r2, r3, [sp, #16]
 80064d4:	2000      	movs	r0, #0
 80064d6:	4911      	ldr	r1, [pc, #68]	; (800651c <_dtoa_r+0x59c>)
 80064d8:	f7f9 fe46 	bl	8000168 <__aeabi_dsub>
 80064dc:	e9dd 2310 	ldrd	r2, r3, [sp, #64]	; 0x40
 80064e0:	f7fa fa6c 	bl	80009bc <__aeabi_dcmplt>
 80064e4:	2800      	cmp	r0, #0
 80064e6:	f040 80b6 	bne.w	8006656 <_dtoa_r+0x6d6>
 80064ea:	9b12      	ldr	r3, [sp, #72]	; 0x48
 80064ec:	429f      	cmp	r7, r3
 80064ee:	f43f af7a 	beq.w	80063e6 <_dtoa_r+0x466>
 80064f2:	e9dd 0110 	ldrd	r0, r1, [sp, #64]	; 0x40
 80064f6:	2200      	movs	r2, #0
 80064f8:	4b09      	ldr	r3, [pc, #36]	; (8006520 <_dtoa_r+0x5a0>)
 80064fa:	f7f9 ffed 	bl	80004d8 <__aeabi_dmul>
 80064fe:	2200      	movs	r2, #0
 8006500:	e9cd 0110 	strd	r0, r1, [sp, #64]	; 0x40
 8006504:	e9dd 0104 	ldrd	r0, r1, [sp, #16]
 8006508:	4b05      	ldr	r3, [pc, #20]	; (8006520 <_dtoa_r+0x5a0>)
 800650a:	f7f9 ffe5 	bl	80004d8 <__aeabi_dmul>
 800650e:	e9cd 0104 	strd	r0, r1, [sp, #16]
 8006512:	e7c3      	b.n	800649c <_dtoa_r+0x51c>
 8006514:	08007d60 	.word	0x08007d60
 8006518:	08007d38 	.word	0x08007d38
 800651c:	3ff00000 	.word	0x3ff00000
 8006520:	40240000 	.word	0x40240000
 8006524:	401c0000 	.word	0x401c0000
 8006528:	40140000 	.word	0x40140000
 800652c:	3fe00000 	.word	0x3fe00000
 8006530:	4630      	mov	r0, r6
 8006532:	4639      	mov	r1, r7
 8006534:	f7f9 ffd0 	bl	80004d8 <__aeabi_dmul>
 8006538:	9b12      	ldr	r3, [sp, #72]	; 0x48
 800653a:	e9cd 0110 	strd	r0, r1, [sp, #64]	; 0x40
 800653e:	9c03      	ldr	r4, [sp, #12]
 8006540:	9314      	str	r3, [sp, #80]	; 0x50
 8006542:	e9dd 0104 	ldrd	r0, r1, [sp, #16]
 8006546:	f7fa fa77 	bl	8000a38 <__aeabi_d2iz>
 800654a:	9015      	str	r0, [sp, #84]	; 0x54
 800654c:	f7f9 ff5a 	bl	8000404 <__aeabi_i2d>
 8006550:	4602      	mov	r2, r0
 8006552:	460b      	mov	r3, r1
 8006554:	e9dd 0104 	ldrd	r0, r1, [sp, #16]
 8006558:	f7f9 fe06 	bl	8000168 <__aeabi_dsub>
 800655c:	9b15      	ldr	r3, [sp, #84]	; 0x54
 800655e:	4606      	mov	r6, r0
 8006560:	3330      	adds	r3, #48	; 0x30
 8006562:	f804 3b01 	strb.w	r3, [r4], #1
 8006566:	9b12      	ldr	r3, [sp, #72]	; 0x48
 8006568:	460f      	mov	r7, r1
 800656a:	429c      	cmp	r4, r3
 800656c:	f04f 0200 	mov.w	r2, #0
 8006570:	d124      	bne.n	80065bc <_dtoa_r+0x63c>
 8006572:	e9dd 0110 	ldrd	r0, r1, [sp, #64]	; 0x40
 8006576:	4baf      	ldr	r3, [pc, #700]	; (8006834 <_dtoa_r+0x8b4>)
 8006578:	f7f9 fdf8 	bl	800016c <__adddf3>
 800657c:	4602      	mov	r2, r0
 800657e:	460b      	mov	r3, r1
 8006580:	4630      	mov	r0, r6
 8006582:	4639      	mov	r1, r7
 8006584:	f7fa fa38 	bl	80009f8 <__aeabi_dcmpgt>
 8006588:	2800      	cmp	r0, #0
 800658a:	d163      	bne.n	8006654 <_dtoa_r+0x6d4>
 800658c:	e9dd 2310 	ldrd	r2, r3, [sp, #64]	; 0x40
 8006590:	2000      	movs	r0, #0
 8006592:	49a8      	ldr	r1, [pc, #672]	; (8006834 <_dtoa_r+0x8b4>)
 8006594:	f7f9 fde8 	bl	8000168 <__aeabi_dsub>
 8006598:	4602      	mov	r2, r0
 800659a:	460b      	mov	r3, r1
 800659c:	4630      	mov	r0, r6
 800659e:	4639      	mov	r1, r7
 80065a0:	f7fa fa0c 	bl	80009bc <__aeabi_dcmplt>
 80065a4:	2800      	cmp	r0, #0
 80065a6:	f43f af1e 	beq.w	80063e6 <_dtoa_r+0x466>
 80065aa:	9f14      	ldr	r7, [sp, #80]	; 0x50
 80065ac:	1e7b      	subs	r3, r7, #1
 80065ae:	9314      	str	r3, [sp, #80]	; 0x50
 80065b0:	f817 3c01 	ldrb.w	r3, [r7, #-1]
 80065b4:	2b30      	cmp	r3, #48	; 0x30
 80065b6:	d0f8      	beq.n	80065aa <_dtoa_r+0x62a>
 80065b8:	46c3      	mov	fp, r8
 80065ba:	e03b      	b.n	8006634 <_dtoa_r+0x6b4>
 80065bc:	4b9e      	ldr	r3, [pc, #632]	; (8006838 <_dtoa_r+0x8b8>)
 80065be:	f7f9 ff8b 	bl	80004d8 <__aeabi_dmul>
 80065c2:	e9cd 0104 	strd	r0, r1, [sp, #16]
 80065c6:	e7bc      	b.n	8006542 <_dtoa_r+0x5c2>
 80065c8:	9f03      	ldr	r7, [sp, #12]
 80065ca:	e9dd 8904 	ldrd	r8, r9, [sp, #16]
 80065ce:	e9dd 2306 	ldrd	r2, r3, [sp, #24]
 80065d2:	4640      	mov	r0, r8
 80065d4:	4649      	mov	r1, r9
 80065d6:	f7fa f8a9 	bl	800072c <__aeabi_ddiv>
 80065da:	f7fa fa2d 	bl	8000a38 <__aeabi_d2iz>
 80065de:	4604      	mov	r4, r0
 80065e0:	f7f9 ff10 	bl	8000404 <__aeabi_i2d>
 80065e4:	e9dd 2306 	ldrd	r2, r3, [sp, #24]
 80065e8:	f7f9 ff76 	bl	80004d8 <__aeabi_dmul>
 80065ec:	4602      	mov	r2, r0
 80065ee:	460b      	mov	r3, r1
 80065f0:	4640      	mov	r0, r8
 80065f2:	4649      	mov	r1, r9
 80065f4:	f7f9 fdb8 	bl	8000168 <__aeabi_dsub>
 80065f8:	f104 0630 	add.w	r6, r4, #48	; 0x30
 80065fc:	f807 6b01 	strb.w	r6, [r7], #1
 8006600:	9e03      	ldr	r6, [sp, #12]
 8006602:	f8dd c020 	ldr.w	ip, [sp, #32]
 8006606:	1bbe      	subs	r6, r7, r6
 8006608:	45b4      	cmp	ip, r6
 800660a:	4602      	mov	r2, r0
 800660c:	460b      	mov	r3, r1
 800660e:	d136      	bne.n	800667e <_dtoa_r+0x6fe>
 8006610:	f7f9 fdac 	bl	800016c <__adddf3>
 8006614:	e9dd 2306 	ldrd	r2, r3, [sp, #24]
 8006618:	4680      	mov	r8, r0
 800661a:	4689      	mov	r9, r1
 800661c:	f7fa f9ec 	bl	80009f8 <__aeabi_dcmpgt>
 8006620:	bb58      	cbnz	r0, 800667a <_dtoa_r+0x6fa>
 8006622:	e9dd 2306 	ldrd	r2, r3, [sp, #24]
 8006626:	4640      	mov	r0, r8
 8006628:	4649      	mov	r1, r9
 800662a:	f7fa f9bd 	bl	80009a8 <__aeabi_dcmpeq>
 800662e:	b108      	cbz	r0, 8006634 <_dtoa_r+0x6b4>
 8006630:	07e3      	lsls	r3, r4, #31
 8006632:	d422      	bmi.n	800667a <_dtoa_r+0x6fa>
 8006634:	4651      	mov	r1, sl
 8006636:	4628      	mov	r0, r5
 8006638:	f000 fbc2 	bl	8006dc0 <_Bfree>
 800663c:	2300      	movs	r3, #0
 800663e:	9a24      	ldr	r2, [sp, #144]	; 0x90
 8006640:	703b      	strb	r3, [r7, #0]
 8006642:	f10b 0301 	add.w	r3, fp, #1
 8006646:	6013      	str	r3, [r2, #0]
 8006648:	9b26      	ldr	r3, [sp, #152]	; 0x98
 800664a:	2b00      	cmp	r3, #0
 800664c:	f43f ace6 	beq.w	800601c <_dtoa_r+0x9c>
 8006650:	601f      	str	r7, [r3, #0]
 8006652:	e4e3      	b.n	800601c <_dtoa_r+0x9c>
 8006654:	4627      	mov	r7, r4
 8006656:	463b      	mov	r3, r7
 8006658:	461f      	mov	r7, r3
 800665a:	f813 2d01 	ldrb.w	r2, [r3, #-1]!
 800665e:	2a39      	cmp	r2, #57	; 0x39
 8006660:	d107      	bne.n	8006672 <_dtoa_r+0x6f2>
 8006662:	9a03      	ldr	r2, [sp, #12]
 8006664:	429a      	cmp	r2, r3
 8006666:	d1f7      	bne.n	8006658 <_dtoa_r+0x6d8>
 8006668:	2230      	movs	r2, #48	; 0x30
 800666a:	9903      	ldr	r1, [sp, #12]
 800666c:	f108 0801 	add.w	r8, r8, #1
 8006670:	700a      	strb	r2, [r1, #0]
 8006672:	781a      	ldrb	r2, [r3, #0]
 8006674:	3201      	adds	r2, #1
 8006676:	701a      	strb	r2, [r3, #0]
 8006678:	e79e      	b.n	80065b8 <_dtoa_r+0x638>
 800667a:	46d8      	mov	r8, fp
 800667c:	e7eb      	b.n	8006656 <_dtoa_r+0x6d6>
 800667e:	2200      	movs	r2, #0
 8006680:	4b6d      	ldr	r3, [pc, #436]	; (8006838 <_dtoa_r+0x8b8>)
 8006682:	f7f9 ff29 	bl	80004d8 <__aeabi_dmul>
 8006686:	2200      	movs	r2, #0
 8006688:	2300      	movs	r3, #0
 800668a:	4680      	mov	r8, r0
 800668c:	4689      	mov	r9, r1
 800668e:	f7fa f98b 	bl	80009a8 <__aeabi_dcmpeq>
 8006692:	2800      	cmp	r0, #0
 8006694:	d09b      	beq.n	80065ce <_dtoa_r+0x64e>
 8006696:	e7cd      	b.n	8006634 <_dtoa_r+0x6b4>
 8006698:	9a0b      	ldr	r2, [sp, #44]	; 0x2c
 800669a:	2a00      	cmp	r2, #0
 800669c:	f000 80c4 	beq.w	8006828 <_dtoa_r+0x8a8>
 80066a0:	9a22      	ldr	r2, [sp, #136]	; 0x88
 80066a2:	2a01      	cmp	r2, #1
 80066a4:	f300 80a8 	bgt.w	80067f8 <_dtoa_r+0x878>
 80066a8:	9a13      	ldr	r2, [sp, #76]	; 0x4c
 80066aa:	2a00      	cmp	r2, #0
 80066ac:	f000 80a0 	beq.w	80067f0 <_dtoa_r+0x870>
 80066b0:	f203 4333 	addw	r3, r3, #1075	; 0x433
 80066b4:	464f      	mov	r7, r9
 80066b6:	9c0a      	ldr	r4, [sp, #40]	; 0x28
 80066b8:	9a09      	ldr	r2, [sp, #36]	; 0x24
 80066ba:	2101      	movs	r1, #1
 80066bc:	441a      	add	r2, r3
 80066be:	4628      	mov	r0, r5
 80066c0:	4499      	add	r9, r3
 80066c2:	9209      	str	r2, [sp, #36]	; 0x24
 80066c4:	f000 fc32 	bl	8006f2c <__i2b>
 80066c8:	4606      	mov	r6, r0
 80066ca:	b15f      	cbz	r7, 80066e4 <_dtoa_r+0x764>
 80066cc:	9b09      	ldr	r3, [sp, #36]	; 0x24
 80066ce:	2b00      	cmp	r3, #0
 80066d0:	dd08      	ble.n	80066e4 <_dtoa_r+0x764>
 80066d2:	42bb      	cmp	r3, r7
 80066d4:	bfa8      	it	ge
 80066d6:	463b      	movge	r3, r7
 80066d8:	9a09      	ldr	r2, [sp, #36]	; 0x24
 80066da:	eba9 0903 	sub.w	r9, r9, r3
 80066de:	1aff      	subs	r7, r7, r3
 80066e0:	1ad3      	subs	r3, r2, r3
 80066e2:	9309      	str	r3, [sp, #36]	; 0x24
 80066e4:	9b0a      	ldr	r3, [sp, #40]	; 0x28
 80066e6:	b1f3      	cbz	r3, 8006726 <_dtoa_r+0x7a6>
 80066e8:	9b0b      	ldr	r3, [sp, #44]	; 0x2c
 80066ea:	2b00      	cmp	r3, #0
 80066ec:	f000 80a0 	beq.w	8006830 <_dtoa_r+0x8b0>
 80066f0:	2c00      	cmp	r4, #0
 80066f2:	dd10      	ble.n	8006716 <_dtoa_r+0x796>
 80066f4:	4631      	mov	r1, r6
 80066f6:	4622      	mov	r2, r4
 80066f8:	4628      	mov	r0, r5
 80066fa:	f000 fcd5 	bl	80070a8 <__pow5mult>
 80066fe:	4652      	mov	r2, sl
 8006700:	4601      	mov	r1, r0
 8006702:	4606      	mov	r6, r0
 8006704:	4628      	mov	r0, r5
 8006706:	f000 fc27 	bl	8006f58 <__multiply>
 800670a:	4680      	mov	r8, r0
 800670c:	4651      	mov	r1, sl
 800670e:	4628      	mov	r0, r5
 8006710:	f000 fb56 	bl	8006dc0 <_Bfree>
 8006714:	46c2      	mov	sl, r8
 8006716:	9b0a      	ldr	r3, [sp, #40]	; 0x28
 8006718:	1b1a      	subs	r2, r3, r4
 800671a:	d004      	beq.n	8006726 <_dtoa_r+0x7a6>
 800671c:	4651      	mov	r1, sl
 800671e:	4628      	mov	r0, r5
 8006720:	f000 fcc2 	bl	80070a8 <__pow5mult>
 8006724:	4682      	mov	sl, r0
 8006726:	2101      	movs	r1, #1
 8006728:	4628      	mov	r0, r5
 800672a:	f000 fbff 	bl	8006f2c <__i2b>
 800672e:	9b0e      	ldr	r3, [sp, #56]	; 0x38
 8006730:	4604      	mov	r4, r0
 8006732:	2b00      	cmp	r3, #0
 8006734:	f340 8082 	ble.w	800683c <_dtoa_r+0x8bc>
 8006738:	461a      	mov	r2, r3
 800673a:	4601      	mov	r1, r0
 800673c:	4628      	mov	r0, r5
 800673e:	f000 fcb3 	bl	80070a8 <__pow5mult>
 8006742:	9b22      	ldr	r3, [sp, #136]	; 0x88
 8006744:	4604      	mov	r4, r0
 8006746:	2b01      	cmp	r3, #1
 8006748:	dd7b      	ble.n	8006842 <_dtoa_r+0x8c2>
 800674a:	f04f 0800 	mov.w	r8, #0
 800674e:	6923      	ldr	r3, [r4, #16]
 8006750:	eb04 0383 	add.w	r3, r4, r3, lsl #2
 8006754:	6918      	ldr	r0, [r3, #16]
 8006756:	f000 fb9b 	bl	8006e90 <__hi0bits>
 800675a:	f1c0 0020 	rsb	r0, r0, #32
 800675e:	9b09      	ldr	r3, [sp, #36]	; 0x24
 8006760:	4418      	add	r0, r3
 8006762:	f010 001f 	ands.w	r0, r0, #31
 8006766:	f000 8092 	beq.w	800688e <_dtoa_r+0x90e>
 800676a:	f1c0 0320 	rsb	r3, r0, #32
 800676e:	2b04      	cmp	r3, #4
 8006770:	f340 8085 	ble.w	800687e <_dtoa_r+0x8fe>
 8006774:	9b09      	ldr	r3, [sp, #36]	; 0x24
 8006776:	f1c0 001c 	rsb	r0, r0, #28
 800677a:	4403      	add	r3, r0
 800677c:	4481      	add	r9, r0
 800677e:	4407      	add	r7, r0
 8006780:	9309      	str	r3, [sp, #36]	; 0x24
 8006782:	f1b9 0f00 	cmp.w	r9, #0
 8006786:	dd05      	ble.n	8006794 <_dtoa_r+0x814>
 8006788:	4651      	mov	r1, sl
 800678a:	464a      	mov	r2, r9
 800678c:	4628      	mov	r0, r5
 800678e:	f000 fce5 	bl	800715c <__lshift>
 8006792:	4682      	mov	sl, r0
 8006794:	9b09      	ldr	r3, [sp, #36]	; 0x24
 8006796:	2b00      	cmp	r3, #0
 8006798:	dd05      	ble.n	80067a6 <_dtoa_r+0x826>
 800679a:	4621      	mov	r1, r4
 800679c:	461a      	mov	r2, r3
 800679e:	4628      	mov	r0, r5
 80067a0:	f000 fcdc 	bl	800715c <__lshift>
 80067a4:	4604      	mov	r4, r0
 80067a6:	9b0f      	ldr	r3, [sp, #60]	; 0x3c
 80067a8:	2b00      	cmp	r3, #0
 80067aa:	d072      	beq.n	8006892 <_dtoa_r+0x912>
 80067ac:	4621      	mov	r1, r4
 80067ae:	4650      	mov	r0, sl
 80067b0:	f000 fd40 	bl	8007234 <__mcmp>
 80067b4:	2800      	cmp	r0, #0
 80067b6:	da6c      	bge.n	8006892 <_dtoa_r+0x912>
 80067b8:	2300      	movs	r3, #0
 80067ba:	4651      	mov	r1, sl
 80067bc:	220a      	movs	r2, #10
 80067be:	4628      	mov	r0, r5
 80067c0:	f000 fb20 	bl	8006e04 <__multadd>
 80067c4:	9b0b      	ldr	r3, [sp, #44]	; 0x2c
 80067c6:	4682      	mov	sl, r0
 80067c8:	f10b 3bff 	add.w	fp, fp, #4294967295
 80067cc:	2b00      	cmp	r3, #0
 80067ce:	f000 81ac 	beq.w	8006b2a <_dtoa_r+0xbaa>
 80067d2:	2300      	movs	r3, #0
 80067d4:	4631      	mov	r1, r6
 80067d6:	220a      	movs	r2, #10
 80067d8:	4628      	mov	r0, r5
 80067da:	f000 fb13 	bl	8006e04 <__multadd>
 80067de:	9b06      	ldr	r3, [sp, #24]
 80067e0:	4606      	mov	r6, r0
 80067e2:	2b00      	cmp	r3, #0
 80067e4:	f300 8093 	bgt.w	800690e <_dtoa_r+0x98e>
 80067e8:	9b22      	ldr	r3, [sp, #136]	; 0x88
 80067ea:	2b02      	cmp	r3, #2
 80067ec:	dc59      	bgt.n	80068a2 <_dtoa_r+0x922>
 80067ee:	e08e      	b.n	800690e <_dtoa_r+0x98e>
 80067f0:	9b16      	ldr	r3, [sp, #88]	; 0x58
 80067f2:	f1c3 0336 	rsb	r3, r3, #54	; 0x36
 80067f6:	e75d      	b.n	80066b4 <_dtoa_r+0x734>
 80067f8:	9b08      	ldr	r3, [sp, #32]
 80067fa:	1e5c      	subs	r4, r3, #1
 80067fc:	9b0a      	ldr	r3, [sp, #40]	; 0x28
 80067fe:	42a3      	cmp	r3, r4
 8006800:	bfbf      	itttt	lt
 8006802:	9b0a      	ldrlt	r3, [sp, #40]	; 0x28
 8006804:	9a0e      	ldrlt	r2, [sp, #56]	; 0x38
 8006806:	1ae3      	sublt	r3, r4, r3
 8006808:	18d2      	addlt	r2, r2, r3
 800680a:	bfa8      	it	ge
 800680c:	1b1c      	subge	r4, r3, r4
 800680e:	9b08      	ldr	r3, [sp, #32]
 8006810:	bfbe      	ittt	lt
 8006812:	940a      	strlt	r4, [sp, #40]	; 0x28
 8006814:	920e      	strlt	r2, [sp, #56]	; 0x38
 8006816:	2400      	movlt	r4, #0
 8006818:	2b00      	cmp	r3, #0
 800681a:	bfb5      	itete	lt
 800681c:	eba9 0703 	sublt.w	r7, r9, r3
 8006820:	464f      	movge	r7, r9
 8006822:	2300      	movlt	r3, #0
 8006824:	9b08      	ldrge	r3, [sp, #32]
 8006826:	e747      	b.n	80066b8 <_dtoa_r+0x738>
 8006828:	464f      	mov	r7, r9
 800682a:	9c0a      	ldr	r4, [sp, #40]	; 0x28
 800682c:	9e0b      	ldr	r6, [sp, #44]	; 0x2c
 800682e:	e74c      	b.n	80066ca <_dtoa_r+0x74a>
 8006830:	9a0a      	ldr	r2, [sp, #40]	; 0x28
 8006832:	e773      	b.n	800671c <_dtoa_r+0x79c>
 8006834:	3fe00000 	.word	0x3fe00000
 8006838:	40240000 	.word	0x40240000
 800683c:	9b22      	ldr	r3, [sp, #136]	; 0x88
 800683e:	2b01      	cmp	r3, #1
 8006840:	dc18      	bgt.n	8006874 <_dtoa_r+0x8f4>
 8006842:	9b04      	ldr	r3, [sp, #16]
 8006844:	b9b3      	cbnz	r3, 8006874 <_dtoa_r+0x8f4>
 8006846:	9b05      	ldr	r3, [sp, #20]
 8006848:	f3c3 0313 	ubfx	r3, r3, #0, #20
 800684c:	b993      	cbnz	r3, 8006874 <_dtoa_r+0x8f4>
 800684e:	9b05      	ldr	r3, [sp, #20]
 8006850:	f023 4300 	bic.w	r3, r3, #2147483648	; 0x80000000
 8006854:	0d1b      	lsrs	r3, r3, #20
 8006856:	051b      	lsls	r3, r3, #20
 8006858:	b17b      	cbz	r3, 800687a <_dtoa_r+0x8fa>
 800685a:	f04f 0801 	mov.w	r8, #1
 800685e:	9b09      	ldr	r3, [sp, #36]	; 0x24
 8006860:	f109 0901 	add.w	r9, r9, #1
 8006864:	3301      	adds	r3, #1
 8006866:	9309      	str	r3, [sp, #36]	; 0x24
 8006868:	9b0e      	ldr	r3, [sp, #56]	; 0x38
 800686a:	2b00      	cmp	r3, #0
 800686c:	f47f af6f 	bne.w	800674e <_dtoa_r+0x7ce>
 8006870:	2001      	movs	r0, #1
 8006872:	e774      	b.n	800675e <_dtoa_r+0x7de>
 8006874:	f04f 0800 	mov.w	r8, #0
 8006878:	e7f6      	b.n	8006868 <_dtoa_r+0x8e8>
 800687a:	4698      	mov	r8, r3
 800687c:	e7f4      	b.n	8006868 <_dtoa_r+0x8e8>
 800687e:	d080      	beq.n	8006782 <_dtoa_r+0x802>
 8006880:	9a09      	ldr	r2, [sp, #36]	; 0x24
 8006882:	331c      	adds	r3, #28
 8006884:	441a      	add	r2, r3
 8006886:	4499      	add	r9, r3
 8006888:	441f      	add	r7, r3
 800688a:	9209      	str	r2, [sp, #36]	; 0x24
 800688c:	e779      	b.n	8006782 <_dtoa_r+0x802>
 800688e:	4603      	mov	r3, r0
 8006890:	e7f6      	b.n	8006880 <_dtoa_r+0x900>
 8006892:	9b08      	ldr	r3, [sp, #32]
 8006894:	2b00      	cmp	r3, #0
 8006896:	dc34      	bgt.n	8006902 <_dtoa_r+0x982>
 8006898:	9b22      	ldr	r3, [sp, #136]	; 0x88
 800689a:	2b02      	cmp	r3, #2
 800689c:	dd31      	ble.n	8006902 <_dtoa_r+0x982>
 800689e:	9b08      	ldr	r3, [sp, #32]
 80068a0:	9306      	str	r3, [sp, #24]
 80068a2:	9b06      	ldr	r3, [sp, #24]
 80068a4:	b963      	cbnz	r3, 80068c0 <_dtoa_r+0x940>
 80068a6:	4621      	mov	r1, r4
 80068a8:	2205      	movs	r2, #5
 80068aa:	4628      	mov	r0, r5
 80068ac:	f000 faaa 	bl	8006e04 <__multadd>
 80068b0:	4601      	mov	r1, r0
 80068b2:	4604      	mov	r4, r0
 80068b4:	4650      	mov	r0, sl
 80068b6:	f000 fcbd 	bl	8007234 <__mcmp>
 80068ba:	2800      	cmp	r0, #0
 80068bc:	f73f adbf 	bgt.w	800643e <_dtoa_r+0x4be>
 80068c0:	9b23      	ldr	r3, [sp, #140]	; 0x8c
 80068c2:	9f03      	ldr	r7, [sp, #12]
 80068c4:	ea6f 0b03 	mvn.w	fp, r3
 80068c8:	f04f 0800 	mov.w	r8, #0
 80068cc:	4621      	mov	r1, r4
 80068ce:	4628      	mov	r0, r5
 80068d0:	f000 fa76 	bl	8006dc0 <_Bfree>
 80068d4:	2e00      	cmp	r6, #0
 80068d6:	f43f aead 	beq.w	8006634 <_dtoa_r+0x6b4>
 80068da:	f1b8 0f00 	cmp.w	r8, #0
 80068de:	d005      	beq.n	80068ec <_dtoa_r+0x96c>
 80068e0:	45b0      	cmp	r8, r6
 80068e2:	d003      	beq.n	80068ec <_dtoa_r+0x96c>
 80068e4:	4641      	mov	r1, r8
 80068e6:	4628      	mov	r0, r5
 80068e8:	f000 fa6a 	bl	8006dc0 <_Bfree>
 80068ec:	4631      	mov	r1, r6
 80068ee:	4628      	mov	r0, r5
 80068f0:	f000 fa66 	bl	8006dc0 <_Bfree>
 80068f4:	e69e      	b.n	8006634 <_dtoa_r+0x6b4>
 80068f6:	2400      	movs	r4, #0
 80068f8:	4626      	mov	r6, r4
 80068fa:	e7e1      	b.n	80068c0 <_dtoa_r+0x940>
 80068fc:	46c3      	mov	fp, r8
 80068fe:	4626      	mov	r6, r4
 8006900:	e59d      	b.n	800643e <_dtoa_r+0x4be>
 8006902:	9b0b      	ldr	r3, [sp, #44]	; 0x2c
 8006904:	2b00      	cmp	r3, #0
 8006906:	f000 80c8 	beq.w	8006a9a <_dtoa_r+0xb1a>
 800690a:	9b08      	ldr	r3, [sp, #32]
 800690c:	9306      	str	r3, [sp, #24]
 800690e:	2f00      	cmp	r7, #0
 8006910:	dd05      	ble.n	800691e <_dtoa_r+0x99e>
 8006912:	4631      	mov	r1, r6
 8006914:	463a      	mov	r2, r7
 8006916:	4628      	mov	r0, r5
 8006918:	f000 fc20 	bl	800715c <__lshift>
 800691c:	4606      	mov	r6, r0
 800691e:	f1b8 0f00 	cmp.w	r8, #0
 8006922:	d05b      	beq.n	80069dc <_dtoa_r+0xa5c>
 8006924:	4628      	mov	r0, r5
 8006926:	6871      	ldr	r1, [r6, #4]
 8006928:	f000 fa0a 	bl	8006d40 <_Balloc>
 800692c:	4607      	mov	r7, r0
 800692e:	b928      	cbnz	r0, 800693c <_dtoa_r+0x9bc>
 8006930:	4602      	mov	r2, r0
 8006932:	f240 21ef 	movw	r1, #751	; 0x2ef
 8006936:	4b81      	ldr	r3, [pc, #516]	; (8006b3c <_dtoa_r+0xbbc>)
 8006938:	f7ff bb36 	b.w	8005fa8 <_dtoa_r+0x28>
 800693c:	6932      	ldr	r2, [r6, #16]
 800693e:	f106 010c 	add.w	r1, r6, #12
 8006942:	3202      	adds	r2, #2
 8006944:	0092      	lsls	r2, r2, #2
 8006946:	300c      	adds	r0, #12
 8006948:	f000 fe2c 	bl	80075a4 <memcpy>
 800694c:	2201      	movs	r2, #1
 800694e:	4639      	mov	r1, r7
 8006950:	4628      	mov	r0, r5
 8006952:	f000 fc03 	bl	800715c <__lshift>
 8006956:	46b0      	mov	r8, r6
 8006958:	4606      	mov	r6, r0
 800695a:	9b03      	ldr	r3, [sp, #12]
 800695c:	9a03      	ldr	r2, [sp, #12]
 800695e:	3301      	adds	r3, #1
 8006960:	9308      	str	r3, [sp, #32]
 8006962:	9b06      	ldr	r3, [sp, #24]
 8006964:	4413      	add	r3, r2
 8006966:	930b      	str	r3, [sp, #44]	; 0x2c
 8006968:	9b04      	ldr	r3, [sp, #16]
 800696a:	f003 0301 	and.w	r3, r3, #1
 800696e:	930a      	str	r3, [sp, #40]	; 0x28
 8006970:	9b08      	ldr	r3, [sp, #32]
 8006972:	4621      	mov	r1, r4
 8006974:	3b01      	subs	r3, #1
 8006976:	4650      	mov	r0, sl
 8006978:	9304      	str	r3, [sp, #16]
 800697a:	f7ff fa75 	bl	8005e68 <quorem>
 800697e:	4641      	mov	r1, r8
 8006980:	9006      	str	r0, [sp, #24]
 8006982:	f100 0930 	add.w	r9, r0, #48	; 0x30
 8006986:	4650      	mov	r0, sl
 8006988:	f000 fc54 	bl	8007234 <__mcmp>
 800698c:	4632      	mov	r2, r6
 800698e:	9009      	str	r0, [sp, #36]	; 0x24
 8006990:	4621      	mov	r1, r4
 8006992:	4628      	mov	r0, r5
 8006994:	f000 fc6a 	bl	800726c <__mdiff>
 8006998:	68c2      	ldr	r2, [r0, #12]
 800699a:	4607      	mov	r7, r0
 800699c:	bb02      	cbnz	r2, 80069e0 <_dtoa_r+0xa60>
 800699e:	4601      	mov	r1, r0
 80069a0:	4650      	mov	r0, sl
 80069a2:	f000 fc47 	bl	8007234 <__mcmp>
 80069a6:	4602      	mov	r2, r0
 80069a8:	4639      	mov	r1, r7
 80069aa:	4628      	mov	r0, r5
 80069ac:	920c      	str	r2, [sp, #48]	; 0x30
 80069ae:	f000 fa07 	bl	8006dc0 <_Bfree>
 80069b2:	9b22      	ldr	r3, [sp, #136]	; 0x88
 80069b4:	9a0c      	ldr	r2, [sp, #48]	; 0x30
 80069b6:	9f08      	ldr	r7, [sp, #32]
 80069b8:	ea43 0102 	orr.w	r1, r3, r2
 80069bc:	9b0a      	ldr	r3, [sp, #40]	; 0x28
 80069be:	4319      	orrs	r1, r3
 80069c0:	d110      	bne.n	80069e4 <_dtoa_r+0xa64>
 80069c2:	f1b9 0f39 	cmp.w	r9, #57	; 0x39
 80069c6:	d029      	beq.n	8006a1c <_dtoa_r+0xa9c>
 80069c8:	9b09      	ldr	r3, [sp, #36]	; 0x24
 80069ca:	2b00      	cmp	r3, #0
 80069cc:	dd02      	ble.n	80069d4 <_dtoa_r+0xa54>
 80069ce:	9b06      	ldr	r3, [sp, #24]
 80069d0:	f103 0931 	add.w	r9, r3, #49	; 0x31
 80069d4:	9b04      	ldr	r3, [sp, #16]
 80069d6:	f883 9000 	strb.w	r9, [r3]
 80069da:	e777      	b.n	80068cc <_dtoa_r+0x94c>
 80069dc:	4630      	mov	r0, r6
 80069de:	e7ba      	b.n	8006956 <_dtoa_r+0x9d6>
 80069e0:	2201      	movs	r2, #1
 80069e2:	e7e1      	b.n	80069a8 <_dtoa_r+0xa28>
 80069e4:	9b09      	ldr	r3, [sp, #36]	; 0x24
 80069e6:	2b00      	cmp	r3, #0
 80069e8:	db04      	blt.n	80069f4 <_dtoa_r+0xa74>
 80069ea:	9922      	ldr	r1, [sp, #136]	; 0x88
 80069ec:	430b      	orrs	r3, r1
 80069ee:	990a      	ldr	r1, [sp, #40]	; 0x28
 80069f0:	430b      	orrs	r3, r1
 80069f2:	d120      	bne.n	8006a36 <_dtoa_r+0xab6>
 80069f4:	2a00      	cmp	r2, #0
 80069f6:	dded      	ble.n	80069d4 <_dtoa_r+0xa54>
 80069f8:	4651      	mov	r1, sl
 80069fa:	2201      	movs	r2, #1
 80069fc:	4628      	mov	r0, r5
 80069fe:	f000 fbad 	bl	800715c <__lshift>
 8006a02:	4621      	mov	r1, r4
 8006a04:	4682      	mov	sl, r0
 8006a06:	f000 fc15 	bl	8007234 <__mcmp>
 8006a0a:	2800      	cmp	r0, #0
 8006a0c:	dc03      	bgt.n	8006a16 <_dtoa_r+0xa96>
 8006a0e:	d1e1      	bne.n	80069d4 <_dtoa_r+0xa54>
 8006a10:	f019 0f01 	tst.w	r9, #1
 8006a14:	d0de      	beq.n	80069d4 <_dtoa_r+0xa54>
 8006a16:	f1b9 0f39 	cmp.w	r9, #57	; 0x39
 8006a1a:	d1d8      	bne.n	80069ce <_dtoa_r+0xa4e>
 8006a1c:	2339      	movs	r3, #57	; 0x39
 8006a1e:	9a04      	ldr	r2, [sp, #16]
 8006a20:	7013      	strb	r3, [r2, #0]
 8006a22:	463b      	mov	r3, r7
 8006a24:	461f      	mov	r7, r3
 8006a26:	f817 2c01 	ldrb.w	r2, [r7, #-1]
 8006a2a:	3b01      	subs	r3, #1
 8006a2c:	2a39      	cmp	r2, #57	; 0x39
 8006a2e:	d06b      	beq.n	8006b08 <_dtoa_r+0xb88>
 8006a30:	3201      	adds	r2, #1
 8006a32:	701a      	strb	r2, [r3, #0]
 8006a34:	e74a      	b.n	80068cc <_dtoa_r+0x94c>
 8006a36:	2a00      	cmp	r2, #0
 8006a38:	dd07      	ble.n	8006a4a <_dtoa_r+0xaca>
 8006a3a:	f1b9 0f39 	cmp.w	r9, #57	; 0x39
 8006a3e:	d0ed      	beq.n	8006a1c <_dtoa_r+0xa9c>
 8006a40:	9a04      	ldr	r2, [sp, #16]
 8006a42:	f109 0301 	add.w	r3, r9, #1
 8006a46:	7013      	strb	r3, [r2, #0]
 8006a48:	e740      	b.n	80068cc <_dtoa_r+0x94c>
 8006a4a:	9b08      	ldr	r3, [sp, #32]
 8006a4c:	9a0b      	ldr	r2, [sp, #44]	; 0x2c
 8006a4e:	f803 9c01 	strb.w	r9, [r3, #-1]
 8006a52:	4293      	cmp	r3, r2
 8006a54:	d042      	beq.n	8006adc <_dtoa_r+0xb5c>
 8006a56:	4651      	mov	r1, sl
 8006a58:	2300      	movs	r3, #0
 8006a5a:	220a      	movs	r2, #10
 8006a5c:	4628      	mov	r0, r5
 8006a5e:	f000 f9d1 	bl	8006e04 <__multadd>
 8006a62:	45b0      	cmp	r8, r6
 8006a64:	4682      	mov	sl, r0
 8006a66:	f04f 0300 	mov.w	r3, #0
 8006a6a:	f04f 020a 	mov.w	r2, #10
 8006a6e:	4641      	mov	r1, r8
 8006a70:	4628      	mov	r0, r5
 8006a72:	d107      	bne.n	8006a84 <_dtoa_r+0xb04>
 8006a74:	f000 f9c6 	bl	8006e04 <__multadd>
 8006a78:	4680      	mov	r8, r0
 8006a7a:	4606      	mov	r6, r0
 8006a7c:	9b08      	ldr	r3, [sp, #32]
 8006a7e:	3301      	adds	r3, #1
 8006a80:	9308      	str	r3, [sp, #32]
 8006a82:	e775      	b.n	8006970 <_dtoa_r+0x9f0>
 8006a84:	f000 f9be 	bl	8006e04 <__multadd>
 8006a88:	4631      	mov	r1, r6
 8006a8a:	4680      	mov	r8, r0
 8006a8c:	2300      	movs	r3, #0
 8006a8e:	220a      	movs	r2, #10
 8006a90:	4628      	mov	r0, r5
 8006a92:	f000 f9b7 	bl	8006e04 <__multadd>
 8006a96:	4606      	mov	r6, r0
 8006a98:	e7f0      	b.n	8006a7c <_dtoa_r+0xafc>
 8006a9a:	9b08      	ldr	r3, [sp, #32]
 8006a9c:	9306      	str	r3, [sp, #24]
 8006a9e:	9f03      	ldr	r7, [sp, #12]
 8006aa0:	4621      	mov	r1, r4
 8006aa2:	4650      	mov	r0, sl
 8006aa4:	f7ff f9e0 	bl	8005e68 <quorem>
 8006aa8:	9b03      	ldr	r3, [sp, #12]
 8006aaa:	f100 0930 	add.w	r9, r0, #48	; 0x30
 8006aae:	f807 9b01 	strb.w	r9, [r7], #1
 8006ab2:	1afa      	subs	r2, r7, r3
 8006ab4:	9b06      	ldr	r3, [sp, #24]
 8006ab6:	4293      	cmp	r3, r2
 8006ab8:	dd07      	ble.n	8006aca <_dtoa_r+0xb4a>
 8006aba:	4651      	mov	r1, sl
 8006abc:	2300      	movs	r3, #0
 8006abe:	220a      	movs	r2, #10
 8006ac0:	4628      	mov	r0, r5
 8006ac2:	f000 f99f 	bl	8006e04 <__multadd>
 8006ac6:	4682      	mov	sl, r0
 8006ac8:	e7ea      	b.n	8006aa0 <_dtoa_r+0xb20>
 8006aca:	9b06      	ldr	r3, [sp, #24]
 8006acc:	f04f 0800 	mov.w	r8, #0
 8006ad0:	2b00      	cmp	r3, #0
 8006ad2:	bfcc      	ite	gt
 8006ad4:	461f      	movgt	r7, r3
 8006ad6:	2701      	movle	r7, #1
 8006ad8:	9b03      	ldr	r3, [sp, #12]
 8006ada:	441f      	add	r7, r3
 8006adc:	4651      	mov	r1, sl
 8006ade:	2201      	movs	r2, #1
 8006ae0:	4628      	mov	r0, r5
 8006ae2:	f000 fb3b 	bl	800715c <__lshift>
 8006ae6:	4621      	mov	r1, r4
 8006ae8:	4682      	mov	sl, r0
 8006aea:	f000 fba3 	bl	8007234 <__mcmp>
 8006aee:	2800      	cmp	r0, #0
 8006af0:	dc97      	bgt.n	8006a22 <_dtoa_r+0xaa2>
 8006af2:	d102      	bne.n	8006afa <_dtoa_r+0xb7a>
 8006af4:	f019 0f01 	tst.w	r9, #1
 8006af8:	d193      	bne.n	8006a22 <_dtoa_r+0xaa2>
 8006afa:	463b      	mov	r3, r7
 8006afc:	461f      	mov	r7, r3
 8006afe:	f813 2d01 	ldrb.w	r2, [r3, #-1]!
 8006b02:	2a30      	cmp	r2, #48	; 0x30
 8006b04:	d0fa      	beq.n	8006afc <_dtoa_r+0xb7c>
 8006b06:	e6e1      	b.n	80068cc <_dtoa_r+0x94c>
 8006b08:	9a03      	ldr	r2, [sp, #12]
 8006b0a:	429a      	cmp	r2, r3
 8006b0c:	d18a      	bne.n	8006a24 <_dtoa_r+0xaa4>
 8006b0e:	2331      	movs	r3, #49	; 0x31
 8006b10:	f10b 0b01 	add.w	fp, fp, #1
 8006b14:	e797      	b.n	8006a46 <_dtoa_r+0xac6>
 8006b16:	4b0a      	ldr	r3, [pc, #40]	; (8006b40 <_dtoa_r+0xbc0>)
 8006b18:	f7ff ba9f 	b.w	800605a <_dtoa_r+0xda>
 8006b1c:	9b26      	ldr	r3, [sp, #152]	; 0x98
 8006b1e:	2b00      	cmp	r3, #0
 8006b20:	f47f aa77 	bne.w	8006012 <_dtoa_r+0x92>
 8006b24:	4b07      	ldr	r3, [pc, #28]	; (8006b44 <_dtoa_r+0xbc4>)
 8006b26:	f7ff ba98 	b.w	800605a <_dtoa_r+0xda>
 8006b2a:	9b06      	ldr	r3, [sp, #24]
 8006b2c:	2b00      	cmp	r3, #0
 8006b2e:	dcb6      	bgt.n	8006a9e <_dtoa_r+0xb1e>
 8006b30:	9b22      	ldr	r3, [sp, #136]	; 0x88
 8006b32:	2b02      	cmp	r3, #2
 8006b34:	f73f aeb5 	bgt.w	80068a2 <_dtoa_r+0x922>
 8006b38:	e7b1      	b.n	8006a9e <_dtoa_r+0xb1e>
 8006b3a:	bf00      	nop
 8006b3c:	08007cca 	.word	0x08007cca
 8006b40:	08007c2a 	.word	0x08007c2a
 8006b44:	08007c4e 	.word	0x08007c4e

08006b48 <_free_r>:
 8006b48:	b538      	push	{r3, r4, r5, lr}
 8006b4a:	4605      	mov	r5, r0
 8006b4c:	2900      	cmp	r1, #0
 8006b4e:	d040      	beq.n	8006bd2 <_free_r+0x8a>
 8006b50:	f851 3c04 	ldr.w	r3, [r1, #-4]
 8006b54:	1f0c      	subs	r4, r1, #4
 8006b56:	2b00      	cmp	r3, #0
 8006b58:	bfb8      	it	lt
 8006b5a:	18e4      	addlt	r4, r4, r3
 8006b5c:	f000 f8e4 	bl	8006d28 <__malloc_lock>
 8006b60:	4a1c      	ldr	r2, [pc, #112]	; (8006bd4 <_free_r+0x8c>)
 8006b62:	6813      	ldr	r3, [r2, #0]
 8006b64:	b933      	cbnz	r3, 8006b74 <_free_r+0x2c>
 8006b66:	6063      	str	r3, [r4, #4]
 8006b68:	6014      	str	r4, [r2, #0]
 8006b6a:	4628      	mov	r0, r5
 8006b6c:	e8bd 4038 	ldmia.w	sp!, {r3, r4, r5, lr}
 8006b70:	f000 b8e0 	b.w	8006d34 <__malloc_unlock>
 8006b74:	42a3      	cmp	r3, r4
 8006b76:	d908      	bls.n	8006b8a <_free_r+0x42>
 8006b78:	6820      	ldr	r0, [r4, #0]
 8006b7a:	1821      	adds	r1, r4, r0
 8006b7c:	428b      	cmp	r3, r1
 8006b7e:	bf01      	itttt	eq
 8006b80:	6819      	ldreq	r1, [r3, #0]
 8006b82:	685b      	ldreq	r3, [r3, #4]
 8006b84:	1809      	addeq	r1, r1, r0
 8006b86:	6021      	streq	r1, [r4, #0]
 8006b88:	e7ed      	b.n	8006b66 <_free_r+0x1e>
 8006b8a:	461a      	mov	r2, r3
 8006b8c:	685b      	ldr	r3, [r3, #4]
 8006b8e:	b10b      	cbz	r3, 8006b94 <_free_r+0x4c>
 8006b90:	42a3      	cmp	r3, r4
 8006b92:	d9fa      	bls.n	8006b8a <_free_r+0x42>
 8006b94:	6811      	ldr	r1, [r2, #0]
 8006b96:	1850      	adds	r0, r2, r1
 8006b98:	42a0      	cmp	r0, r4
 8006b9a:	d10b      	bne.n	8006bb4 <_free_r+0x6c>
 8006b9c:	6820      	ldr	r0, [r4, #0]
 8006b9e:	4401      	add	r1, r0
 8006ba0:	1850      	adds	r0, r2, r1
 8006ba2:	4283      	cmp	r3, r0
 8006ba4:	6011      	str	r1, [r2, #0]
 8006ba6:	d1e0      	bne.n	8006b6a <_free_r+0x22>
 8006ba8:	6818      	ldr	r0, [r3, #0]
 8006baa:	685b      	ldr	r3, [r3, #4]
 8006bac:	4408      	add	r0, r1
 8006bae:	6010      	str	r0, [r2, #0]
 8006bb0:	6053      	str	r3, [r2, #4]
 8006bb2:	e7da      	b.n	8006b6a <_free_r+0x22>
 8006bb4:	d902      	bls.n	8006bbc <_free_r+0x74>
 8006bb6:	230c      	movs	r3, #12
 8006bb8:	602b      	str	r3, [r5, #0]
 8006bba:	e7d6      	b.n	8006b6a <_free_r+0x22>
 8006bbc:	6820      	ldr	r0, [r4, #0]
 8006bbe:	1821      	adds	r1, r4, r0
 8006bc0:	428b      	cmp	r3, r1
 8006bc2:	bf01      	itttt	eq
 8006bc4:	6819      	ldreq	r1, [r3, #0]
 8006bc6:	685b      	ldreq	r3, [r3, #4]
 8006bc8:	1809      	addeq	r1, r1, r0
 8006bca:	6021      	streq	r1, [r4, #0]
 8006bcc:	6063      	str	r3, [r4, #4]
 8006bce:	6054      	str	r4, [r2, #4]
 8006bd0:	e7cb      	b.n	8006b6a <_free_r+0x22>
 8006bd2:	bd38      	pop	{r3, r4, r5, pc}
 8006bd4:	20000a14 	.word	0x20000a14

08006bd8 <malloc>:
 8006bd8:	4b02      	ldr	r3, [pc, #8]	; (8006be4 <malloc+0xc>)
 8006bda:	4601      	mov	r1, r0
 8006bdc:	6818      	ldr	r0, [r3, #0]
 8006bde:	f000 b823 	b.w	8006c28 <_malloc_r>
 8006be2:	bf00      	nop
 8006be4:	20000108 	.word	0x20000108

08006be8 <sbrk_aligned>:
 8006be8:	b570      	push	{r4, r5, r6, lr}
 8006bea:	4e0e      	ldr	r6, [pc, #56]	; (8006c24 <sbrk_aligned+0x3c>)
 8006bec:	460c      	mov	r4, r1
 8006bee:	6831      	ldr	r1, [r6, #0]
 8006bf0:	4605      	mov	r5, r0
 8006bf2:	b911      	cbnz	r1, 8006bfa <sbrk_aligned+0x12>
 8006bf4:	f000 fcc6 	bl	8007584 <_sbrk_r>
 8006bf8:	6030      	str	r0, [r6, #0]
 8006bfa:	4621      	mov	r1, r4
 8006bfc:	4628      	mov	r0, r5
 8006bfe:	f000 fcc1 	bl	8007584 <_sbrk_r>
 8006c02:	1c43      	adds	r3, r0, #1
 8006c04:	d00a      	beq.n	8006c1c <sbrk_aligned+0x34>
 8006c06:	1cc4      	adds	r4, r0, #3
 8006c08:	f024 0403 	bic.w	r4, r4, #3
 8006c0c:	42a0      	cmp	r0, r4
 8006c0e:	d007      	beq.n	8006c20 <sbrk_aligned+0x38>
 8006c10:	1a21      	subs	r1, r4, r0
 8006c12:	4628      	mov	r0, r5
 8006c14:	f000 fcb6 	bl	8007584 <_sbrk_r>
 8006c18:	3001      	adds	r0, #1
 8006c1a:	d101      	bne.n	8006c20 <sbrk_aligned+0x38>
 8006c1c:	f04f 34ff 	mov.w	r4, #4294967295
 8006c20:	4620      	mov	r0, r4
 8006c22:	bd70      	pop	{r4, r5, r6, pc}
 8006c24:	20000a18 	.word	0x20000a18

08006c28 <_malloc_r>:
 8006c28:	e92d 43f8 	stmdb	sp!, {r3, r4, r5, r6, r7, r8, r9, lr}
 8006c2c:	1ccd      	adds	r5, r1, #3
 8006c2e:	f025 0503 	bic.w	r5, r5, #3
 8006c32:	3508      	adds	r5, #8
 8006c34:	2d0c      	cmp	r5, #12
 8006c36:	bf38      	it	cc
 8006c38:	250c      	movcc	r5, #12
 8006c3a:	2d00      	cmp	r5, #0
 8006c3c:	4607      	mov	r7, r0
 8006c3e:	db01      	blt.n	8006c44 <_malloc_r+0x1c>
 8006c40:	42a9      	cmp	r1, r5
 8006c42:	d905      	bls.n	8006c50 <_malloc_r+0x28>
 8006c44:	230c      	movs	r3, #12
 8006c46:	2600      	movs	r6, #0
 8006c48:	603b      	str	r3, [r7, #0]
 8006c4a:	4630      	mov	r0, r6
 8006c4c:	e8bd 83f8 	ldmia.w	sp!, {r3, r4, r5, r6, r7, r8, r9, pc}
 8006c50:	f8df 80d0 	ldr.w	r8, [pc, #208]	; 8006d24 <_malloc_r+0xfc>
 8006c54:	f000 f868 	bl	8006d28 <__malloc_lock>
 8006c58:	f8d8 3000 	ldr.w	r3, [r8]
 8006c5c:	461c      	mov	r4, r3
 8006c5e:	bb5c      	cbnz	r4, 8006cb8 <_malloc_r+0x90>
 8006c60:	4629      	mov	r1, r5
 8006c62:	4638      	mov	r0, r7
 8006c64:	f7ff ffc0 	bl	8006be8 <sbrk_aligned>
 8006c68:	1c43      	adds	r3, r0, #1
 8006c6a:	4604      	mov	r4, r0
 8006c6c:	d155      	bne.n	8006d1a <_malloc_r+0xf2>
 8006c6e:	f8d8 4000 	ldr.w	r4, [r8]
 8006c72:	4626      	mov	r6, r4
 8006c74:	2e00      	cmp	r6, #0
 8006c76:	d145      	bne.n	8006d04 <_malloc_r+0xdc>
 8006c78:	2c00      	cmp	r4, #0
 8006c7a:	d048      	beq.n	8006d0e <_malloc_r+0xe6>
 8006c7c:	6823      	ldr	r3, [r4, #0]
 8006c7e:	4631      	mov	r1, r6
 8006c80:	4638      	mov	r0, r7
 8006c82:	eb04 0903 	add.w	r9, r4, r3
 8006c86:	f000 fc7d 	bl	8007584 <_sbrk_r>
 8006c8a:	4581      	cmp	r9, r0
 8006c8c:	d13f      	bne.n	8006d0e <_malloc_r+0xe6>
 8006c8e:	6821      	ldr	r1, [r4, #0]
 8006c90:	4638      	mov	r0, r7
 8006c92:	1a6d      	subs	r5, r5, r1
 8006c94:	4629      	mov	r1, r5
 8006c96:	f7ff ffa7 	bl	8006be8 <sbrk_aligned>
 8006c9a:	3001      	adds	r0, #1
 8006c9c:	d037      	beq.n	8006d0e <_malloc_r+0xe6>
 8006c9e:	6823      	ldr	r3, [r4, #0]
 8006ca0:	442b      	add	r3, r5
 8006ca2:	6023      	str	r3, [r4, #0]
 8006ca4:	f8d8 3000 	ldr.w	r3, [r8]
 8006ca8:	2b00      	cmp	r3, #0
 8006caa:	d038      	beq.n	8006d1e <_malloc_r+0xf6>
 8006cac:	685a      	ldr	r2, [r3, #4]
 8006cae:	42a2      	cmp	r2, r4
 8006cb0:	d12b      	bne.n	8006d0a <_malloc_r+0xe2>
 8006cb2:	2200      	movs	r2, #0
 8006cb4:	605a      	str	r2, [r3, #4]
 8006cb6:	e00f      	b.n	8006cd8 <_malloc_r+0xb0>
 8006cb8:	6822      	ldr	r2, [r4, #0]
 8006cba:	1b52      	subs	r2, r2, r5
 8006cbc:	d41f      	bmi.n	8006cfe <_malloc_r+0xd6>
 8006cbe:	2a0b      	cmp	r2, #11
 8006cc0:	d917      	bls.n	8006cf2 <_malloc_r+0xca>
 8006cc2:	1961      	adds	r1, r4, r5
 8006cc4:	42a3      	cmp	r3, r4
 8006cc6:	6025      	str	r5, [r4, #0]
 8006cc8:	bf18      	it	ne
 8006cca:	6059      	strne	r1, [r3, #4]
 8006ccc:	6863      	ldr	r3, [r4, #4]
 8006cce:	bf08      	it	eq
 8006cd0:	f8c8 1000 	streq.w	r1, [r8]
 8006cd4:	5162      	str	r2, [r4, r5]
 8006cd6:	604b      	str	r3, [r1, #4]
 8006cd8:	4638      	mov	r0, r7
 8006cda:	f104 060b 	add.w	r6, r4, #11
 8006cde:	f000 f829 	bl	8006d34 <__malloc_unlock>
 8006ce2:	f026 0607 	bic.w	r6, r6, #7
 8006ce6:	1d23      	adds	r3, r4, #4
 8006ce8:	1af2      	subs	r2, r6, r3
 8006cea:	d0ae      	beq.n	8006c4a <_malloc_r+0x22>
 8006cec:	1b9b      	subs	r3, r3, r6
 8006cee:	50a3      	str	r3, [r4, r2]
 8006cf0:	e7ab      	b.n	8006c4a <_malloc_r+0x22>
 8006cf2:	42a3      	cmp	r3, r4
 8006cf4:	6862      	ldr	r2, [r4, #4]
 8006cf6:	d1dd      	bne.n	8006cb4 <_malloc_r+0x8c>
 8006cf8:	f8c8 2000 	str.w	r2, [r8]
 8006cfc:	e7ec      	b.n	8006cd8 <_malloc_r+0xb0>
 8006cfe:	4623      	mov	r3, r4
 8006d00:	6864      	ldr	r4, [r4, #4]
 8006d02:	e7ac      	b.n	8006c5e <_malloc_r+0x36>
 8006d04:	4634      	mov	r4, r6
 8006d06:	6876      	ldr	r6, [r6, #4]
 8006d08:	e7b4      	b.n	8006c74 <_malloc_r+0x4c>
 8006d0a:	4613      	mov	r3, r2
 8006d0c:	e7cc      	b.n	8006ca8 <_malloc_r+0x80>
 8006d0e:	230c      	movs	r3, #12
 8006d10:	4638      	mov	r0, r7
 8006d12:	603b      	str	r3, [r7, #0]
 8006d14:	f000 f80e 	bl	8006d34 <__malloc_unlock>
 8006d18:	e797      	b.n	8006c4a <_malloc_r+0x22>
 8006d1a:	6025      	str	r5, [r4, #0]
 8006d1c:	e7dc      	b.n	8006cd8 <_malloc_r+0xb0>
 8006d1e:	605b      	str	r3, [r3, #4]
 8006d20:	deff      	udf	#255	; 0xff
 8006d22:	bf00      	nop
 8006d24:	20000a14 	.word	0x20000a14

08006d28 <__malloc_lock>:
 8006d28:	4801      	ldr	r0, [pc, #4]	; (8006d30 <__malloc_lock+0x8>)
 8006d2a:	f7ff b88d 	b.w	8005e48 <__retarget_lock_acquire_recursive>
 8006d2e:	bf00      	nop
 8006d30:	20000a10 	.word	0x20000a10

08006d34 <__malloc_unlock>:
 8006d34:	4801      	ldr	r0, [pc, #4]	; (8006d3c <__malloc_unlock+0x8>)
 8006d36:	f7ff b888 	b.w	8005e4a <__retarget_lock_release_recursive>
 8006d3a:	bf00      	nop
 8006d3c:	20000a10 	.word	0x20000a10

08006d40 <_Balloc>:
 8006d40:	b570      	push	{r4, r5, r6, lr}
 8006d42:	69c6      	ldr	r6, [r0, #28]
 8006d44:	4604      	mov	r4, r0
 8006d46:	460d      	mov	r5, r1
 8006d48:	b976      	cbnz	r6, 8006d68 <_Balloc+0x28>
 8006d4a:	2010      	movs	r0, #16
 8006d4c:	f7ff ff44 	bl	8006bd8 <malloc>
 8006d50:	4602      	mov	r2, r0
 8006d52:	61e0      	str	r0, [r4, #28]
 8006d54:	b920      	cbnz	r0, 8006d60 <_Balloc+0x20>
 8006d56:	216b      	movs	r1, #107	; 0x6b
 8006d58:	4b17      	ldr	r3, [pc, #92]	; (8006db8 <_Balloc+0x78>)
 8006d5a:	4818      	ldr	r0, [pc, #96]	; (8006dbc <_Balloc+0x7c>)
 8006d5c:	f000 fc30 	bl	80075c0 <__assert_func>
 8006d60:	e9c0 6601 	strd	r6, r6, [r0, #4]
 8006d64:	6006      	str	r6, [r0, #0]
 8006d66:	60c6      	str	r6, [r0, #12]
 8006d68:	69e6      	ldr	r6, [r4, #28]
 8006d6a:	68f3      	ldr	r3, [r6, #12]
 8006d6c:	b183      	cbz	r3, 8006d90 <_Balloc+0x50>
 8006d6e:	69e3      	ldr	r3, [r4, #28]
 8006d70:	68db      	ldr	r3, [r3, #12]
 8006d72:	f853 0025 	ldr.w	r0, [r3, r5, lsl #2]
 8006d76:	b9b8      	cbnz	r0, 8006da8 <_Balloc+0x68>
 8006d78:	2101      	movs	r1, #1
 8006d7a:	fa01 f605 	lsl.w	r6, r1, r5
 8006d7e:	1d72      	adds	r2, r6, #5
 8006d80:	4620      	mov	r0, r4
 8006d82:	0092      	lsls	r2, r2, #2
 8006d84:	f000 fc3a 	bl	80075fc <_calloc_r>
 8006d88:	b160      	cbz	r0, 8006da4 <_Balloc+0x64>
 8006d8a:	e9c0 5601 	strd	r5, r6, [r0, #4]
 8006d8e:	e00e      	b.n	8006dae <_Balloc+0x6e>
 8006d90:	2221      	movs	r2, #33	; 0x21
 8006d92:	2104      	movs	r1, #4
 8006d94:	4620      	mov	r0, r4
 8006d96:	f000 fc31 	bl	80075fc <_calloc_r>
 8006d9a:	69e3      	ldr	r3, [r4, #28]
 8006d9c:	60f0      	str	r0, [r6, #12]
 8006d9e:	68db      	ldr	r3, [r3, #12]
 8006da0:	2b00      	cmp	r3, #0
 8006da2:	d1e4      	bne.n	8006d6e <_Balloc+0x2e>
 8006da4:	2000      	movs	r0, #0
 8006da6:	bd70      	pop	{r4, r5, r6, pc}
 8006da8:	6802      	ldr	r2, [r0, #0]
 8006daa:	f843 2025 	str.w	r2, [r3, r5, lsl #2]
 8006dae:	2300      	movs	r3, #0
 8006db0:	e9c0 3303 	strd	r3, r3, [r0, #12]
 8006db4:	e7f7      	b.n	8006da6 <_Balloc+0x66>
 8006db6:	bf00      	nop
 8006db8:	08007c5b 	.word	0x08007c5b
 8006dbc:	08007cdb 	.word	0x08007cdb

08006dc0 <_Bfree>:
 8006dc0:	b570      	push	{r4, r5, r6, lr}
 8006dc2:	69c6      	ldr	r6, [r0, #28]
 8006dc4:	4605      	mov	r5, r0
 8006dc6:	460c      	mov	r4, r1
 8006dc8:	b976      	cbnz	r6, 8006de8 <_Bfree+0x28>
 8006dca:	2010      	movs	r0, #16
 8006dcc:	f7ff ff04 	bl	8006bd8 <malloc>
 8006dd0:	4602      	mov	r2, r0
 8006dd2:	61e8      	str	r0, [r5, #28]
 8006dd4:	b920      	cbnz	r0, 8006de0 <_Bfree+0x20>
 8006dd6:	218f      	movs	r1, #143	; 0x8f
 8006dd8:	4b08      	ldr	r3, [pc, #32]	; (8006dfc <_Bfree+0x3c>)
 8006dda:	4809      	ldr	r0, [pc, #36]	; (8006e00 <_Bfree+0x40>)
 8006ddc:	f000 fbf0 	bl	80075c0 <__assert_func>
 8006de0:	e9c0 6601 	strd	r6, r6, [r0, #4]
 8006de4:	6006      	str	r6, [r0, #0]
 8006de6:	60c6      	str	r6, [r0, #12]
 8006de8:	b13c      	cbz	r4, 8006dfa <_Bfree+0x3a>
 8006dea:	69eb      	ldr	r3, [r5, #28]
 8006dec:	6862      	ldr	r2, [r4, #4]
 8006dee:	68db      	ldr	r3, [r3, #12]
 8006df0:	f853 1022 	ldr.w	r1, [r3, r2, lsl #2]
 8006df4:	6021      	str	r1, [r4, #0]
 8006df6:	f843 4022 	str.w	r4, [r3, r2, lsl #2]
 8006dfa:	bd70      	pop	{r4, r5, r6, pc}
 8006dfc:	08007c5b 	.word	0x08007c5b
 8006e00:	08007cdb 	.word	0x08007cdb

08006e04 <__multadd>:
 8006e04:	e92d 41f0 	stmdb	sp!, {r4, r5, r6, r7, r8, lr}
 8006e08:	4607      	mov	r7, r0
 8006e0a:	460c      	mov	r4, r1
 8006e0c:	461e      	mov	r6, r3
 8006e0e:	2000      	movs	r0, #0
 8006e10:	690d      	ldr	r5, [r1, #16]
 8006e12:	f101 0c14 	add.w	ip, r1, #20
 8006e16:	f8dc 3000 	ldr.w	r3, [ip]
 8006e1a:	3001      	adds	r0, #1
 8006e1c:	b299      	uxth	r1, r3
 8006e1e:	fb02 6101 	mla	r1, r2, r1, r6
 8006e22:	0c1e      	lsrs	r6, r3, #16
 8006e24:	0c0b      	lsrs	r3, r1, #16
 8006e26:	fb02 3306 	mla	r3, r2, r6, r3
 8006e2a:	b289      	uxth	r1, r1
 8006e2c:	eb01 4103 	add.w	r1, r1, r3, lsl #16
 8006e30:	4285      	cmp	r5, r0
 8006e32:	ea4f 4613 	mov.w	r6, r3, lsr #16
 8006e36:	f84c 1b04 	str.w	r1, [ip], #4
 8006e3a:	dcec      	bgt.n	8006e16 <__multadd+0x12>
 8006e3c:	b30e      	cbz	r6, 8006e82 <__multadd+0x7e>
 8006e3e:	68a3      	ldr	r3, [r4, #8]
 8006e40:	42ab      	cmp	r3, r5
 8006e42:	dc19      	bgt.n	8006e78 <__multadd+0x74>
 8006e44:	6861      	ldr	r1, [r4, #4]
 8006e46:	4638      	mov	r0, r7
 8006e48:	3101      	adds	r1, #1
 8006e4a:	f7ff ff79 	bl	8006d40 <_Balloc>
 8006e4e:	4680      	mov	r8, r0
 8006e50:	b928      	cbnz	r0, 8006e5e <__multadd+0x5a>
 8006e52:	4602      	mov	r2, r0
 8006e54:	21ba      	movs	r1, #186	; 0xba
 8006e56:	4b0c      	ldr	r3, [pc, #48]	; (8006e88 <__multadd+0x84>)
 8006e58:	480c      	ldr	r0, [pc, #48]	; (8006e8c <__multadd+0x88>)
 8006e5a:	f000 fbb1 	bl	80075c0 <__assert_func>
 8006e5e:	6922      	ldr	r2, [r4, #16]
 8006e60:	f104 010c 	add.w	r1, r4, #12
 8006e64:	3202      	adds	r2, #2
 8006e66:	0092      	lsls	r2, r2, #2
 8006e68:	300c      	adds	r0, #12
 8006e6a:	f000 fb9b 	bl	80075a4 <memcpy>
 8006e6e:	4621      	mov	r1, r4
 8006e70:	4638      	mov	r0, r7
 8006e72:	f7ff ffa5 	bl	8006dc0 <_Bfree>
 8006e76:	4644      	mov	r4, r8
 8006e78:	eb04 0385 	add.w	r3, r4, r5, lsl #2
 8006e7c:	3501      	adds	r5, #1
 8006e7e:	615e      	str	r6, [r3, #20]
 8006e80:	6125      	str	r5, [r4, #16]
 8006e82:	4620      	mov	r0, r4
 8006e84:	e8bd 81f0 	ldmia.w	sp!, {r4, r5, r6, r7, r8, pc}
 8006e88:	08007cca 	.word	0x08007cca
 8006e8c:	08007cdb 	.word	0x08007cdb

08006e90 <__hi0bits>:
 8006e90:	0c02      	lsrs	r2, r0, #16
 8006e92:	0412      	lsls	r2, r2, #16
 8006e94:	4603      	mov	r3, r0
 8006e96:	b9ca      	cbnz	r2, 8006ecc <__hi0bits+0x3c>
 8006e98:	0403      	lsls	r3, r0, #16
 8006e9a:	2010      	movs	r0, #16
 8006e9c:	f013 4f7f 	tst.w	r3, #4278190080	; 0xff000000
 8006ea0:	bf04      	itt	eq
 8006ea2:	021b      	lsleq	r3, r3, #8
 8006ea4:	3008      	addeq	r0, #8
 8006ea6:	f013 4f70 	tst.w	r3, #4026531840	; 0xf0000000
 8006eaa:	bf04      	itt	eq
 8006eac:	011b      	lsleq	r3, r3, #4
 8006eae:	3004      	addeq	r0, #4
 8006eb0:	f013 4f40 	tst.w	r3, #3221225472	; 0xc0000000
 8006eb4:	bf04      	itt	eq
 8006eb6:	009b      	lsleq	r3, r3, #2
 8006eb8:	3002      	addeq	r0, #2
 8006eba:	2b00      	cmp	r3, #0
 8006ebc:	db05      	blt.n	8006eca <__hi0bits+0x3a>
 8006ebe:	f013 4f80 	tst.w	r3, #1073741824	; 0x40000000
 8006ec2:	f100 0001 	add.w	r0, r0, #1
 8006ec6:	bf08      	it	eq
 8006ec8:	2020      	moveq	r0, #32
 8006eca:	4770      	bx	lr
 8006ecc:	2000      	movs	r0, #0
 8006ece:	e7e5      	b.n	8006e9c <__hi0bits+0xc>

08006ed0 <__lo0bits>:
 8006ed0:	6803      	ldr	r3, [r0, #0]
 8006ed2:	4602      	mov	r2, r0
 8006ed4:	f013 0007 	ands.w	r0, r3, #7
 8006ed8:	d00b      	beq.n	8006ef2 <__lo0bits+0x22>
 8006eda:	07d9      	lsls	r1, r3, #31
 8006edc:	d421      	bmi.n	8006f22 <__lo0bits+0x52>
 8006ede:	0798      	lsls	r0, r3, #30
 8006ee0:	bf49      	itett	mi
 8006ee2:	085b      	lsrmi	r3, r3, #1
 8006ee4:	089b      	lsrpl	r3, r3, #2
 8006ee6:	2001      	movmi	r0, #1
 8006ee8:	6013      	strmi	r3, [r2, #0]
 8006eea:	bf5c      	itt	pl
 8006eec:	2002      	movpl	r0, #2
 8006eee:	6013      	strpl	r3, [r2, #0]
 8006ef0:	4770      	bx	lr
 8006ef2:	b299      	uxth	r1, r3
 8006ef4:	b909      	cbnz	r1, 8006efa <__lo0bits+0x2a>
 8006ef6:	2010      	movs	r0, #16
 8006ef8:	0c1b      	lsrs	r3, r3, #16
 8006efa:	b2d9      	uxtb	r1, r3
 8006efc:	b909      	cbnz	r1, 8006f02 <__lo0bits+0x32>
 8006efe:	3008      	adds	r0, #8
 8006f00:	0a1b      	lsrs	r3, r3, #8
 8006f02:	0719      	lsls	r1, r3, #28
 8006f04:	bf04      	itt	eq
 8006f06:	091b      	lsreq	r3, r3, #4
 8006f08:	3004      	addeq	r0, #4
 8006f0a:	0799      	lsls	r1, r3, #30
 8006f0c:	bf04      	itt	eq
 8006f0e:	089b      	lsreq	r3, r3, #2
 8006f10:	3002      	addeq	r0, #2
 8006f12:	07d9      	lsls	r1, r3, #31
 8006f14:	d403      	bmi.n	8006f1e <__lo0bits+0x4e>
 8006f16:	085b      	lsrs	r3, r3, #1
 8006f18:	f100 0001 	add.w	r0, r0, #1
 8006f1c:	d003      	beq.n	8006f26 <__lo0bits+0x56>
 8006f1e:	6013      	str	r3, [r2, #0]
 8006f20:	4770      	bx	lr
 8006f22:	2000      	movs	r0, #0
 8006f24:	4770      	bx	lr
 8006f26:	2020      	movs	r0, #32
 8006f28:	4770      	bx	lr
	...

08006f2c <__i2b>:
 8006f2c:	b510      	push	{r4, lr}
 8006f2e:	460c      	mov	r4, r1
 8006f30:	2101      	movs	r1, #1
 8006f32:	f7ff ff05 	bl	8006d40 <_Balloc>
 8006f36:	4602      	mov	r2, r0
 8006f38:	b928      	cbnz	r0, 8006f46 <__i2b+0x1a>
 8006f3a:	f240 1145 	movw	r1, #325	; 0x145
 8006f3e:	4b04      	ldr	r3, [pc, #16]	; (8006f50 <__i2b+0x24>)
 8006f40:	4804      	ldr	r0, [pc, #16]	; (8006f54 <__i2b+0x28>)
 8006f42:	f000 fb3d 	bl	80075c0 <__assert_func>
 8006f46:	2301      	movs	r3, #1
 8006f48:	6144      	str	r4, [r0, #20]
 8006f4a:	6103      	str	r3, [r0, #16]
 8006f4c:	bd10      	pop	{r4, pc}
 8006f4e:	bf00      	nop
 8006f50:	08007cca 	.word	0x08007cca
 8006f54:	08007cdb 	.word	0x08007cdb

08006f58 <__multiply>:
 8006f58:	e92d 4ff0 	stmdb	sp!, {r4, r5, r6, r7, r8, r9, sl, fp, lr}
 8006f5c:	4691      	mov	r9, r2
 8006f5e:	690a      	ldr	r2, [r1, #16]
 8006f60:	f8d9 3010 	ldr.w	r3, [r9, #16]
 8006f64:	460c      	mov	r4, r1
 8006f66:	429a      	cmp	r2, r3
 8006f68:	bfbe      	ittt	lt
 8006f6a:	460b      	movlt	r3, r1
 8006f6c:	464c      	movlt	r4, r9
 8006f6e:	4699      	movlt	r9, r3
 8006f70:	6927      	ldr	r7, [r4, #16]
 8006f72:	f8d9 a010 	ldr.w	sl, [r9, #16]
 8006f76:	68a3      	ldr	r3, [r4, #8]
 8006f78:	6861      	ldr	r1, [r4, #4]
 8006f7a:	eb07 060a 	add.w	r6, r7, sl
 8006f7e:	42b3      	cmp	r3, r6
 8006f80:	b085      	sub	sp, #20
 8006f82:	bfb8      	it	lt
 8006f84:	3101      	addlt	r1, #1
 8006f86:	f7ff fedb 	bl	8006d40 <_Balloc>
 8006f8a:	b930      	cbnz	r0, 8006f9a <__multiply+0x42>
 8006f8c:	4602      	mov	r2, r0
 8006f8e:	f44f 71b1 	mov.w	r1, #354	; 0x162
 8006f92:	4b43      	ldr	r3, [pc, #268]	; (80070a0 <__multiply+0x148>)
 8006f94:	4843      	ldr	r0, [pc, #268]	; (80070a4 <__multiply+0x14c>)
 8006f96:	f000 fb13 	bl	80075c0 <__assert_func>
 8006f9a:	f100 0514 	add.w	r5, r0, #20
 8006f9e:	462b      	mov	r3, r5
 8006fa0:	2200      	movs	r2, #0
 8006fa2:	eb05 0886 	add.w	r8, r5, r6, lsl #2
 8006fa6:	4543      	cmp	r3, r8
 8006fa8:	d321      	bcc.n	8006fee <__multiply+0x96>
 8006faa:	f104 0314 	add.w	r3, r4, #20
 8006fae:	eb03 0787 	add.w	r7, r3, r7, lsl #2
 8006fb2:	f109 0314 	add.w	r3, r9, #20
 8006fb6:	eb03 028a 	add.w	r2, r3, sl, lsl #2
 8006fba:	9202      	str	r2, [sp, #8]
 8006fbc:	1b3a      	subs	r2, r7, r4
 8006fbe:	3a15      	subs	r2, #21
 8006fc0:	f022 0203 	bic.w	r2, r2, #3
 8006fc4:	3204      	adds	r2, #4
 8006fc6:	f104 0115 	add.w	r1, r4, #21
 8006fca:	428f      	cmp	r7, r1
 8006fcc:	bf38      	it	cc
 8006fce:	2204      	movcc	r2, #4
 8006fd0:	9201      	str	r2, [sp, #4]
 8006fd2:	9a02      	ldr	r2, [sp, #8]
 8006fd4:	9303      	str	r3, [sp, #12]
 8006fd6:	429a      	cmp	r2, r3
 8006fd8:	d80c      	bhi.n	8006ff4 <__multiply+0x9c>
 8006fda:	2e00      	cmp	r6, #0
 8006fdc:	dd03      	ble.n	8006fe6 <__multiply+0x8e>
 8006fde:	f858 3d04 	ldr.w	r3, [r8, #-4]!
 8006fe2:	2b00      	cmp	r3, #0
 8006fe4:	d05a      	beq.n	800709c <__multiply+0x144>
 8006fe6:	6106      	str	r6, [r0, #16]
 8006fe8:	b005      	add	sp, #20
 8006fea:	e8bd 8ff0 	ldmia.w	sp!, {r4, r5, r6, r7, r8, r9, sl, fp, pc}
 8006fee:	f843 2b04 	str.w	r2, [r3], #4
 8006ff2:	e7d8      	b.n	8006fa6 <__multiply+0x4e>
 8006ff4:	f8b3 a000 	ldrh.w	sl, [r3]
 8006ff8:	f1ba 0f00 	cmp.w	sl, #0
 8006ffc:	d023      	beq.n	8007046 <__multiply+0xee>
 8006ffe:	46a9      	mov	r9, r5
 8007000:	f04f 0c00 	mov.w	ip, #0
 8007004:	f104 0e14 	add.w	lr, r4, #20
 8007008:	f85e 2b04 	ldr.w	r2, [lr], #4
 800700c:	f8d9 1000 	ldr.w	r1, [r9]
 8007010:	fa1f fb82 	uxth.w	fp, r2
 8007014:	b289      	uxth	r1, r1
 8007016:	fb0a 110b 	mla	r1, sl, fp, r1
 800701a:	4461      	add	r1, ip
 800701c:	f8d9 c000 	ldr.w	ip, [r9]
 8007020:	0c12      	lsrs	r2, r2, #16
 8007022:	ea4f 4c1c 	mov.w	ip, ip, lsr #16
 8007026:	fb0a c202 	mla	r2, sl, r2, ip
 800702a:	eb02 4211 	add.w	r2, r2, r1, lsr #16
 800702e:	b289      	uxth	r1, r1
 8007030:	ea41 4102 	orr.w	r1, r1, r2, lsl #16
 8007034:	4577      	cmp	r7, lr
 8007036:	ea4f 4c12 	mov.w	ip, r2, lsr #16
 800703a:	f849 1b04 	str.w	r1, [r9], #4
 800703e:	d8e3      	bhi.n	8007008 <__multiply+0xb0>
 8007040:	9a01      	ldr	r2, [sp, #4]
 8007042:	f845 c002 	str.w	ip, [r5, r2]
 8007046:	9a03      	ldr	r2, [sp, #12]
 8007048:	3304      	adds	r3, #4
 800704a:	f8b2 9002 	ldrh.w	r9, [r2, #2]
 800704e:	f1b9 0f00 	cmp.w	r9, #0
 8007052:	d021      	beq.n	8007098 <__multiply+0x140>
 8007054:	46ae      	mov	lr, r5
 8007056:	f04f 0a00 	mov.w	sl, #0
 800705a:	6829      	ldr	r1, [r5, #0]
 800705c:	f104 0c14 	add.w	ip, r4, #20
 8007060:	f8bc b000 	ldrh.w	fp, [ip]
 8007064:	f8be 2002 	ldrh.w	r2, [lr, #2]
 8007068:	b289      	uxth	r1, r1
 800706a:	fb09 220b 	mla	r2, r9, fp, r2
 800706e:	4452      	add	r2, sl
 8007070:	ea41 4102 	orr.w	r1, r1, r2, lsl #16
 8007074:	f84e 1b04 	str.w	r1, [lr], #4
 8007078:	f85c 1b04 	ldr.w	r1, [ip], #4
 800707c:	ea4f 4a11 	mov.w	sl, r1, lsr #16
 8007080:	f8be 1000 	ldrh.w	r1, [lr]
 8007084:	4567      	cmp	r7, ip
 8007086:	fb09 110a 	mla	r1, r9, sl, r1
 800708a:	eb01 4112 	add.w	r1, r1, r2, lsr #16
 800708e:	ea4f 4a11 	mov.w	sl, r1, lsr #16
 8007092:	d8e5      	bhi.n	8007060 <__multiply+0x108>
 8007094:	9a01      	ldr	r2, [sp, #4]
 8007096:	50a9      	str	r1, [r5, r2]
 8007098:	3504      	adds	r5, #4
 800709a:	e79a      	b.n	8006fd2 <__multiply+0x7a>
 800709c:	3e01      	subs	r6, #1
 800709e:	e79c      	b.n	8006fda <__multiply+0x82>
 80070a0:	08007cca 	.word	0x08007cca
 80070a4:	08007cdb 	.word	0x08007cdb

080070a8 <__pow5mult>:
 80070a8:	e92d 43f8 	stmdb	sp!, {r3, r4, r5, r6, r7, r8, r9, lr}
 80070ac:	4615      	mov	r5, r2
 80070ae:	f012 0203 	ands.w	r2, r2, #3
 80070b2:	4606      	mov	r6, r0
 80070b4:	460f      	mov	r7, r1
 80070b6:	d007      	beq.n	80070c8 <__pow5mult+0x20>
 80070b8:	4c25      	ldr	r4, [pc, #148]	; (8007150 <__pow5mult+0xa8>)
 80070ba:	3a01      	subs	r2, #1
 80070bc:	2300      	movs	r3, #0
 80070be:	f854 2022 	ldr.w	r2, [r4, r2, lsl #2]
 80070c2:	f7ff fe9f 	bl	8006e04 <__multadd>
 80070c6:	4607      	mov	r7, r0
 80070c8:	10ad      	asrs	r5, r5, #2
 80070ca:	d03d      	beq.n	8007148 <__pow5mult+0xa0>
 80070cc:	69f4      	ldr	r4, [r6, #28]
 80070ce:	b97c      	cbnz	r4, 80070f0 <__pow5mult+0x48>
 80070d0:	2010      	movs	r0, #16
 80070d2:	f7ff fd81 	bl	8006bd8 <malloc>
 80070d6:	4602      	mov	r2, r0
 80070d8:	61f0      	str	r0, [r6, #28]
 80070da:	b928      	cbnz	r0, 80070e8 <__pow5mult+0x40>
 80070dc:	f240 11b3 	movw	r1, #435	; 0x1b3
 80070e0:	4b1c      	ldr	r3, [pc, #112]	; (8007154 <__pow5mult+0xac>)
 80070e2:	481d      	ldr	r0, [pc, #116]	; (8007158 <__pow5mult+0xb0>)
 80070e4:	f000 fa6c 	bl	80075c0 <__assert_func>
 80070e8:	e9c0 4401 	strd	r4, r4, [r0, #4]
 80070ec:	6004      	str	r4, [r0, #0]
 80070ee:	60c4      	str	r4, [r0, #12]
 80070f0:	f8d6 801c 	ldr.w	r8, [r6, #28]
 80070f4:	f8d8 4008 	ldr.w	r4, [r8, #8]
 80070f8:	b94c      	cbnz	r4, 800710e <__pow5mult+0x66>
 80070fa:	f240 2171 	movw	r1, #625	; 0x271
 80070fe:	4630      	mov	r0, r6
 8007100:	f7ff ff14 	bl	8006f2c <__i2b>
 8007104:	2300      	movs	r3, #0
 8007106:	4604      	mov	r4, r0
 8007108:	f8c8 0008 	str.w	r0, [r8, #8]
 800710c:	6003      	str	r3, [r0, #0]
 800710e:	f04f 0900 	mov.w	r9, #0
 8007112:	07eb      	lsls	r3, r5, #31
 8007114:	d50a      	bpl.n	800712c <__pow5mult+0x84>
 8007116:	4639      	mov	r1, r7
 8007118:	4622      	mov	r2, r4
 800711a:	4630      	mov	r0, r6
 800711c:	f7ff ff1c 	bl	8006f58 <__multiply>
 8007120:	4680      	mov	r8, r0
 8007122:	4639      	mov	r1, r7
 8007124:	4630      	mov	r0, r6
 8007126:	f7ff fe4b 	bl	8006dc0 <_Bfree>
 800712a:	4647      	mov	r7, r8
 800712c:	106d      	asrs	r5, r5, #1
 800712e:	d00b      	beq.n	8007148 <__pow5mult+0xa0>
 8007130:	6820      	ldr	r0, [r4, #0]
 8007132:	b938      	cbnz	r0, 8007144 <__pow5mult+0x9c>
 8007134:	4622      	mov	r2, r4
 8007136:	4621      	mov	r1, r4
 8007138:	4630      	mov	r0, r6
 800713a:	f7ff ff0d 	bl	8006f58 <__multiply>
 800713e:	6020      	str	r0, [r4, #0]
 8007140:	f8c0 9000 	str.w	r9, [r0]
 8007144:	4604      	mov	r4, r0
 8007146:	e7e4      	b.n	8007112 <__pow5mult+0x6a>
 8007148:	4638      	mov	r0, r7
 800714a:	e8bd 83f8 	ldmia.w	sp!, {r3, r4, r5, r6, r7, r8, r9, pc}
 800714e:	bf00      	nop
 8007150:	08007e28 	.word	0x08007e28
 8007154:	08007c5b 	.word	0x08007c5b
 8007158:	08007cdb 	.word	0x08007cdb

0800715c <__lshift>:
 800715c:	e92d 47f0 	stmdb	sp!, {r4, r5, r6, r7, r8, r9, sl, lr}
 8007160:	460c      	mov	r4, r1
 8007162:	4607      	mov	r7, r0
 8007164:	4691      	mov	r9, r2
 8007166:	6923      	ldr	r3, [r4, #16]
 8007168:	6849      	ldr	r1, [r1, #4]
 800716a:	eb03 1862 	add.w	r8, r3, r2, asr #5
 800716e:	68a3      	ldr	r3, [r4, #8]
 8007170:	ea4f 1a62 	mov.w	sl, r2, asr #5
 8007174:	f108 0601 	add.w	r6, r8, #1
 8007178:	42b3      	cmp	r3, r6
 800717a:	db0b      	blt.n	8007194 <__lshift+0x38>
 800717c:	4638      	mov	r0, r7
 800717e:	f7ff fddf 	bl	8006d40 <_Balloc>
 8007182:	4605      	mov	r5, r0
 8007184:	b948      	cbnz	r0, 800719a <__lshift+0x3e>
 8007186:	4602      	mov	r2, r0
 8007188:	f44f 71ef 	mov.w	r1, #478	; 0x1de
 800718c:	4b27      	ldr	r3, [pc, #156]	; (800722c <__lshift+0xd0>)
 800718e:	4828      	ldr	r0, [pc, #160]	; (8007230 <__lshift+0xd4>)
 8007190:	f000 fa16 	bl	80075c0 <__assert_func>
 8007194:	3101      	adds	r1, #1
 8007196:	005b      	lsls	r3, r3, #1
 8007198:	e7ee      	b.n	8007178 <__lshift+0x1c>
 800719a:	2300      	movs	r3, #0
 800719c:	f100 0114 	add.w	r1, r0, #20
 80071a0:	f100 0210 	add.w	r2, r0, #16
 80071a4:	4618      	mov	r0, r3
 80071a6:	4553      	cmp	r3, sl
 80071a8:	db33      	blt.n	8007212 <__lshift+0xb6>
 80071aa:	6920      	ldr	r0, [r4, #16]
 80071ac:	ea2a 7aea 	bic.w	sl, sl, sl, asr #31
 80071b0:	f104 0314 	add.w	r3, r4, #20
 80071b4:	f019 091f 	ands.w	r9, r9, #31
 80071b8:	eb01 018a 	add.w	r1, r1, sl, lsl #2
 80071bc:	eb03 0c80 	add.w	ip, r3, r0, lsl #2
 80071c0:	d02b      	beq.n	800721a <__lshift+0xbe>
 80071c2:	468a      	mov	sl, r1
 80071c4:	2200      	movs	r2, #0
 80071c6:	f1c9 0e20 	rsb	lr, r9, #32
 80071ca:	6818      	ldr	r0, [r3, #0]
 80071cc:	fa00 f009 	lsl.w	r0, r0, r9
 80071d0:	4310      	orrs	r0, r2
 80071d2:	f84a 0b04 	str.w	r0, [sl], #4
 80071d6:	f853 2b04 	ldr.w	r2, [r3], #4
 80071da:	459c      	cmp	ip, r3
 80071dc:	fa22 f20e 	lsr.w	r2, r2, lr
 80071e0:	d8f3      	bhi.n	80071ca <__lshift+0x6e>
 80071e2:	ebac 0304 	sub.w	r3, ip, r4
 80071e6:	3b15      	subs	r3, #21
 80071e8:	f023 0303 	bic.w	r3, r3, #3
 80071ec:	3304      	adds	r3, #4
 80071ee:	f104 0015 	add.w	r0, r4, #21
 80071f2:	4584      	cmp	ip, r0
 80071f4:	bf38      	it	cc
 80071f6:	2304      	movcc	r3, #4
 80071f8:	50ca      	str	r2, [r1, r3]
 80071fa:	b10a      	cbz	r2, 8007200 <__lshift+0xa4>
 80071fc:	f108 0602 	add.w	r6, r8, #2
 8007200:	3e01      	subs	r6, #1
 8007202:	4638      	mov	r0, r7
 8007204:	4621      	mov	r1, r4
 8007206:	612e      	str	r6, [r5, #16]
 8007208:	f7ff fdda 	bl	8006dc0 <_Bfree>
 800720c:	4628      	mov	r0, r5
 800720e:	e8bd 87f0 	ldmia.w	sp!, {r4, r5, r6, r7, r8, r9, sl, pc}
 8007212:	f842 0f04 	str.w	r0, [r2, #4]!
 8007216:	3301      	adds	r3, #1
 8007218:	e7c5      	b.n	80071a6 <__lshift+0x4a>
 800721a:	3904      	subs	r1, #4
 800721c:	f853 2b04 	ldr.w	r2, [r3], #4
 8007220:	459c      	cmp	ip, r3
 8007222:	f841 2f04 	str.w	r2, [r1, #4]!
 8007226:	d8f9      	bhi.n	800721c <__lshift+0xc0>
 8007228:	e7ea      	b.n	8007200 <__lshift+0xa4>
 800722a:	bf00      	nop
 800722c:	08007cca 	.word	0x08007cca
 8007230:	08007cdb 	.word	0x08007cdb

08007234 <__mcmp>:
 8007234:	4603      	mov	r3, r0
 8007236:	690a      	ldr	r2, [r1, #16]
 8007238:	6900      	ldr	r0, [r0, #16]
 800723a:	b530      	push	{r4, r5, lr}
 800723c:	1a80      	subs	r0, r0, r2
 800723e:	d10d      	bne.n	800725c <__mcmp+0x28>
 8007240:	3314      	adds	r3, #20
 8007242:	3114      	adds	r1, #20
 8007244:	eb03 0482 	add.w	r4, r3, r2, lsl #2
 8007248:	eb01 0182 	add.w	r1, r1, r2, lsl #2
 800724c:	f854 5d04 	ldr.w	r5, [r4, #-4]!
 8007250:	f851 2d04 	ldr.w	r2, [r1, #-4]!
 8007254:	4295      	cmp	r5, r2
 8007256:	d002      	beq.n	800725e <__mcmp+0x2a>
 8007258:	d304      	bcc.n	8007264 <__mcmp+0x30>
 800725a:	2001      	movs	r0, #1
 800725c:	bd30      	pop	{r4, r5, pc}
 800725e:	42a3      	cmp	r3, r4
 8007260:	d3f4      	bcc.n	800724c <__mcmp+0x18>
 8007262:	e7fb      	b.n	800725c <__mcmp+0x28>
 8007264:	f04f 30ff 	mov.w	r0, #4294967295
 8007268:	e7f8      	b.n	800725c <__mcmp+0x28>
	...

0800726c <__mdiff>:
 800726c:	e92d 4ff8 	stmdb	sp!, {r3, r4, r5, r6, r7, r8, r9, sl, fp, lr}
 8007270:	460d      	mov	r5, r1
 8007272:	4607      	mov	r7, r0
 8007274:	4611      	mov	r1, r2
 8007276:	4628      	mov	r0, r5
 8007278:	4614      	mov	r4, r2
 800727a:	f7ff ffdb 	bl	8007234 <__mcmp>
 800727e:	1e06      	subs	r6, r0, #0
 8007280:	d111      	bne.n	80072a6 <__mdiff+0x3a>
 8007282:	4631      	mov	r1, r6
 8007284:	4638      	mov	r0, r7
 8007286:	f7ff fd5b 	bl	8006d40 <_Balloc>
 800728a:	4602      	mov	r2, r0
 800728c:	b928      	cbnz	r0, 800729a <__mdiff+0x2e>
 800728e:	f240 2137 	movw	r1, #567	; 0x237
 8007292:	4b3a      	ldr	r3, [pc, #232]	; (800737c <__mdiff+0x110>)
 8007294:	483a      	ldr	r0, [pc, #232]	; (8007380 <__mdiff+0x114>)
 8007296:	f000 f993 	bl	80075c0 <__assert_func>
 800729a:	2301      	movs	r3, #1
 800729c:	e9c0 3604 	strd	r3, r6, [r0, #16]
 80072a0:	4610      	mov	r0, r2
 80072a2:	e8bd 8ff8 	ldmia.w	sp!, {r3, r4, r5, r6, r7, r8, r9, sl, fp, pc}
 80072a6:	bfa4      	itt	ge
 80072a8:	4623      	movge	r3, r4
 80072aa:	462c      	movge	r4, r5
 80072ac:	4638      	mov	r0, r7
 80072ae:	6861      	ldr	r1, [r4, #4]
 80072b0:	bfa6      	itte	ge
 80072b2:	461d      	movge	r5, r3
 80072b4:	2600      	movge	r6, #0
 80072b6:	2601      	movlt	r6, #1
 80072b8:	f7ff fd42 	bl	8006d40 <_Balloc>
 80072bc:	4602      	mov	r2, r0
 80072be:	b918      	cbnz	r0, 80072c8 <__mdiff+0x5c>
 80072c0:	f240 2145 	movw	r1, #581	; 0x245
 80072c4:	4b2d      	ldr	r3, [pc, #180]	; (800737c <__mdiff+0x110>)
 80072c6:	e7e5      	b.n	8007294 <__mdiff+0x28>
 80072c8:	f102 0814 	add.w	r8, r2, #20
 80072cc:	46c2      	mov	sl, r8
 80072ce:	f04f 0c00 	mov.w	ip, #0
 80072d2:	6927      	ldr	r7, [r4, #16]
 80072d4:	60c6      	str	r6, [r0, #12]
 80072d6:	692e      	ldr	r6, [r5, #16]
 80072d8:	f104 0014 	add.w	r0, r4, #20
 80072dc:	f105 0914 	add.w	r9, r5, #20
 80072e0:	eb00 0e87 	add.w	lr, r0, r7, lsl #2
 80072e4:	eb09 0686 	add.w	r6, r9, r6, lsl #2
 80072e8:	3410      	adds	r4, #16
 80072ea:	f854 bf04 	ldr.w	fp, [r4, #4]!
 80072ee:	f859 3b04 	ldr.w	r3, [r9], #4
 80072f2:	fa1f f18b 	uxth.w	r1, fp
 80072f6:	4461      	add	r1, ip
 80072f8:	fa1f fc83 	uxth.w	ip, r3
 80072fc:	0c1b      	lsrs	r3, r3, #16
 80072fe:	eba1 010c 	sub.w	r1, r1, ip
 8007302:	ebc3 431b 	rsb	r3, r3, fp, lsr #16
 8007306:	eb03 4321 	add.w	r3, r3, r1, asr #16
 800730a:	b289      	uxth	r1, r1
 800730c:	ea41 4103 	orr.w	r1, r1, r3, lsl #16
 8007310:	454e      	cmp	r6, r9
 8007312:	ea4f 4c23 	mov.w	ip, r3, asr #16
 8007316:	f84a 1b04 	str.w	r1, [sl], #4
 800731a:	d8e6      	bhi.n	80072ea <__mdiff+0x7e>
 800731c:	1b73      	subs	r3, r6, r5
 800731e:	3b15      	subs	r3, #21
 8007320:	f023 0303 	bic.w	r3, r3, #3
 8007324:	3515      	adds	r5, #21
 8007326:	3304      	adds	r3, #4
 8007328:	42ae      	cmp	r6, r5
 800732a:	bf38      	it	cc
 800732c:	2304      	movcc	r3, #4
 800732e:	4418      	add	r0, r3
 8007330:	4443      	add	r3, r8
 8007332:	461e      	mov	r6, r3
 8007334:	4605      	mov	r5, r0
 8007336:	4575      	cmp	r5, lr
 8007338:	d30e      	bcc.n	8007358 <__mdiff+0xec>
 800733a:	f10e 0103 	add.w	r1, lr, #3
 800733e:	1a09      	subs	r1, r1, r0
 8007340:	f021 0103 	bic.w	r1, r1, #3
 8007344:	3803      	subs	r0, #3
 8007346:	4586      	cmp	lr, r0
 8007348:	bf38      	it	cc
 800734a:	2100      	movcc	r1, #0
 800734c:	440b      	add	r3, r1
 800734e:	f853 1d04 	ldr.w	r1, [r3, #-4]!
 8007352:	b189      	cbz	r1, 8007378 <__mdiff+0x10c>
 8007354:	6117      	str	r7, [r2, #16]
 8007356:	e7a3      	b.n	80072a0 <__mdiff+0x34>
 8007358:	f855 8b04 	ldr.w	r8, [r5], #4
 800735c:	fa1f f188 	uxth.w	r1, r8
 8007360:	4461      	add	r1, ip
 8007362:	140c      	asrs	r4, r1, #16
 8007364:	eb04 4418 	add.w	r4, r4, r8, lsr #16
 8007368:	b289      	uxth	r1, r1
 800736a:	ea41 4104 	orr.w	r1, r1, r4, lsl #16
 800736e:	ea4f 4c24 	mov.w	ip, r4, asr #16
 8007372:	f846 1b04 	str.w	r1, [r6], #4
 8007376:	e7de      	b.n	8007336 <__mdiff+0xca>
 8007378:	3f01      	subs	r7, #1
 800737a:	e7e8      	b.n	800734e <__mdiff+0xe2>
 800737c:	08007cca 	.word	0x08007cca
 8007380:	08007cdb 	.word	0x08007cdb

08007384 <__d2b>:
 8007384:	b5f7      	push	{r0, r1, r2, r4, r5, r6, r7, lr}
 8007386:	2101      	movs	r1, #1
 8007388:	4617      	mov	r7, r2
 800738a:	461c      	mov	r4, r3
 800738c:	9e08      	ldr	r6, [sp, #32]
 800738e:	f7ff fcd7 	bl	8006d40 <_Balloc>
 8007392:	4605      	mov	r5, r0
 8007394:	b930      	cbnz	r0, 80073a4 <__d2b+0x20>
 8007396:	4602      	mov	r2, r0
 8007398:	f240 310f 	movw	r1, #783	; 0x30f
 800739c:	4b22      	ldr	r3, [pc, #136]	; (8007428 <__d2b+0xa4>)
 800739e:	4823      	ldr	r0, [pc, #140]	; (800742c <__d2b+0xa8>)
 80073a0:	f000 f90e 	bl	80075c0 <__assert_func>
 80073a4:	f3c4 0313 	ubfx	r3, r4, #0, #20
 80073a8:	f3c4 540a 	ubfx	r4, r4, #20, #11
 80073ac:	bb24      	cbnz	r4, 80073f8 <__d2b+0x74>
 80073ae:	2f00      	cmp	r7, #0
 80073b0:	9301      	str	r3, [sp, #4]
 80073b2:	d026      	beq.n	8007402 <__d2b+0x7e>
 80073b4:	4668      	mov	r0, sp
 80073b6:	9700      	str	r7, [sp, #0]
 80073b8:	f7ff fd8a 	bl	8006ed0 <__lo0bits>
 80073bc:	e9dd 1200 	ldrd	r1, r2, [sp]
 80073c0:	b1e8      	cbz	r0, 80073fe <__d2b+0x7a>
 80073c2:	f1c0 0320 	rsb	r3, r0, #32
 80073c6:	fa02 f303 	lsl.w	r3, r2, r3
 80073ca:	430b      	orrs	r3, r1
 80073cc:	40c2      	lsrs	r2, r0
 80073ce:	616b      	str	r3, [r5, #20]
 80073d0:	9201      	str	r2, [sp, #4]
 80073d2:	9b01      	ldr	r3, [sp, #4]
 80073d4:	2b00      	cmp	r3, #0
 80073d6:	bf14      	ite	ne
 80073d8:	2102      	movne	r1, #2
 80073da:	2101      	moveq	r1, #1
 80073dc:	61ab      	str	r3, [r5, #24]
 80073de:	6129      	str	r1, [r5, #16]
 80073e0:	b1bc      	cbz	r4, 8007412 <__d2b+0x8e>
 80073e2:	f2a4 4433 	subw	r4, r4, #1075	; 0x433
 80073e6:	4404      	add	r4, r0
 80073e8:	6034      	str	r4, [r6, #0]
 80073ea:	f1c0 0035 	rsb	r0, r0, #53	; 0x35
 80073ee:	9b09      	ldr	r3, [sp, #36]	; 0x24
 80073f0:	6018      	str	r0, [r3, #0]
 80073f2:	4628      	mov	r0, r5
 80073f4:	b003      	add	sp, #12
 80073f6:	bdf0      	pop	{r4, r5, r6, r7, pc}
 80073f8:	f443 1380 	orr.w	r3, r3, #1048576	; 0x100000
 80073fc:	e7d7      	b.n	80073ae <__d2b+0x2a>
 80073fe:	6169      	str	r1, [r5, #20]
 8007400:	e7e7      	b.n	80073d2 <__d2b+0x4e>
 8007402:	a801      	add	r0, sp, #4
 8007404:	f7ff fd64 	bl	8006ed0 <__lo0bits>
 8007408:	9b01      	ldr	r3, [sp, #4]
 800740a:	2101      	movs	r1, #1
 800740c:	616b      	str	r3, [r5, #20]
 800740e:	3020      	adds	r0, #32
 8007410:	e7e5      	b.n	80073de <__d2b+0x5a>
 8007412:	f2a0 4032 	subw	r0, r0, #1074	; 0x432
 8007416:	eb05 0381 	add.w	r3, r5, r1, lsl #2
 800741a:	6030      	str	r0, [r6, #0]
 800741c:	6918      	ldr	r0, [r3, #16]
 800741e:	f7ff fd37 	bl	8006e90 <__hi0bits>
 8007422:	ebc0 1041 	rsb	r0, r0, r1, lsl #5
 8007426:	e7e2      	b.n	80073ee <__d2b+0x6a>
 8007428:	08007cca 	.word	0x08007cca
 800742c:	08007cdb 	.word	0x08007cdb

08007430 <__sflush_r>:
 8007430:	898a      	ldrh	r2, [r1, #12]
 8007432:	b5f8      	push	{r3, r4, r5, r6, r7, lr}
 8007434:	4605      	mov	r5, r0
 8007436:	0710      	lsls	r0, r2, #28
 8007438:	460c      	mov	r4, r1
 800743a:	d457      	bmi.n	80074ec <__sflush_r+0xbc>
 800743c:	684b      	ldr	r3, [r1, #4]
 800743e:	2b00      	cmp	r3, #0
 8007440:	dc04      	bgt.n	800744c <__sflush_r+0x1c>
 8007442:	6c0b      	ldr	r3, [r1, #64]	; 0x40
 8007444:	2b00      	cmp	r3, #0
 8007446:	dc01      	bgt.n	800744c <__sflush_r+0x1c>
 8007448:	2000      	movs	r0, #0
 800744a:	bdf8      	pop	{r3, r4, r5, r6, r7, pc}
 800744c:	6ae6      	ldr	r6, [r4, #44]	; 0x2c
 800744e:	2e00      	cmp	r6, #0
 8007450:	d0fa      	beq.n	8007448 <__sflush_r+0x18>
 8007452:	2300      	movs	r3, #0
 8007454:	f412 5280 	ands.w	r2, r2, #4096	; 0x1000
 8007458:	682f      	ldr	r7, [r5, #0]
 800745a:	6a21      	ldr	r1, [r4, #32]
 800745c:	602b      	str	r3, [r5, #0]
 800745e:	d032      	beq.n	80074c6 <__sflush_r+0x96>
 8007460:	6d60      	ldr	r0, [r4, #84]	; 0x54
 8007462:	89a3      	ldrh	r3, [r4, #12]
 8007464:	075a      	lsls	r2, r3, #29
 8007466:	d505      	bpl.n	8007474 <__sflush_r+0x44>
 8007468:	6863      	ldr	r3, [r4, #4]
 800746a:	1ac0      	subs	r0, r0, r3
 800746c:	6b63      	ldr	r3, [r4, #52]	; 0x34
 800746e:	b10b      	cbz	r3, 8007474 <__sflush_r+0x44>
 8007470:	6c23      	ldr	r3, [r4, #64]	; 0x40
 8007472:	1ac0      	subs	r0, r0, r3
 8007474:	2300      	movs	r3, #0
 8007476:	4602      	mov	r2, r0
 8007478:	6ae6      	ldr	r6, [r4, #44]	; 0x2c
 800747a:	4628      	mov	r0, r5
 800747c:	6a21      	ldr	r1, [r4, #32]
 800747e:	47b0      	blx	r6
 8007480:	1c43      	adds	r3, r0, #1
 8007482:	89a3      	ldrh	r3, [r4, #12]
 8007484:	d106      	bne.n	8007494 <__sflush_r+0x64>
 8007486:	6829      	ldr	r1, [r5, #0]
 8007488:	291d      	cmp	r1, #29
 800748a:	d82b      	bhi.n	80074e4 <__sflush_r+0xb4>
 800748c:	4a28      	ldr	r2, [pc, #160]	; (8007530 <__sflush_r+0x100>)
 800748e:	410a      	asrs	r2, r1
 8007490:	07d6      	lsls	r6, r2, #31
 8007492:	d427      	bmi.n	80074e4 <__sflush_r+0xb4>
 8007494:	2200      	movs	r2, #0
 8007496:	6062      	str	r2, [r4, #4]
 8007498:	6922      	ldr	r2, [r4, #16]
 800749a:	04d9      	lsls	r1, r3, #19
 800749c:	6022      	str	r2, [r4, #0]
 800749e:	d504      	bpl.n	80074aa <__sflush_r+0x7a>
 80074a0:	1c42      	adds	r2, r0, #1
 80074a2:	d101      	bne.n	80074a8 <__sflush_r+0x78>
 80074a4:	682b      	ldr	r3, [r5, #0]
 80074a6:	b903      	cbnz	r3, 80074aa <__sflush_r+0x7a>
 80074a8:	6560      	str	r0, [r4, #84]	; 0x54
 80074aa:	6b61      	ldr	r1, [r4, #52]	; 0x34
 80074ac:	602f      	str	r7, [r5, #0]
 80074ae:	2900      	cmp	r1, #0
 80074b0:	d0ca      	beq.n	8007448 <__sflush_r+0x18>
 80074b2:	f104 0344 	add.w	r3, r4, #68	; 0x44
 80074b6:	4299      	cmp	r1, r3
 80074b8:	d002      	beq.n	80074c0 <__sflush_r+0x90>
 80074ba:	4628      	mov	r0, r5
 80074bc:	f7ff fb44 	bl	8006b48 <_free_r>
 80074c0:	2000      	movs	r0, #0
 80074c2:	6360      	str	r0, [r4, #52]	; 0x34
 80074c4:	e7c1      	b.n	800744a <__sflush_r+0x1a>
 80074c6:	2301      	movs	r3, #1
 80074c8:	4628      	mov	r0, r5
 80074ca:	47b0      	blx	r6
 80074cc:	1c41      	adds	r1, r0, #1
 80074ce:	d1c8      	bne.n	8007462 <__sflush_r+0x32>
 80074d0:	682b      	ldr	r3, [r5, #0]
 80074d2:	2b00      	cmp	r3, #0
 80074d4:	d0c5      	beq.n	8007462 <__sflush_r+0x32>
 80074d6:	2b1d      	cmp	r3, #29
 80074d8:	d001      	beq.n	80074de <__sflush_r+0xae>
 80074da:	2b16      	cmp	r3, #22
 80074dc:	d101      	bne.n	80074e2 <__sflush_r+0xb2>
 80074de:	602f      	str	r7, [r5, #0]
 80074e0:	e7b2      	b.n	8007448 <__sflush_r+0x18>
 80074e2:	89a3      	ldrh	r3, [r4, #12]
 80074e4:	f043 0340 	orr.w	r3, r3, #64	; 0x40
 80074e8:	81a3      	strh	r3, [r4, #12]
 80074ea:	e7ae      	b.n	800744a <__sflush_r+0x1a>
 80074ec:	690f      	ldr	r7, [r1, #16]
 80074ee:	2f00      	cmp	r7, #0
 80074f0:	d0aa      	beq.n	8007448 <__sflush_r+0x18>
 80074f2:	0793      	lsls	r3, r2, #30
 80074f4:	bf18      	it	ne
 80074f6:	2300      	movne	r3, #0
 80074f8:	680e      	ldr	r6, [r1, #0]
 80074fa:	bf08      	it	eq
 80074fc:	694b      	ldreq	r3, [r1, #20]
 80074fe:	1bf6      	subs	r6, r6, r7
 8007500:	600f      	str	r7, [r1, #0]
 8007502:	608b      	str	r3, [r1, #8]
 8007504:	2e00      	cmp	r6, #0
 8007506:	dd9f      	ble.n	8007448 <__sflush_r+0x18>
 8007508:	4633      	mov	r3, r6
 800750a:	463a      	mov	r2, r7
 800750c:	4628      	mov	r0, r5
 800750e:	6a21      	ldr	r1, [r4, #32]
 8007510:	f8d4 c028 	ldr.w	ip, [r4, #40]	; 0x28
 8007514:	47e0      	blx	ip
 8007516:	2800      	cmp	r0, #0
 8007518:	dc06      	bgt.n	8007528 <__sflush_r+0xf8>
 800751a:	89a3      	ldrh	r3, [r4, #12]
 800751c:	f04f 30ff 	mov.w	r0, #4294967295
 8007520:	f043 0340 	orr.w	r3, r3, #64	; 0x40
 8007524:	81a3      	strh	r3, [r4, #12]
 8007526:	e790      	b.n	800744a <__sflush_r+0x1a>
 8007528:	4407      	add	r7, r0
 800752a:	1a36      	subs	r6, r6, r0
 800752c:	e7ea      	b.n	8007504 <__sflush_r+0xd4>
 800752e:	bf00      	nop
 8007530:	dfbffffe 	.word	0xdfbffffe

08007534 <_fflush_r>:
 8007534:	b538      	push	{r3, r4, r5, lr}
 8007536:	690b      	ldr	r3, [r1, #16]
 8007538:	4605      	mov	r5, r0
 800753a:	460c      	mov	r4, r1
 800753c:	b913      	cbnz	r3, 8007544 <_fflush_r+0x10>
 800753e:	2500      	movs	r5, #0
 8007540:	4628      	mov	r0, r5
 8007542:	bd38      	pop	{r3, r4, r5, pc}
 8007544:	b118      	cbz	r0, 800754e <_fflush_r+0x1a>
 8007546:	6a03      	ldr	r3, [r0, #32]
 8007548:	b90b      	cbnz	r3, 800754e <_fflush_r+0x1a>
 800754a:	f7fe fb87 	bl	8005c5c <__sinit>
 800754e:	f9b4 300c 	ldrsh.w	r3, [r4, #12]
 8007552:	2b00      	cmp	r3, #0
 8007554:	d0f3      	beq.n	800753e <_fflush_r+0xa>
 8007556:	6e62      	ldr	r2, [r4, #100]	; 0x64
 8007558:	07d0      	lsls	r0, r2, #31
 800755a:	d404      	bmi.n	8007566 <_fflush_r+0x32>
 800755c:	0599      	lsls	r1, r3, #22
 800755e:	d402      	bmi.n	8007566 <_fflush_r+0x32>
 8007560:	6da0      	ldr	r0, [r4, #88]	; 0x58
 8007562:	f7fe fc71 	bl	8005e48 <__retarget_lock_acquire_recursive>
 8007566:	4628      	mov	r0, r5
 8007568:	4621      	mov	r1, r4
 800756a:	f7ff ff61 	bl	8007430 <__sflush_r>
 800756e:	6e63      	ldr	r3, [r4, #100]	; 0x64
 8007570:	4605      	mov	r5, r0
 8007572:	07da      	lsls	r2, r3, #31
 8007574:	d4e4      	bmi.n	8007540 <_fflush_r+0xc>
 8007576:	89a3      	ldrh	r3, [r4, #12]
 8007578:	059b      	lsls	r3, r3, #22
 800757a:	d4e1      	bmi.n	8007540 <_fflush_r+0xc>
 800757c:	6da0      	ldr	r0, [r4, #88]	; 0x58
 800757e:	f7fe fc64 	bl	8005e4a <__retarget_lock_release_recursive>
 8007582:	e7dd      	b.n	8007540 <_fflush_r+0xc>

08007584 <_sbrk_r>:
 8007584:	b538      	push	{r3, r4, r5, lr}
 8007586:	2300      	movs	r3, #0
 8007588:	4d05      	ldr	r5, [pc, #20]	; (80075a0 <_sbrk_r+0x1c>)
 800758a:	4604      	mov	r4, r0
 800758c:	4608      	mov	r0, r1
 800758e:	602b      	str	r3, [r5, #0]
 8007590:	f7fa f802 	bl	8001598 <_sbrk>
 8007594:	1c43      	adds	r3, r0, #1
 8007596:	d102      	bne.n	800759e <_sbrk_r+0x1a>
 8007598:	682b      	ldr	r3, [r5, #0]
 800759a:	b103      	cbz	r3, 800759e <_sbrk_r+0x1a>
 800759c:	6023      	str	r3, [r4, #0]
 800759e:	bd38      	pop	{r3, r4, r5, pc}
 80075a0:	20000a0c 	.word	0x20000a0c

080075a4 <memcpy>:
 80075a4:	440a      	add	r2, r1
 80075a6:	4291      	cmp	r1, r2
 80075a8:	f100 33ff 	add.w	r3, r0, #4294967295
 80075ac:	d100      	bne.n	80075b0 <memcpy+0xc>
 80075ae:	4770      	bx	lr
 80075b0:	b510      	push	{r4, lr}
 80075b2:	f811 4b01 	ldrb.w	r4, [r1], #1
 80075b6:	4291      	cmp	r1, r2
 80075b8:	f803 4f01 	strb.w	r4, [r3, #1]!
 80075bc:	d1f9      	bne.n	80075b2 <memcpy+0xe>
 80075be:	bd10      	pop	{r4, pc}

080075c0 <__assert_func>:
 80075c0:	b51f      	push	{r0, r1, r2, r3, r4, lr}
 80075c2:	4614      	mov	r4, r2
 80075c4:	461a      	mov	r2, r3
 80075c6:	4b09      	ldr	r3, [pc, #36]	; (80075ec <__assert_func+0x2c>)
 80075c8:	4605      	mov	r5, r0
 80075ca:	681b      	ldr	r3, [r3, #0]
 80075cc:	68d8      	ldr	r0, [r3, #12]
 80075ce:	b14c      	cbz	r4, 80075e4 <__assert_func+0x24>
 80075d0:	4b07      	ldr	r3, [pc, #28]	; (80075f0 <__assert_func+0x30>)
 80075d2:	e9cd 3401 	strd	r3, r4, [sp, #4]
 80075d6:	9100      	str	r1, [sp, #0]
 80075d8:	462b      	mov	r3, r5
 80075da:	4906      	ldr	r1, [pc, #24]	; (80075f4 <__assert_func+0x34>)
 80075dc:	f000 f842 	bl	8007664 <fiprintf>
 80075e0:	f000 f852 	bl	8007688 <abort>
 80075e4:	4b04      	ldr	r3, [pc, #16]	; (80075f8 <__assert_func+0x38>)
 80075e6:	461c      	mov	r4, r3
 80075e8:	e7f3      	b.n	80075d2 <__assert_func+0x12>
 80075ea:	bf00      	nop
 80075ec:	20000108 	.word	0x20000108
 80075f0:	08007e3e 	.word	0x08007e3e
 80075f4:	08007e4b 	.word	0x08007e4b
 80075f8:	08007e79 	.word	0x08007e79

080075fc <_calloc_r>:
 80075fc:	b570      	push	{r4, r5, r6, lr}
 80075fe:	fba1 5402 	umull	r5, r4, r1, r2
 8007602:	b934      	cbnz	r4, 8007612 <_calloc_r+0x16>
 8007604:	4629      	mov	r1, r5
 8007606:	f7ff fb0f 	bl	8006c28 <_malloc_r>
 800760a:	4606      	mov	r6, r0
 800760c:	b928      	cbnz	r0, 800761a <_calloc_r+0x1e>
 800760e:	4630      	mov	r0, r6
 8007610:	bd70      	pop	{r4, r5, r6, pc}
 8007612:	220c      	movs	r2, #12
 8007614:	2600      	movs	r6, #0
 8007616:	6002      	str	r2, [r0, #0]
 8007618:	e7f9      	b.n	800760e <_calloc_r+0x12>
 800761a:	462a      	mov	r2, r5
 800761c:	4621      	mov	r1, r4
 800761e:	f7fe fb96 	bl	8005d4e <memset>
 8007622:	e7f4      	b.n	800760e <_calloc_r+0x12>

08007624 <__ascii_mbtowc>:
 8007624:	b082      	sub	sp, #8
 8007626:	b901      	cbnz	r1, 800762a <__ascii_mbtowc+0x6>
 8007628:	a901      	add	r1, sp, #4
 800762a:	b142      	cbz	r2, 800763e <__ascii_mbtowc+0x1a>
 800762c:	b14b      	cbz	r3, 8007642 <__ascii_mbtowc+0x1e>
 800762e:	7813      	ldrb	r3, [r2, #0]
 8007630:	600b      	str	r3, [r1, #0]
 8007632:	7812      	ldrb	r2, [r2, #0]
 8007634:	1e10      	subs	r0, r2, #0
 8007636:	bf18      	it	ne
 8007638:	2001      	movne	r0, #1
 800763a:	b002      	add	sp, #8
 800763c:	4770      	bx	lr
 800763e:	4610      	mov	r0, r2
 8007640:	e7fb      	b.n	800763a <__ascii_mbtowc+0x16>
 8007642:	f06f 0001 	mvn.w	r0, #1
 8007646:	e7f8      	b.n	800763a <__ascii_mbtowc+0x16>

08007648 <__ascii_wctomb>:
 8007648:	4603      	mov	r3, r0
 800764a:	4608      	mov	r0, r1
 800764c:	b141      	cbz	r1, 8007660 <__ascii_wctomb+0x18>
 800764e:	2aff      	cmp	r2, #255	; 0xff
 8007650:	d904      	bls.n	800765c <__ascii_wctomb+0x14>
 8007652:	228a      	movs	r2, #138	; 0x8a
 8007654:	f04f 30ff 	mov.w	r0, #4294967295
 8007658:	601a      	str	r2, [r3, #0]
 800765a:	4770      	bx	lr
 800765c:	2001      	movs	r0, #1
 800765e:	700a      	strb	r2, [r1, #0]
 8007660:	4770      	bx	lr
	...

08007664 <fiprintf>:
 8007664:	b40e      	push	{r1, r2, r3}
 8007666:	b503      	push	{r0, r1, lr}
 8007668:	4601      	mov	r1, r0
 800766a:	ab03      	add	r3, sp, #12
 800766c:	4805      	ldr	r0, [pc, #20]	; (8007684 <fiprintf+0x20>)
 800766e:	f853 2b04 	ldr.w	r2, [r3], #4
 8007672:	6800      	ldr	r0, [r0, #0]
 8007674:	9301      	str	r3, [sp, #4]
 8007676:	f000 f835 	bl	80076e4 <_vfiprintf_r>
 800767a:	b002      	add	sp, #8
 800767c:	f85d eb04 	ldr.w	lr, [sp], #4
 8007680:	b003      	add	sp, #12
 8007682:	4770      	bx	lr
 8007684:	20000108 	.word	0x20000108

08007688 <abort>:
 8007688:	2006      	movs	r0, #6
 800768a:	b508      	push	{r3, lr}
 800768c:	f000 fa02 	bl	8007a94 <raise>
 8007690:	2001      	movs	r0, #1
 8007692:	f7f9 ff52 	bl	800153a <_exit>

08007696 <__sfputc_r>:
 8007696:	6893      	ldr	r3, [r2, #8]
 8007698:	b410      	push	{r4}
 800769a:	3b01      	subs	r3, #1
 800769c:	2b00      	cmp	r3, #0
 800769e:	6093      	str	r3, [r2, #8]
 80076a0:	da07      	bge.n	80076b2 <__sfputc_r+0x1c>
 80076a2:	6994      	ldr	r4, [r2, #24]
 80076a4:	42a3      	cmp	r3, r4
 80076a6:	db01      	blt.n	80076ac <__sfputc_r+0x16>
 80076a8:	290a      	cmp	r1, #10
 80076aa:	d102      	bne.n	80076b2 <__sfputc_r+0x1c>
 80076ac:	bc10      	pop	{r4}
 80076ae:	f000 b933 	b.w	8007918 <__swbuf_r>
 80076b2:	6813      	ldr	r3, [r2, #0]
 80076b4:	1c58      	adds	r0, r3, #1
 80076b6:	6010      	str	r0, [r2, #0]
 80076b8:	7019      	strb	r1, [r3, #0]
 80076ba:	4608      	mov	r0, r1
 80076bc:	bc10      	pop	{r4}
 80076be:	4770      	bx	lr

080076c0 <__sfputs_r>:
 80076c0:	b5f8      	push	{r3, r4, r5, r6, r7, lr}
 80076c2:	4606      	mov	r6, r0
 80076c4:	460f      	mov	r7, r1
 80076c6:	4614      	mov	r4, r2
 80076c8:	18d5      	adds	r5, r2, r3
 80076ca:	42ac      	cmp	r4, r5
 80076cc:	d101      	bne.n	80076d2 <__sfputs_r+0x12>
 80076ce:	2000      	movs	r0, #0
 80076d0:	e007      	b.n	80076e2 <__sfputs_r+0x22>
 80076d2:	463a      	mov	r2, r7
 80076d4:	4630      	mov	r0, r6
 80076d6:	f814 1b01 	ldrb.w	r1, [r4], #1
 80076da:	f7ff ffdc 	bl	8007696 <__sfputc_r>
 80076de:	1c43      	adds	r3, r0, #1
 80076e0:	d1f3      	bne.n	80076ca <__sfputs_r+0xa>
 80076e2:	bdf8      	pop	{r3, r4, r5, r6, r7, pc}

080076e4 <_vfiprintf_r>:
 80076e4:	e92d 4ff0 	stmdb	sp!, {r4, r5, r6, r7, r8, r9, sl, fp, lr}
 80076e8:	460d      	mov	r5, r1
 80076ea:	4614      	mov	r4, r2
 80076ec:	4698      	mov	r8, r3
 80076ee:	4606      	mov	r6, r0
 80076f0:	b09d      	sub	sp, #116	; 0x74
 80076f2:	b118      	cbz	r0, 80076fc <_vfiprintf_r+0x18>
 80076f4:	6a03      	ldr	r3, [r0, #32]
 80076f6:	b90b      	cbnz	r3, 80076fc <_vfiprintf_r+0x18>
 80076f8:	f7fe fab0 	bl	8005c5c <__sinit>
 80076fc:	6e6b      	ldr	r3, [r5, #100]	; 0x64
 80076fe:	07d9      	lsls	r1, r3, #31
 8007700:	d405      	bmi.n	800770e <_vfiprintf_r+0x2a>
 8007702:	89ab      	ldrh	r3, [r5, #12]
 8007704:	059a      	lsls	r2, r3, #22
 8007706:	d402      	bmi.n	800770e <_vfiprintf_r+0x2a>
 8007708:	6da8      	ldr	r0, [r5, #88]	; 0x58
 800770a:	f7fe fb9d 	bl	8005e48 <__retarget_lock_acquire_recursive>
 800770e:	89ab      	ldrh	r3, [r5, #12]
 8007710:	071b      	lsls	r3, r3, #28
 8007712:	d501      	bpl.n	8007718 <_vfiprintf_r+0x34>
 8007714:	692b      	ldr	r3, [r5, #16]
 8007716:	b99b      	cbnz	r3, 8007740 <_vfiprintf_r+0x5c>
 8007718:	4629      	mov	r1, r5
 800771a:	4630      	mov	r0, r6
 800771c:	f000 f93a 	bl	8007994 <__swsetup_r>
 8007720:	b170      	cbz	r0, 8007740 <_vfiprintf_r+0x5c>
 8007722:	6e6b      	ldr	r3, [r5, #100]	; 0x64
 8007724:	07dc      	lsls	r4, r3, #31
 8007726:	d504      	bpl.n	8007732 <_vfiprintf_r+0x4e>
 8007728:	f04f 30ff 	mov.w	r0, #4294967295
 800772c:	b01d      	add	sp, #116	; 0x74
 800772e:	e8bd 8ff0 	ldmia.w	sp!, {r4, r5, r6, r7, r8, r9, sl, fp, pc}
 8007732:	89ab      	ldrh	r3, [r5, #12]
 8007734:	0598      	lsls	r0, r3, #22
 8007736:	d4f7      	bmi.n	8007728 <_vfiprintf_r+0x44>
 8007738:	6da8      	ldr	r0, [r5, #88]	; 0x58
 800773a:	f7fe fb86 	bl	8005e4a <__retarget_lock_release_recursive>
 800773e:	e7f3      	b.n	8007728 <_vfiprintf_r+0x44>
 8007740:	2300      	movs	r3, #0
 8007742:	9309      	str	r3, [sp, #36]	; 0x24
 8007744:	2320      	movs	r3, #32
 8007746:	f88d 3029 	strb.w	r3, [sp, #41]	; 0x29
 800774a:	2330      	movs	r3, #48	; 0x30
 800774c:	f04f 0901 	mov.w	r9, #1
 8007750:	f8cd 800c 	str.w	r8, [sp, #12]
 8007754:	f8df 81ac 	ldr.w	r8, [pc, #428]	; 8007904 <_vfiprintf_r+0x220>
 8007758:	f88d 302a 	strb.w	r3, [sp, #42]	; 0x2a
 800775c:	4623      	mov	r3, r4
 800775e:	469a      	mov	sl, r3
 8007760:	f813 2b01 	ldrb.w	r2, [r3], #1
 8007764:	b10a      	cbz	r2, 800776a <_vfiprintf_r+0x86>
 8007766:	2a25      	cmp	r2, #37	; 0x25
 8007768:	d1f9      	bne.n	800775e <_vfiprintf_r+0x7a>
 800776a:	ebba 0b04 	subs.w	fp, sl, r4
 800776e:	d00b      	beq.n	8007788 <_vfiprintf_r+0xa4>
 8007770:	465b      	mov	r3, fp
 8007772:	4622      	mov	r2, r4
 8007774:	4629      	mov	r1, r5
 8007776:	4630      	mov	r0, r6
 8007778:	f7ff ffa2 	bl	80076c0 <__sfputs_r>
 800777c:	3001      	adds	r0, #1
 800777e:	f000 80a9 	beq.w	80078d4 <_vfiprintf_r+0x1f0>
 8007782:	9a09      	ldr	r2, [sp, #36]	; 0x24
 8007784:	445a      	add	r2, fp
 8007786:	9209      	str	r2, [sp, #36]	; 0x24
 8007788:	f89a 3000 	ldrb.w	r3, [sl]
 800778c:	2b00      	cmp	r3, #0
 800778e:	f000 80a1 	beq.w	80078d4 <_vfiprintf_r+0x1f0>
 8007792:	2300      	movs	r3, #0
 8007794:	f04f 32ff 	mov.w	r2, #4294967295
 8007798:	e9cd 2305 	strd	r2, r3, [sp, #20]
 800779c:	f10a 0a01 	add.w	sl, sl, #1
 80077a0:	9304      	str	r3, [sp, #16]
 80077a2:	9307      	str	r3, [sp, #28]
 80077a4:	f88d 3053 	strb.w	r3, [sp, #83]	; 0x53
 80077a8:	931a      	str	r3, [sp, #104]	; 0x68
 80077aa:	4654      	mov	r4, sl
 80077ac:	2205      	movs	r2, #5
 80077ae:	f814 1b01 	ldrb.w	r1, [r4], #1
 80077b2:	4854      	ldr	r0, [pc, #336]	; (8007904 <_vfiprintf_r+0x220>)
 80077b4:	f7fe fb4a 	bl	8005e4c <memchr>
 80077b8:	9a04      	ldr	r2, [sp, #16]
 80077ba:	b9d8      	cbnz	r0, 80077f4 <_vfiprintf_r+0x110>
 80077bc:	06d1      	lsls	r1, r2, #27
 80077be:	bf44      	itt	mi
 80077c0:	2320      	movmi	r3, #32
 80077c2:	f88d 3053 	strbmi.w	r3, [sp, #83]	; 0x53
 80077c6:	0713      	lsls	r3, r2, #28
 80077c8:	bf44      	itt	mi
 80077ca:	232b      	movmi	r3, #43	; 0x2b
 80077cc:	f88d 3053 	strbmi.w	r3, [sp, #83]	; 0x53
 80077d0:	f89a 3000 	ldrb.w	r3, [sl]
 80077d4:	2b2a      	cmp	r3, #42	; 0x2a
 80077d6:	d015      	beq.n	8007804 <_vfiprintf_r+0x120>
 80077d8:	4654      	mov	r4, sl
 80077da:	2000      	movs	r0, #0
 80077dc:	f04f 0c0a 	mov.w	ip, #10
 80077e0:	9a07      	ldr	r2, [sp, #28]
 80077e2:	4621      	mov	r1, r4
 80077e4:	f811 3b01 	ldrb.w	r3, [r1], #1
 80077e8:	3b30      	subs	r3, #48	; 0x30
 80077ea:	2b09      	cmp	r3, #9
 80077ec:	d94d      	bls.n	800788a <_vfiprintf_r+0x1a6>
 80077ee:	b1b0      	cbz	r0, 800781e <_vfiprintf_r+0x13a>
 80077f0:	9207      	str	r2, [sp, #28]
 80077f2:	e014      	b.n	800781e <_vfiprintf_r+0x13a>
 80077f4:	eba0 0308 	sub.w	r3, r0, r8
 80077f8:	fa09 f303 	lsl.w	r3, r9, r3
 80077fc:	4313      	orrs	r3, r2
 80077fe:	46a2      	mov	sl, r4
 8007800:	9304      	str	r3, [sp, #16]
 8007802:	e7d2      	b.n	80077aa <_vfiprintf_r+0xc6>
 8007804:	9b03      	ldr	r3, [sp, #12]
 8007806:	1d19      	adds	r1, r3, #4
 8007808:	681b      	ldr	r3, [r3, #0]
 800780a:	9103      	str	r1, [sp, #12]
 800780c:	2b00      	cmp	r3, #0
 800780e:	bfbb      	ittet	lt
 8007810:	425b      	neglt	r3, r3
 8007812:	f042 0202 	orrlt.w	r2, r2, #2
 8007816:	9307      	strge	r3, [sp, #28]
 8007818:	9307      	strlt	r3, [sp, #28]
 800781a:	bfb8      	it	lt
 800781c:	9204      	strlt	r2, [sp, #16]
 800781e:	7823      	ldrb	r3, [r4, #0]
 8007820:	2b2e      	cmp	r3, #46	; 0x2e
 8007822:	d10c      	bne.n	800783e <_vfiprintf_r+0x15a>
 8007824:	7863      	ldrb	r3, [r4, #1]
 8007826:	2b2a      	cmp	r3, #42	; 0x2a
 8007828:	d134      	bne.n	8007894 <_vfiprintf_r+0x1b0>
 800782a:	9b03      	ldr	r3, [sp, #12]
 800782c:	3402      	adds	r4, #2
 800782e:	1d1a      	adds	r2, r3, #4
 8007830:	681b      	ldr	r3, [r3, #0]
 8007832:	9203      	str	r2, [sp, #12]
 8007834:	2b00      	cmp	r3, #0
 8007836:	bfb8      	it	lt
 8007838:	f04f 33ff 	movlt.w	r3, #4294967295
 800783c:	9305      	str	r3, [sp, #20]
 800783e:	f8df a0c8 	ldr.w	sl, [pc, #200]	; 8007908 <_vfiprintf_r+0x224>
 8007842:	2203      	movs	r2, #3
 8007844:	4650      	mov	r0, sl
 8007846:	7821      	ldrb	r1, [r4, #0]
 8007848:	f7fe fb00 	bl	8005e4c <memchr>
 800784c:	b138      	cbz	r0, 800785e <_vfiprintf_r+0x17a>
 800784e:	2240      	movs	r2, #64	; 0x40
 8007850:	9b04      	ldr	r3, [sp, #16]
 8007852:	eba0 000a 	sub.w	r0, r0, sl
 8007856:	4082      	lsls	r2, r0
 8007858:	4313      	orrs	r3, r2
 800785a:	3401      	adds	r4, #1
 800785c:	9304      	str	r3, [sp, #16]
 800785e:	f814 1b01 	ldrb.w	r1, [r4], #1
 8007862:	2206      	movs	r2, #6
 8007864:	4829      	ldr	r0, [pc, #164]	; (800790c <_vfiprintf_r+0x228>)
 8007866:	f88d 1028 	strb.w	r1, [sp, #40]	; 0x28
 800786a:	f7fe faef 	bl	8005e4c <memchr>
 800786e:	2800      	cmp	r0, #0
 8007870:	d03f      	beq.n	80078f2 <_vfiprintf_r+0x20e>
 8007872:	4b27      	ldr	r3, [pc, #156]	; (8007910 <_vfiprintf_r+0x22c>)
 8007874:	bb1b      	cbnz	r3, 80078be <_vfiprintf_r+0x1da>
 8007876:	9b03      	ldr	r3, [sp, #12]
 8007878:	3307      	adds	r3, #7
 800787a:	f023 0307 	bic.w	r3, r3, #7
 800787e:	3308      	adds	r3, #8
 8007880:	9303      	str	r3, [sp, #12]
 8007882:	9b09      	ldr	r3, [sp, #36]	; 0x24
 8007884:	443b      	add	r3, r7
 8007886:	9309      	str	r3, [sp, #36]	; 0x24
 8007888:	e768      	b.n	800775c <_vfiprintf_r+0x78>
 800788a:	460c      	mov	r4, r1
 800788c:	2001      	movs	r0, #1
 800788e:	fb0c 3202 	mla	r2, ip, r2, r3
 8007892:	e7a6      	b.n	80077e2 <_vfiprintf_r+0xfe>
 8007894:	2300      	movs	r3, #0
 8007896:	f04f 0c0a 	mov.w	ip, #10
 800789a:	4619      	mov	r1, r3
 800789c:	3401      	adds	r4, #1
 800789e:	9305      	str	r3, [sp, #20]
 80078a0:	4620      	mov	r0, r4
 80078a2:	f810 2b01 	ldrb.w	r2, [r0], #1
 80078a6:	3a30      	subs	r2, #48	; 0x30
 80078a8:	2a09      	cmp	r2, #9
 80078aa:	d903      	bls.n	80078b4 <_vfiprintf_r+0x1d0>
 80078ac:	2b00      	cmp	r3, #0
 80078ae:	d0c6      	beq.n	800783e <_vfiprintf_r+0x15a>
 80078b0:	9105      	str	r1, [sp, #20]
 80078b2:	e7c4      	b.n	800783e <_vfiprintf_r+0x15a>
 80078b4:	4604      	mov	r4, r0
 80078b6:	2301      	movs	r3, #1
 80078b8:	fb0c 2101 	mla	r1, ip, r1, r2
 80078bc:	e7f0      	b.n	80078a0 <_vfiprintf_r+0x1bc>
 80078be:	ab03      	add	r3, sp, #12
 80078c0:	9300      	str	r3, [sp, #0]
 80078c2:	462a      	mov	r2, r5
 80078c4:	4630      	mov	r0, r6
 80078c6:	4b13      	ldr	r3, [pc, #76]	; (8007914 <_vfiprintf_r+0x230>)
 80078c8:	a904      	add	r1, sp, #16
 80078ca:	f7fd fd8b 	bl	80053e4 <_printf_float>
 80078ce:	4607      	mov	r7, r0
 80078d0:	1c78      	adds	r0, r7, #1
 80078d2:	d1d6      	bne.n	8007882 <_vfiprintf_r+0x19e>
 80078d4:	6e6b      	ldr	r3, [r5, #100]	; 0x64
 80078d6:	07d9      	lsls	r1, r3, #31
 80078d8:	d405      	bmi.n	80078e6 <_vfiprintf_r+0x202>
 80078da:	89ab      	ldrh	r3, [r5, #12]
 80078dc:	059a      	lsls	r2, r3, #22
 80078de:	d402      	bmi.n	80078e6 <_vfiprintf_r+0x202>
 80078e0:	6da8      	ldr	r0, [r5, #88]	; 0x58
 80078e2:	f7fe fab2 	bl	8005e4a <__retarget_lock_release_recursive>
 80078e6:	89ab      	ldrh	r3, [r5, #12]
 80078e8:	065b      	lsls	r3, r3, #25
 80078ea:	f53f af1d 	bmi.w	8007728 <_vfiprintf_r+0x44>
 80078ee:	9809      	ldr	r0, [sp, #36]	; 0x24
 80078f0:	e71c      	b.n	800772c <_vfiprintf_r+0x48>
 80078f2:	ab03      	add	r3, sp, #12
 80078f4:	9300      	str	r3, [sp, #0]
 80078f6:	462a      	mov	r2, r5
 80078f8:	4630      	mov	r0, r6
 80078fa:	4b06      	ldr	r3, [pc, #24]	; (8007914 <_vfiprintf_r+0x230>)
 80078fc:	a904      	add	r1, sp, #16
 80078fe:	f7fe f811 	bl	8005924 <_printf_i>
 8007902:	e7e4      	b.n	80078ce <_vfiprintf_r+0x1ea>
 8007904:	08007f7b 	.word	0x08007f7b
 8007908:	08007f81 	.word	0x08007f81
 800790c:	08007f85 	.word	0x08007f85
 8007910:	080053e5 	.word	0x080053e5
 8007914:	080076c1 	.word	0x080076c1

08007918 <__swbuf_r>:
 8007918:	b5f8      	push	{r3, r4, r5, r6, r7, lr}
 800791a:	460e      	mov	r6, r1
 800791c:	4614      	mov	r4, r2
 800791e:	4605      	mov	r5, r0
 8007920:	b118      	cbz	r0, 800792a <__swbuf_r+0x12>
 8007922:	6a03      	ldr	r3, [r0, #32]
 8007924:	b90b      	cbnz	r3, 800792a <__swbuf_r+0x12>
 8007926:	f7fe f999 	bl	8005c5c <__sinit>
 800792a:	69a3      	ldr	r3, [r4, #24]
 800792c:	60a3      	str	r3, [r4, #8]
 800792e:	89a3      	ldrh	r3, [r4, #12]
 8007930:	071a      	lsls	r2, r3, #28
 8007932:	d525      	bpl.n	8007980 <__swbuf_r+0x68>
 8007934:	6923      	ldr	r3, [r4, #16]
 8007936:	b31b      	cbz	r3, 8007980 <__swbuf_r+0x68>
 8007938:	6823      	ldr	r3, [r4, #0]
 800793a:	6922      	ldr	r2, [r4, #16]
 800793c:	b2f6      	uxtb	r6, r6
 800793e:	1a98      	subs	r0, r3, r2
 8007940:	6963      	ldr	r3, [r4, #20]
 8007942:	4637      	mov	r7, r6
 8007944:	4283      	cmp	r3, r0
 8007946:	dc04      	bgt.n	8007952 <__swbuf_r+0x3a>
 8007948:	4621      	mov	r1, r4
 800794a:	4628      	mov	r0, r5
 800794c:	f7ff fdf2 	bl	8007534 <_fflush_r>
 8007950:	b9e0      	cbnz	r0, 800798c <__swbuf_r+0x74>
 8007952:	68a3      	ldr	r3, [r4, #8]
 8007954:	3b01      	subs	r3, #1
 8007956:	60a3      	str	r3, [r4, #8]
 8007958:	6823      	ldr	r3, [r4, #0]
 800795a:	1c5a      	adds	r2, r3, #1
 800795c:	6022      	str	r2, [r4, #0]
 800795e:	701e      	strb	r6, [r3, #0]
 8007960:	6962      	ldr	r2, [r4, #20]
 8007962:	1c43      	adds	r3, r0, #1
 8007964:	429a      	cmp	r2, r3
 8007966:	d004      	beq.n	8007972 <__swbuf_r+0x5a>
 8007968:	89a3      	ldrh	r3, [r4, #12]
 800796a:	07db      	lsls	r3, r3, #31
 800796c:	d506      	bpl.n	800797c <__swbuf_r+0x64>
 800796e:	2e0a      	cmp	r6, #10
 8007970:	d104      	bne.n	800797c <__swbuf_r+0x64>
 8007972:	4621      	mov	r1, r4
 8007974:	4628      	mov	r0, r5
 8007976:	f7ff fddd 	bl	8007534 <_fflush_r>
 800797a:	b938      	cbnz	r0, 800798c <__swbuf_r+0x74>
 800797c:	4638      	mov	r0, r7
 800797e:	bdf8      	pop	{r3, r4, r5, r6, r7, pc}
 8007980:	4621      	mov	r1, r4
 8007982:	4628      	mov	r0, r5
 8007984:	f000 f806 	bl	8007994 <__swsetup_r>
 8007988:	2800      	cmp	r0, #0
 800798a:	d0d5      	beq.n	8007938 <__swbuf_r+0x20>
 800798c:	f04f 37ff 	mov.w	r7, #4294967295
 8007990:	e7f4      	b.n	800797c <__swbuf_r+0x64>
	...

08007994 <__swsetup_r>:
 8007994:	b538      	push	{r3, r4, r5, lr}
 8007996:	4b2a      	ldr	r3, [pc, #168]	; (8007a40 <__swsetup_r+0xac>)
 8007998:	4605      	mov	r5, r0
 800799a:	6818      	ldr	r0, [r3, #0]
 800799c:	460c      	mov	r4, r1
 800799e:	b118      	cbz	r0, 80079a8 <__swsetup_r+0x14>
 80079a0:	6a03      	ldr	r3, [r0, #32]
 80079a2:	b90b      	cbnz	r3, 80079a8 <__swsetup_r+0x14>
 80079a4:	f7fe f95a 	bl	8005c5c <__sinit>
 80079a8:	89a3      	ldrh	r3, [r4, #12]
 80079aa:	f9b4 200c 	ldrsh.w	r2, [r4, #12]
 80079ae:	0718      	lsls	r0, r3, #28
 80079b0:	d422      	bmi.n	80079f8 <__swsetup_r+0x64>
 80079b2:	06d9      	lsls	r1, r3, #27
 80079b4:	d407      	bmi.n	80079c6 <__swsetup_r+0x32>
 80079b6:	2309      	movs	r3, #9
 80079b8:	602b      	str	r3, [r5, #0]
 80079ba:	f042 0340 	orr.w	r3, r2, #64	; 0x40
 80079be:	f04f 30ff 	mov.w	r0, #4294967295
 80079c2:	81a3      	strh	r3, [r4, #12]
 80079c4:	e034      	b.n	8007a30 <__swsetup_r+0x9c>
 80079c6:	0758      	lsls	r0, r3, #29
 80079c8:	d512      	bpl.n	80079f0 <__swsetup_r+0x5c>
 80079ca:	6b61      	ldr	r1, [r4, #52]	; 0x34
 80079cc:	b141      	cbz	r1, 80079e0 <__swsetup_r+0x4c>
 80079ce:	f104 0344 	add.w	r3, r4, #68	; 0x44
 80079d2:	4299      	cmp	r1, r3
 80079d4:	d002      	beq.n	80079dc <__swsetup_r+0x48>
 80079d6:	4628      	mov	r0, r5
 80079d8:	f7ff f8b6 	bl	8006b48 <_free_r>
 80079dc:	2300      	movs	r3, #0
 80079de:	6363      	str	r3, [r4, #52]	; 0x34
 80079e0:	89a3      	ldrh	r3, [r4, #12]
 80079e2:	f023 0324 	bic.w	r3, r3, #36	; 0x24
 80079e6:	81a3      	strh	r3, [r4, #12]
 80079e8:	2300      	movs	r3, #0
 80079ea:	6063      	str	r3, [r4, #4]
 80079ec:	6923      	ldr	r3, [r4, #16]
 80079ee:	6023      	str	r3, [r4, #0]
 80079f0:	89a3      	ldrh	r3, [r4, #12]
 80079f2:	f043 0308 	orr.w	r3, r3, #8
 80079f6:	81a3      	strh	r3, [r4, #12]
 80079f8:	6923      	ldr	r3, [r4, #16]
 80079fa:	b94b      	cbnz	r3, 8007a10 <__swsetup_r+0x7c>
 80079fc:	89a3      	ldrh	r3, [r4, #12]
 80079fe:	f403 7320 	and.w	r3, r3, #640	; 0x280
 8007a02:	f5b3 7f00 	cmp.w	r3, #512	; 0x200
 8007a06:	d003      	beq.n	8007a10 <__swsetup_r+0x7c>
 8007a08:	4621      	mov	r1, r4
 8007a0a:	4628      	mov	r0, r5
 8007a0c:	f000 f883 	bl	8007b16 <__smakebuf_r>
 8007a10:	89a0      	ldrh	r0, [r4, #12]
 8007a12:	f9b4 200c 	ldrsh.w	r2, [r4, #12]
 8007a16:	f010 0301 	ands.w	r3, r0, #1
 8007a1a:	d00a      	beq.n	8007a32 <__swsetup_r+0x9e>
 8007a1c:	2300      	movs	r3, #0
 8007a1e:	60a3      	str	r3, [r4, #8]
 8007a20:	6963      	ldr	r3, [r4, #20]
 8007a22:	425b      	negs	r3, r3
 8007a24:	61a3      	str	r3, [r4, #24]
 8007a26:	6923      	ldr	r3, [r4, #16]
 8007a28:	b943      	cbnz	r3, 8007a3c <__swsetup_r+0xa8>
 8007a2a:	f010 0080 	ands.w	r0, r0, #128	; 0x80
 8007a2e:	d1c4      	bne.n	80079ba <__swsetup_r+0x26>
 8007a30:	bd38      	pop	{r3, r4, r5, pc}
 8007a32:	0781      	lsls	r1, r0, #30
 8007a34:	bf58      	it	pl
 8007a36:	6963      	ldrpl	r3, [r4, #20]
 8007a38:	60a3      	str	r3, [r4, #8]
 8007a3a:	e7f4      	b.n	8007a26 <__swsetup_r+0x92>
 8007a3c:	2000      	movs	r0, #0
 8007a3e:	e7f7      	b.n	8007a30 <__swsetup_r+0x9c>
 8007a40:	20000108 	.word	0x20000108

08007a44 <_raise_r>:
 8007a44:	291f      	cmp	r1, #31
 8007a46:	b538      	push	{r3, r4, r5, lr}
 8007a48:	4604      	mov	r4, r0
 8007a4a:	460d      	mov	r5, r1
 8007a4c:	d904      	bls.n	8007a58 <_raise_r+0x14>
 8007a4e:	2316      	movs	r3, #22
 8007a50:	6003      	str	r3, [r0, #0]
 8007a52:	f04f 30ff 	mov.w	r0, #4294967295
 8007a56:	bd38      	pop	{r3, r4, r5, pc}
 8007a58:	6bc2      	ldr	r2, [r0, #60]	; 0x3c
 8007a5a:	b112      	cbz	r2, 8007a62 <_raise_r+0x1e>
 8007a5c:	f852 3021 	ldr.w	r3, [r2, r1, lsl #2]
 8007a60:	b94b      	cbnz	r3, 8007a76 <_raise_r+0x32>
 8007a62:	4620      	mov	r0, r4
 8007a64:	f000 f830 	bl	8007ac8 <_getpid_r>
 8007a68:	462a      	mov	r2, r5
 8007a6a:	4601      	mov	r1, r0
 8007a6c:	4620      	mov	r0, r4
 8007a6e:	e8bd 4038 	ldmia.w	sp!, {r3, r4, r5, lr}
 8007a72:	f000 b817 	b.w	8007aa4 <_kill_r>
 8007a76:	2b01      	cmp	r3, #1
 8007a78:	d00a      	beq.n	8007a90 <_raise_r+0x4c>
 8007a7a:	1c59      	adds	r1, r3, #1
 8007a7c:	d103      	bne.n	8007a86 <_raise_r+0x42>
 8007a7e:	2316      	movs	r3, #22
 8007a80:	6003      	str	r3, [r0, #0]
 8007a82:	2001      	movs	r0, #1
 8007a84:	e7e7      	b.n	8007a56 <_raise_r+0x12>
 8007a86:	2400      	movs	r4, #0
 8007a88:	4628      	mov	r0, r5
 8007a8a:	f842 4025 	str.w	r4, [r2, r5, lsl #2]
 8007a8e:	4798      	blx	r3
 8007a90:	2000      	movs	r0, #0
 8007a92:	e7e0      	b.n	8007a56 <_raise_r+0x12>

08007a94 <raise>:
 8007a94:	4b02      	ldr	r3, [pc, #8]	; (8007aa0 <raise+0xc>)
 8007a96:	4601      	mov	r1, r0
 8007a98:	6818      	ldr	r0, [r3, #0]
 8007a9a:	f7ff bfd3 	b.w	8007a44 <_raise_r>
 8007a9e:	bf00      	nop
 8007aa0:	20000108 	.word	0x20000108

08007aa4 <_kill_r>:
 8007aa4:	b538      	push	{r3, r4, r5, lr}
 8007aa6:	2300      	movs	r3, #0
 8007aa8:	4d06      	ldr	r5, [pc, #24]	; (8007ac4 <_kill_r+0x20>)
 8007aaa:	4604      	mov	r4, r0
 8007aac:	4608      	mov	r0, r1
 8007aae:	4611      	mov	r1, r2
 8007ab0:	602b      	str	r3, [r5, #0]
 8007ab2:	f7f9 fd3a 	bl	800152a <_kill>
 8007ab6:	1c43      	adds	r3, r0, #1
 8007ab8:	d102      	bne.n	8007ac0 <_kill_r+0x1c>
 8007aba:	682b      	ldr	r3, [r5, #0]
 8007abc:	b103      	cbz	r3, 8007ac0 <_kill_r+0x1c>
 8007abe:	6023      	str	r3, [r4, #0]
 8007ac0:	bd38      	pop	{r3, r4, r5, pc}
 8007ac2:	bf00      	nop
 8007ac4:	20000a0c 	.word	0x20000a0c

08007ac8 <_getpid_r>:
 8007ac8:	f7f9 bd2d 	b.w	8001526 <_getpid>

08007acc <__swhatbuf_r>:
 8007acc:	b570      	push	{r4, r5, r6, lr}
 8007ace:	460c      	mov	r4, r1
 8007ad0:	f9b1 100e 	ldrsh.w	r1, [r1, #14]
 8007ad4:	4615      	mov	r5, r2
 8007ad6:	2900      	cmp	r1, #0
 8007ad8:	461e      	mov	r6, r3
 8007ada:	b096      	sub	sp, #88	; 0x58
 8007adc:	da0c      	bge.n	8007af8 <__swhatbuf_r+0x2c>
 8007ade:	89a3      	ldrh	r3, [r4, #12]
 8007ae0:	2100      	movs	r1, #0
 8007ae2:	f013 0f80 	tst.w	r3, #128	; 0x80
 8007ae6:	bf0c      	ite	eq
 8007ae8:	f44f 6380 	moveq.w	r3, #1024	; 0x400
 8007aec:	2340      	movne	r3, #64	; 0x40
 8007aee:	2000      	movs	r0, #0
 8007af0:	6031      	str	r1, [r6, #0]
 8007af2:	602b      	str	r3, [r5, #0]
 8007af4:	b016      	add	sp, #88	; 0x58
 8007af6:	bd70      	pop	{r4, r5, r6, pc}
 8007af8:	466a      	mov	r2, sp
 8007afa:	f000 f849 	bl	8007b90 <_fstat_r>
 8007afe:	2800      	cmp	r0, #0
 8007b00:	dbed      	blt.n	8007ade <__swhatbuf_r+0x12>
 8007b02:	9901      	ldr	r1, [sp, #4]
 8007b04:	f401 4170 	and.w	r1, r1, #61440	; 0xf000
 8007b08:	f5a1 5300 	sub.w	r3, r1, #8192	; 0x2000
 8007b0c:	4259      	negs	r1, r3
 8007b0e:	4159      	adcs	r1, r3
 8007b10:	f44f 6380 	mov.w	r3, #1024	; 0x400
 8007b14:	e7eb      	b.n	8007aee <__swhatbuf_r+0x22>

08007b16 <__smakebuf_r>:
 8007b16:	898b      	ldrh	r3, [r1, #12]
 8007b18:	b573      	push	{r0, r1, r4, r5, r6, lr}
 8007b1a:	079d      	lsls	r5, r3, #30
 8007b1c:	4606      	mov	r6, r0
 8007b1e:	460c      	mov	r4, r1
 8007b20:	d507      	bpl.n	8007b32 <__smakebuf_r+0x1c>
 8007b22:	f104 0347 	add.w	r3, r4, #71	; 0x47
 8007b26:	6023      	str	r3, [r4, #0]
 8007b28:	6123      	str	r3, [r4, #16]
 8007b2a:	2301      	movs	r3, #1
 8007b2c:	6163      	str	r3, [r4, #20]
 8007b2e:	b002      	add	sp, #8
 8007b30:	bd70      	pop	{r4, r5, r6, pc}
 8007b32:	466a      	mov	r2, sp
 8007b34:	ab01      	add	r3, sp, #4
 8007b36:	f7ff ffc9 	bl	8007acc <__swhatbuf_r>
 8007b3a:	9900      	ldr	r1, [sp, #0]
 8007b3c:	4605      	mov	r5, r0
 8007b3e:	4630      	mov	r0, r6
 8007b40:	f7ff f872 	bl	8006c28 <_malloc_r>
 8007b44:	b948      	cbnz	r0, 8007b5a <__smakebuf_r+0x44>
 8007b46:	f9b4 300c 	ldrsh.w	r3, [r4, #12]
 8007b4a:	059a      	lsls	r2, r3, #22
 8007b4c:	d4ef      	bmi.n	8007b2e <__smakebuf_r+0x18>
 8007b4e:	f023 0303 	bic.w	r3, r3, #3
 8007b52:	f043 0302 	orr.w	r3, r3, #2
 8007b56:	81a3      	strh	r3, [r4, #12]
 8007b58:	e7e3      	b.n	8007b22 <__smakebuf_r+0xc>
 8007b5a:	89a3      	ldrh	r3, [r4, #12]
 8007b5c:	6020      	str	r0, [r4, #0]
 8007b5e:	f043 0380 	orr.w	r3, r3, #128	; 0x80
 8007b62:	81a3      	strh	r3, [r4, #12]
 8007b64:	9b00      	ldr	r3, [sp, #0]
 8007b66:	6120      	str	r0, [r4, #16]
 8007b68:	6163      	str	r3, [r4, #20]
 8007b6a:	9b01      	ldr	r3, [sp, #4]
 8007b6c:	b15b      	cbz	r3, 8007b86 <__smakebuf_r+0x70>
 8007b6e:	4630      	mov	r0, r6
 8007b70:	f9b4 100e 	ldrsh.w	r1, [r4, #14]
 8007b74:	f000 f81e 	bl	8007bb4 <_isatty_r>
 8007b78:	b128      	cbz	r0, 8007b86 <__smakebuf_r+0x70>
 8007b7a:	89a3      	ldrh	r3, [r4, #12]
 8007b7c:	f023 0303 	bic.w	r3, r3, #3
 8007b80:	f043 0301 	orr.w	r3, r3, #1
 8007b84:	81a3      	strh	r3, [r4, #12]
 8007b86:	89a3      	ldrh	r3, [r4, #12]
 8007b88:	431d      	orrs	r5, r3
 8007b8a:	81a5      	strh	r5, [r4, #12]
 8007b8c:	e7cf      	b.n	8007b2e <__smakebuf_r+0x18>
	...

08007b90 <_fstat_r>:
 8007b90:	b538      	push	{r3, r4, r5, lr}
 8007b92:	2300      	movs	r3, #0
 8007b94:	4d06      	ldr	r5, [pc, #24]	; (8007bb0 <_fstat_r+0x20>)
 8007b96:	4604      	mov	r4, r0
 8007b98:	4608      	mov	r0, r1
 8007b9a:	4611      	mov	r1, r2
 8007b9c:	602b      	str	r3, [r5, #0]
 8007b9e:	f7f9 fcf1 	bl	8001584 <_fstat>
 8007ba2:	1c43      	adds	r3, r0, #1
 8007ba4:	d102      	bne.n	8007bac <_fstat_r+0x1c>
 8007ba6:	682b      	ldr	r3, [r5, #0]
 8007ba8:	b103      	cbz	r3, 8007bac <_fstat_r+0x1c>
 8007baa:	6023      	str	r3, [r4, #0]
 8007bac:	bd38      	pop	{r3, r4, r5, pc}
 8007bae:	bf00      	nop
 8007bb0:	20000a0c 	.word	0x20000a0c

08007bb4 <_isatty_r>:
 8007bb4:	b538      	push	{r3, r4, r5, lr}
 8007bb6:	2300      	movs	r3, #0
 8007bb8:	4d05      	ldr	r5, [pc, #20]	; (8007bd0 <_isatty_r+0x1c>)
 8007bba:	4604      	mov	r4, r0
 8007bbc:	4608      	mov	r0, r1
 8007bbe:	602b      	str	r3, [r5, #0]
 8007bc0:	f7f9 fce5 	bl	800158e <_isatty>
 8007bc4:	1c43      	adds	r3, r0, #1
 8007bc6:	d102      	bne.n	8007bce <_isatty_r+0x1a>
 8007bc8:	682b      	ldr	r3, [r5, #0]
 8007bca:	b103      	cbz	r3, 8007bce <_isatty_r+0x1a>
 8007bcc:	6023      	str	r3, [r4, #0]
 8007bce:	bd38      	pop	{r3, r4, r5, pc}
 8007bd0:	20000a0c 	.word	0x20000a0c

08007bd4 <_init>:
 8007bd4:	b5f8      	push	{r3, r4, r5, r6, r7, lr}
 8007bd6:	bf00      	nop
 8007bd8:	bcf8      	pop	{r3, r4, r5, r6, r7}
 8007bda:	bc08      	pop	{r3}
 8007bdc:	469e      	mov	lr, r3
 8007bde:	4770      	bx	lr

08007be0 <_fini>:
 8007be0:	b5f8      	push	{r3, r4, r5, r6, r7, lr}
 8007be2:	bf00      	nop
 8007be4:	bcf8      	pop	{r3, r4, r5, r6, r7}
 8007be6:	bc08      	pop	{r3}
 8007be8:	469e      	mov	lr, r3
 8007bea:	4770      	bx	lr
